(dp0
S'parameterArray'
p1
(lp2
(dp3
Vprf_stim_barpass_duration
p4
I20
sVblobstim_fix_opacity
p5
F0.3
sVpixstim_fix_aperture_fraction
p6
F0.2
sVblobstim_fix_ecc_min
p7
F0.05
sVpost_fix_time
p8
F0.4
sVpixstim_bg_noise_n_textures
p9
I8
sVpixstim_fix_noise_n_textures
p10
I8
sVpixstim_bg_aperture_fraction
p11
F0.99
sVsize_fixation_deg
p12
F0.4
sVpixstim_fix_tex_size
p13
I64
sVfix_psychometric_curve_interval
p14
F0.15
sVin_scanner
p15
I0
sVblobstim_fix_nr_blobrows_per_ring
p16
I2
sVTR
p17
F1.2
sVblobstim_bg_opacity
p18
F0.125
sVblobstim_fix_spacing_factor
p19
F0.9
sVpixstim_fix_amplitude_exponent
p20
I1
sS'pos_in_bar_trajectory'
p21
cnumpy.core.multiarray
scalar
p22
(cnumpy
dtype
p23
(S'f8'
p24
I0
I1
tp25
Rp26
(I3
S'<'
p27
NNNI-1
I-1
I0
tp28
bS'\x00\x00\x00\x00\x00\x00\x00\x00'
p29
tp30
Rp31
sVfix_psychometric_curve_nr_steps_oneside
p32
I10
sS'answer'
p33
I-1
sVprf_checker_tex_nr_pix
p34
I512
sVblobstim_bg_spacing_factor
p35
F0.8
sVbg_psychometric_curve_interval
p36
F0.15
sVpixstim_bg_tex_size
p37
I1024
sVprf_checker_bar_width
p38
F0.125
sS'bg_trial_stimulus_value'
p39
g22
(g26
S'\xb8\x1e\x85\xebQ\xb8\x8e?'
p40
tp41
Rp42
sVfix_time
p43
F0.25
sVprf_checker_cycles_in_bar
p44
I2
sVpixstim_bg_opacity
p45
F0.4
sVblobstim_bg_ecc_min
p46
F0.1
sVpixstim_fix_opacity
p47
F0.8
sVprf_checker_flicker_frequency
p48
I6
sVblobstim_bg_nr_blobrows_per_ring
p49
I12
sS'fix_trial_stimulus_value'
p50
g22
(g26
S'\xb9\x1e\x85\xebQ\xb8\xae\xbf'
p51
tp52
Rp53
sVpixstim_bg_amplitude_exponent
p54
I1
sVwhich_stimulus_type
p55
I1
sVprf_stim_sequence_angles
p56
(lp57
I-1
aI0
aI225
aI-1
aI90
aI135
aI-1
aI180
aI45
aI-1
aI270
aI135
aI-1
asVprf_stim_blank_duration
p58
I10
sVaperture_stim_sd
p59
F0.1225
sVblobstim_bg_nr_rings
p60
I1
sVbg_psychometric_curve_nr_steps_oneside
p61
I10
sS'bar_orientation'
p62
g22
(g26
S'\x00\x00\x00\x00\x00\x00\xf0\xbf'
p63
tp64
Rp65
sVblobstim_fix_nr_ring
p66
I1
sVstim_time
p67
F0.2
sVanswer_dictionary
p68
(dp69
Vy
p70
I1
sVb
p71
I0
ssVblobstim_bg_ecc_max
p72
I15
sa(dp73
g4
I20
sg5
F0.3
sg6
F0.2
sg7
F0.05
sg8
F0.4
sg9
I8
sg10
I8
sg11
F0.99
sg12
F0.4
sg13
I64
sg14
F0.15
sg15
I0
sg16
I2
sg17
F1.2
sg18
F0.125
sg19
F0.9
sg20
I1
sg21
g22
(g26
S'\x00\x00\x00\x00\x00\x00\xf0?'
p74
tp75
Rp76
sg32
I10
sg33
I-1
sg34
I512
sg35
F0.8
sg36
F0.15
sg37
I1024
sg38
F0.125
sg39
g22
(g26
S'\xb9\x1e\x85\xebQ\xb8\xae\xbf'
p77
tp78
Rp79
sg43
F0.25
sg44
I2
sg45
F0.4
sg46
F0.1
sg47
F0.8
sg48
I6
sg49
I12
sg50
g22
(g26
S'333333\xc3\xbf'
p80
tp81
Rp82
sg54
I1
sg55
I1
sg56
g57
sg58
I10
sg59
F0.1225
sg60
I1
sg61
I10
sg62
g22
(g26
S'\x00\x00\x00\x00\x00\x00\xf0\xbf'
p83
tp84
Rp85
sg66
I1
sg67
F0.2
sg68
g69
sg72
I15
sa(dp86
g4
I20
sg5
F0.3
sg6
F0.2
sg7
F0.05
sg8
F0.4
sg9
I8
sg10
I8
sg11
F0.99
sg12
F0.4
sg13
I64
sg14
F0.15
sg15
I0
sg16
I2
sg17
F1.2
sg18
F0.125
sg19
F0.9
sg20
I1
sg21
g22
(g26
S'\x00\x00\x00\x00\x00\x00\x00@'
p87
tp88
Rp89
sg32
I10
sg33
I-1
sg34
I512
sg35
F0.8
sg36
F0.15
sg37
I1024
sg38
F0.125
sg39
g22
(g26
S'433333\xb3\xbf'
p90
tp91
Rp92
sg43
F0.25
sg44
I2
sg45
F0.4
sg46
F0.1
sg47
F0.8
sg48
I6
sg49
I12
sg50
g22
(g26
S'\xb9\x1e\x85\xebQ\xb8\xae?'
p93
tp94
Rp95
sg54
I1
sg55
I1
sg56
g57
sg58
I10
sg59
F0.1225
sg60
I1
sg61
I10
sg62
g22
(g26
S'\x00\x00\x00\x00\x00\x00\xf0\xbf'
p96
tp97
Rp98
sg66
I1
sg67
F0.2
sg68
g69
sg72
I15
sa(dp99
g4
I20
sg5
F0.3
sg6
F0.2
sg7
F0.05
sg8
F0.4
sg9
I8
sg10
I8
sg11
F0.99
sg12
F0.4
sg13
I64
sg14
F0.15
sg15
I0
sg16
I2
sg17
F1.2
sg18
F0.125
sg19
F0.9
sg20
I1
sg21
g22
(g26
S'\x00\x00\x00\x00\x00\x00\x08@'
p100
tp101
Rp102
sg32
I10
sg33
I-1
sg34
I512
sg35
F0.8
sg36
F0.15
sg37
I1024
sg38
F0.125
sg39
g22
(g26
S'\xe2z\x14\xaeG\xe1\xba\xbf'
p103
tp104
Rp105
sg43
F0.25
sg44
I2
sg45
F0.4
sg46
F0.1
sg47
F0.8
sg48
I6
sg49
I12
sg50
g22
(g26
S'\xb9\x1e\x85\xebQ\xb8\xae?'
p106
tp107
Rp108
sg54
I1
sg55
I1
sg56
g57
sg58
I10
sg59
F0.1225
sg60
I1
sg61
I10
sg62
g22
(g26
S'\x00\x00\x00\x00\x00\x00\xf0\xbf'
p109
tp110
Rp111
sg66
I1
sg67
F0.2
sg68
g69
sg72
I15
sa(dp112
g4
I20
sg5
F0.3
sg6
F0.2
sg7
F0.05
sg8
F0.4
sg9
I8
sg10
I8
sg11
F0.99
sg12
F0.4
sg13
I64
sg14
F0.15
sg15
I0
sg16
I2
sg17
F1.2
sg18
F0.125
sg19
F0.9
sg20
I1
sg21
g22
(g26
S'\x00\x00\x00\x00\x00\x00\x10@'
p113
tp114
Rp115
sg32
I10
sg33
I-1
sg34
I512
sg35
F0.8
sg36
F0.15
sg37
I1024
sg38
F0.125
sg39
g22
(g26
S'H\xe1z\x14\xaeG\xc1\xbf'
p116
tp117
Rp118
sg43
F0.25
sg44
I2
sg45
F0.4
sg46
F0.1
sg47
F0.8
sg48
I6
sg49
I12
sg50
g22
(g26
S'\n\xd7\xa3p=\n\xa7\xbf'
p119
tp120
Rp121
sg54
I1
sg55
I1
sg56
g57
sg58
I10
sg59
F0.1225
sg60
I1
sg61
I10
sg62
g22
(g26
S'\x00\x00\x00\x00\x00\x00\xf0\xbf'
p122
tp123
Rp124
sg66
I1
sg67
F0.2
sg68
g69
sg72
I15
sa(dp125
g4
I20
sg5
F0.3
sg6
F0.2
sg7
F0.05
sg8
F0.4
sg9
I8
sg10
I8
sg11
F0.99
sg12
F0.4
sg13
I64
sg14
F0.15
sg15
I0
sg16
I2
sg17
F1.2
sg18
F0.125
sg19
F0.9
sg20
I1
sg21
g22
(g26
S'\x00\x00\x00\x00\x00\x00\x14@'
p126
tp127
Rp128
sg32
I10
sg33
I-1
sg34
I512
sg35
F0.8
sg36
F0.15
sg37
I1024
sg38
F0.125
sg39
g22
(g26
S'333333\xc3\xbf'
p129
tp130
Rp131
sg43
F0.25
sg44
I2
sg45
F0.4
sg46
F0.1
sg47
F0.8
sg48
I6
sg49
I12
sg50
g22
(g26
S'\xb9\x1e\x85\xebQ\xb8\xbe?'
p132
tp133
Rp134
sg54
I1
sg55
I1
sg56
g57
sg58
I10
sg59
F0.1225
sg60
I1
sg61
I10
sg62
g22
(g26
S'\x00\x00\x00\x00\x00\x00\xf0\xbf'
p135
tp136
Rp137
sg66
I1
sg67
F0.2
sg68
g69
sg72
I15
sa(dp138
g4
I20
sg5
F0.3
sg6
F0.2
sg7
F0.05
sg8
F0.4
sg9
I8
sg10
I8
sg11
F0.99
sg12
F0.4
sg13
I64
sg14
F0.15
sg15
I0
sg16
I2
sg17
F1.2
sg18
F0.125
sg19
F0.9
sg20
I1
sg21
g22
(g26
S'\x00\x00\x00\x00\x00\x00\x18@'
p139
tp140
Rp141
sg32
I10
sg33
I-1
sg34
I512
sg35
F0.8
sg36
F0.15
sg37
I1024
sg38
F0.125
sg39
g22
(g26
S'H\xe1z\x14\xaeG\xc1?'
p142
tp143
Rp144
sg43
F0.25
sg44
I2
sg45
F0.4
sg46
F0.1
sg47
F0.8
sg48
I6
sg49
I12
sg50
g22
(g26
S'333333\xc3?'
p145
tp146
Rp147
sg54
I1
sg55
I1
sg56
g57
sg58
I10
sg59
F0.1225
sg60
I1
sg61
I10
sg62
g22
(g26
S'\x00\x00\x00\x00\x00\x00\xf0\xbf'
p148
tp149
Rp150
sg66
I1
sg67
F0.2
sg68
g69
sg72
I15
sa(dp151
g4
I20
sg5
F0.3
sg6
F0.2
sg7
F0.05
sg8
F0.4
sg9
I8
sg10
I8
sg11
F0.99
sg12
F0.4
sg13
I64
sg14
F0.15
sg15
I0
sg16
I2
sg17
F1.2
sg18
F0.125
sg19
F0.9
sg20
I1
sg21
g22
(g26
S'\x00\x00\x00\x00\x00\x00\x1c@'
p152
tp153
Rp154
sg32
I10
sg33
I-1
sg34
I512
sg35
F0.8
sg36
F0.15
sg37
I1024
sg38
F0.125
sg39
g22
(g26
S'\xb8\x1e\x85\xebQ\xb8\x8e?'
p155
tp156
Rp157
sg43
F0.25
sg44
I2
sg45
F0.4
sg46
F0.1
sg47
F0.8
sg48
I6
sg49
I12
sg50
g22
(g26
S'\xb8\x1e\x85\xebQ\xb8\x8e?'
p158
tp159
Rp160
sg54
I1
sg55
I1
sg56
g57
sg58
I10
sg59
F0.1225
sg60
I1
sg61
I10
sg62
g22
(g26
S'\x00\x00\x00\x00\x00\x00\xf0\xbf'
p161
tp162
Rp163
sg66
I1
sg67
F0.2
sg68
g69
sg72
I15
sa(dp164
g4
I20
sg5
F0.3
sg6
F0.2
sg7
F0.05
sg8
F0.4
sg9
I8
sg10
I8
sg11
F0.99
sg12
F0.4
sg13
I64
sg14
F0.15
sg15
I0
sg16
I2
sg17
F1.2
sg18
F0.125
sg19
F0.9
sg20
I1
sg21
g22
(g26
S'\x00\x00\x00\x00\x00\x00 @'
p165
tp166
Rp167
sg32
I10
sg33
I-1
sg34
I512
sg35
F0.8
sg36
F0.15
sg37
I1024
sg38
F0.125
sg39
g22
(g26
S'\xb9\x1e\x85\xebQ\xb8\xae?'
p168
tp169
Rp170
sg43
F0.25
sg44
I2
sg45
F0.4
sg46
F0.1
sg47
F0.8
sg48
I6
sg49
I12
sg50
g22
(g26
S'\x0b\xd7\xa3p=\n\xb7\xbf'
p171
tp172
Rp173
sg54
I1
sg55
I1
sg56
g57
sg58
I10
sg59
F0.1225
sg60
I1
sg61
I10
sg62
g22
(g26
S'\x00\x00\x00\x00\x00\x00\xf0\xbf'
p174
tp175
Rp176
sg66
I1
sg67
F0.2
sg68
g69
sg72
I15
sa(dp177
g4
I20
sg5
F0.3
sg6
F0.2
sg7
F0.05
sg8
F0.4
sg9
I8
sg10
I8
sg11
F0.99
sg12
F0.4
sg13
I64
sg14
F0.15
sg15
I0
sg16
I2
sg17
F1.2
sg18
F0.125
sg19
F0.9
sg20
I1
sg21
g22
(g26
S'\x00\x00\x00\x00\x00\x00"@'
p178
tp179
Rp180
sg32
I10
sg33
I-1
sg34
I512
sg35
F0.8
sg36
F0.15
sg37
I1024
sg38
F0.125
sg39
g22
(g26
S'333333\xc3?'
p181
tp182
Rp183
sg43
F0.25
sg44
I2
sg45
F0.4
sg46
F0.1
sg47
F0.8
sg48
I6
sg49
I12
sg50
g22
(g26
S'\xe2z\x14\xaeG\xe1\xba\xbf'
p184
tp185
Rp186
sg54
I1
sg55
I1
sg56
g57
sg58
I10
sg59
F0.1225
sg60
I1
sg61
I10
sg62
g22
(g26
S'\x00\x00\x00\x00\x00\x00\xf0\xbf'
p187
tp188
Rp189
sg66
I1
sg67
F0.2
sg68
g69
sg72
I15
sa(dp190
g4
I20
sg5
F0.3
sg6
F0.2
sg7
F0.05
sg8
F0.4
sg9
I8
sg10
I8
sg11
F0.99
sg12
F0.4
sg13
I64
sg14
F0.15
sg15
I0
sg16
I2
sg17
F1.2
sg18
F0.125
sg19
F0.9
sg20
I1
sg21
g22
(g26
S'\x00\x00\x00\x00\x00\x00\x00\x00'
p191
tp192
Rp193
sg32
I10
sg33
I-1
sg34
I512
sg35
F0.8
sg36
F0.15
sg37
I1024
sg38
F0.125
sg39
g22
(g26
S'\n\xd7\xa3p=\n\xa7\xbf'
p194
tp195
Rp196
sg43
F0.25
sg44
I2
sg45
F0.4
sg46
F0.1
sg47
F0.8
sg48
I6
sg49
I12
sg50
g22
(g26
S'\xb9\x1e\x85\xebQ\xb8\xae\xbf'
p197
tp198
Rp199
sg54
I1
sg55
I1
sg56
g57
sg58
I10
sg59
F0.1225
sg60
I1
sg61
I10
sg62
g22
(g26
S'\x00\x00\x00\x00\x00\x00\x00\x00'
p200
tp201
Rp202
sg66
I1
sg67
F0.2
sg68
g69
sg72
I15
sa(dp203
g4
I20
sg5
F0.3
sg6
F0.2
sg7
F0.05
sg8
F0.4
sg9
I8
sg10
I8
sg11
F0.99
sg12
F0.4
sg13
I64
sg14
F0.15
sg15
I0
sg16
I2
sg17
F1.2
sg18
F0.125
sg19
F0.9
sg20
I1
sg21
g22
(g26
S'\x00\x00\x00\x00\x00\x00\xf0?'
p204
tp205
Rp206
sg32
I10
sg33
I-1
sg34
I512
sg35
F0.8
sg36
F0.15
sg37
I1024
sg38
F0.125
sg39
g22
(g26
S'\xb9\x1e\x85\xebQ\xb8\xae?'
p207
tp208
Rp209
sg43
F0.25
sg44
I2
sg45
F0.4
sg46
F0.1
sg47
F0.8
sg48
I6
sg49
I12
sg50
g22
(g26
S'\xb9\x1e\x85\xebQ\xb8\xae?'
p210
tp211
Rp212
sg54
I1
sg55
I1
sg56
g57
sg58
I10
sg59
F0.1225
sg60
I1
sg61
I10
sg62
g22
(g26
S'\x00\x00\x00\x00\x00\x00\x00\x00'
p213
tp214
Rp215
sg66
I1
sg67
F0.2
sg68
g69
sg72
I15
sa(dp216
g4
I20
sg5
F0.3
sg6
F0.2
sg7
F0.05
sg8
F0.4
sg9
I8
sg10
I8
sg11
F0.99
sg12
F0.4
sg13
I64
sg14
F0.15
sg15
I0
sg16
I2
sg17
F1.2
sg18
F0.125
sg19
F0.9
sg20
I1
sg21
g22
(g26
S'\x00\x00\x00\x00\x00\x00\x00@'
p217
tp218
Rp219
sg32
I10
sg33
I-1
sg34
I512
sg35
F0.8
sg36
F0.15
sg37
I1024
sg38
F0.125
sg39
g22
(g26
S'\n\xd7\xa3p=\n\xa7\xbf'
p220
tp221
Rp222
sg43
F0.25
sg44
I2
sg45
F0.4
sg46
F0.1
sg47
F0.8
sg48
I6
sg49
I12
sg50
g22
(g26
S'\xb9\x1e\x85\xebQ\xb8\xae?'
p223
tp224
Rp225
sg54
I1
sg55
I1
sg56
g57
sg58
I10
sg59
F0.1225
sg60
I1
sg61
I10
sg62
g22
(g26
S'\x00\x00\x00\x00\x00\x00\x00\x00'
p226
tp227
Rp228
sg66
I1
sg67
F0.2
sg68
g69
sg72
I15
sa(dp229
g4
I20
sg5
F0.3
sg6
F0.2
sg7
F0.05
sg8
F0.4
sg9
I8
sg10
I8
sg11
F0.99
sg12
F0.4
sg13
I64
sg14
F0.15
sg15
I0
sg16
I2
sg17
F1.2
sg18
F0.125
sg19
F0.9
sg20
I1
sg21
g22
(g26
S'\x00\x00\x00\x00\x00\x00\x08@'
p230
tp231
Rp232
sg32
I10
sg33
I-1
sg34
I512
sg35
F0.8
sg36
F0.15
sg37
I1024
sg38
F0.125
sg39
g22
(g26
S'\x0b\xd7\xa3p=\n\xb7?'
p233
tp234
Rp235
sg43
F0.25
sg44
I2
sg45
F0.4
sg46
F0.1
sg47
F0.8
sg48
I6
sg49
I12
sg50
g22
(g26
S'433333\xb3\xbf'
p236
tp237
Rp238
sg54
I1
sg55
I1
sg56
g57
sg58
I10
sg59
F0.1225
sg60
I1
sg61
I10
sg62
g22
(g26
S'\x00\x00\x00\x00\x00\x00\x00\x00'
p239
tp240
Rp241
sg66
I1
sg67
F0.2
sg68
g69
sg72
I15
sa(dp242
g4
I20
sg5
F0.3
sg6
F0.2
sg7
F0.05
sg8
F0.4
sg9
I8
sg10
I8
sg11
F0.99
sg12
F0.4
sg13
I64
sg14
F0.15
sg15
I0
sg16
I2
sg17
F1.2
sg18
F0.125
sg19
F0.9
sg20
I1
sg21
g22
(g26
S'\x00\x00\x00\x00\x00\x00\x10@'
p243
tp244
Rp245
sg32
I10
sg33
I-1
sg34
I512
sg35
F0.8
sg36
F0.15
sg37
I1024
sg38
F0.125
sg39
g22
(g26
S'\xb9\x1e\x85\xebQ\xb8\xae?'
p246
tp247
Rp248
sg43
F0.25
sg44
I2
sg45
F0.4
sg46
F0.1
sg47
F0.8
sg48
I6
sg49
I12
sg50
g22
(g26
S'\xb8\x1e\x85\xebQ\xb8\x8e\xbf'
p249
tp250
Rp251
sg54
I1
sg55
I1
sg56
g57
sg58
I10
sg59
F0.1225
sg60
I1
sg61
I10
sg62
g22
(g26
S'\x00\x00\x00\x00\x00\x00\x00\x00'
p252
tp253
Rp254
sg66
I1
sg67
F0.2
sg68
g69
sg72
I15
sa(dp255
g4
I20
sg5
F0.3
sg6
F0.2
sg7
F0.05
sg8
F0.4
sg9
I8
sg10
I8
sg11
F0.99
sg12
F0.4
sg13
I64
sg14
F0.15
sg15
I0
sg16
I2
sg17
F1.2
sg18
F0.125
sg19
F0.9
sg20
I1
sg21
g22
(g26
S'\x00\x00\x00\x00\x00\x00\x14@'
p256
tp257
Rp258
sg32
I10
sg33
I-1
sg34
I512
sg35
F0.8
sg36
F0.15
sg37
I1024
sg38
F0.125
sg39
g22
(g26
S'433333\xb3?'
p259
tp260
Rp261
sg43
F0.25
sg44
I2
sg45
F0.4
sg46
F0.1
sg47
F0.8
sg48
I6
sg49
I12
sg50
g22
(g26
S'\xb8\x1e\x85\xebQ\xb8\x8e\xbf'
p262
tp263
Rp264
sg54
I1
sg55
I1
sg56
g57
sg58
I10
sg59
F0.1225
sg60
I1
sg61
I10
sg62
g22
(g26
S'\x00\x00\x00\x00\x00\x00\x00\x00'
p265
tp266
Rp267
sg66
I1
sg67
F0.2
sg68
g69
sg72
I15
sa(dp268
g4
I20
sg5
F0.3
sg6
F0.2
sg7
F0.05
sg8
F0.4
sg9
I8
sg10
I8
sg11
F0.99
sg12
F0.4
sg13
I64
sg14
F0.15
sg15
I0
sg16
I2
sg17
F1.2
sg18
F0.125
sg19
F0.9
sg20
I1
sg21
g22
(g26
S'\x00\x00\x00\x00\x00\x00\x18@'
p269
tp270
Rp271
sg32
I10
sg33
I-1
sg34
I512
sg35
F0.8
sg36
F0.15
sg37
I1024
sg38
F0.125
sg39
g22
(g26
S'\xb8\x1e\x85\xebQ\xb8\x8e\xbf'
p272
tp273
Rp274
sg43
F0.25
sg44
I2
sg45
F0.4
sg46
F0.1
sg47
F0.8
sg48
I6
sg49
I12
sg50
g22
(g26
S'\xb8\x1e\x85\xebQ\xb8\x8e?'
p275
tp276
Rp277
sg54
I1
sg55
I1
sg56
g57
sg58
I10
sg59
F0.1225
sg60
I1
sg61
I10
sg62
g22
(g26
S'\x00\x00\x00\x00\x00\x00\x00\x00'
p278
tp279
Rp280
sg66
I1
sg67
F0.2
sg68
g69
sg72
I15
sa(dp281
g4
I20
sg5
F0.3
sg6
F0.2
sg7
F0.05
sg8
F0.4
sg9
I8
sg10
I8
sg11
F0.99
sg12
F0.4
sg13
I64
sg14
F0.15
sg15
I0
sg16
I2
sg17
F1.2
sg18
F0.125
sg19
F0.9
sg20
I1
sg21
g22
(g26
S'\x00\x00\x00\x00\x00\x00\x1c@'
p282
tp283
Rp284
sg32
I10
sg33
I-1
sg34
I512
sg35
F0.8
sg36
F0.15
sg37
I1024
sg38
F0.125
sg39
g22
(g26
S'H\xe1z\x14\xaeG\xc1?'
p285
tp286
Rp287
sg43
F0.25
sg44
I2
sg45
F0.4
sg46
F0.1
sg47
F0.8
sg48
I6
sg49
I12
sg50
g22
(g26
S'H\xe1z\x14\xaeG\xc1?'
p288
tp289
Rp290
sg54
I1
sg55
I1
sg56
g57
sg58
I10
sg59
F0.1225
sg60
I1
sg61
I10
sg62
g22
(g26
S'\x00\x00\x00\x00\x00\x00\x00\x00'
p291
tp292
Rp293
sg66
I1
sg67
F0.2
sg68
g69
sg72
I15
sa(dp294
g4
I20
sg5
F0.3
sg6
F0.2
sg7
F0.05
sg8
F0.4
sg9
I8
sg10
I8
sg11
F0.99
sg12
F0.4
sg13
I64
sg14
F0.15
sg15
I0
sg16
I2
sg17
F1.2
sg18
F0.125
sg19
F0.9
sg20
I1
sg21
g22
(g26
S'\x00\x00\x00\x00\x00\x00 @'
p295
tp296
Rp297
sg32
I10
sg33
I-1
sg34
I512
sg35
F0.8
sg36
F0.15
sg37
I1024
sg38
F0.125
sg39
g22
(g26
S'H\xe1z\x14\xaeG\xc1\xbf'
p298
tp299
Rp300
sg43
F0.25
sg44
I2
sg45
F0.4
sg46
F0.1
sg47
F0.8
sg48
I6
sg49
I12
sg50
g22
(g26
S'\xe2z\x14\xaeG\xe1\xba\xbf'
p301
tp302
Rp303
sg54
I1
sg55
I1
sg56
g57
sg58
I10
sg59
F0.1225
sg60
I1
sg61
I10
sg62
g22
(g26
S'\x00\x00\x00\x00\x00\x00\x00\x00'
p304
tp305
Rp306
sg66
I1
sg67
F0.2
sg68
g69
sg72
I15
sa(dp307
g4
I20
sg5
F0.3
sg6
F0.2
sg7
F0.05
sg8
F0.4
sg9
I8
sg10
I8
sg11
F0.99
sg12
F0.4
sg13
I64
sg14
F0.15
sg15
I0
sg16
I2
sg17
F1.2
sg18
F0.125
sg19
F0.9
sg20
I1
sg21
g22
(g26
S'\x00\x00\x00\x00\x00\x00"@'
p308
tp309
Rp310
sg32
I10
sg33
I-1
sg34
I512
sg35
F0.8
sg36
F0.15
sg37
I1024
sg38
F0.125
sg39
g22
(g26
S'H\xe1z\x14\xaeG\xc1\xbf'
p311
tp312
Rp313
sg43
F0.25
sg44
I2
sg45
F0.4
sg46
F0.1
sg47
F0.8
sg48
I6
sg49
I12
sg50
g22
(g26
S'\xb9\x1e\x85\xebQ\xb8\xbe\xbf'
p314
tp315
Rp316
sg54
I1
sg55
I1
sg56
g57
sg58
I10
sg59
F0.1225
sg60
I1
sg61
I10
sg62
g22
(g26
S'\x00\x00\x00\x00\x00\x00\x00\x00'
p317
tp318
Rp319
sg66
I1
sg67
F0.2
sg68
g69
sg72
I15
sa(dp320
g4
I20
sg5
F0.3
sg6
F0.2
sg7
F0.05
sg8
F0.4
sg9
I8
sg10
I8
sg11
F0.99
sg12
F0.4
sg13
I64
sg14
F0.15
sg15
I0
sg16
I2
sg17
F1.2
sg18
F0.125
sg19
F0.9
sg20
I1
sg21
g22
(g26
S'\x00\x00\x00\x00\x00\x00$@'
p321
tp322
Rp323
sg32
I10
sg33
I-1
sg34
I512
sg35
F0.8
sg36
F0.15
sg37
I1024
sg38
F0.125
sg39
g22
(g26
S'\xe2z\x14\xaeG\xe1\xba\xbf'
p324
tp325
Rp326
sg43
F0.25
sg44
I2
sg45
F0.4
sg46
F0.1
sg47
F0.8
sg48
I6
sg49
I12
sg50
g22
(g26
S'433333\xb3\xbf'
p327
tp328
Rp329
sg54
I1
sg55
I1
sg56
g57
sg58
I10
sg59
F0.1225
sg60
I1
sg61
I10
sg62
g22
(g26
S'\x00\x00\x00\x00\x00\x00\x00\x00'
p330
tp331
Rp332
sg66
I1
sg67
F0.2
sg68
g69
sg72
I15
sa(dp333
g4
I20
sg5
F0.3
sg6
F0.2
sg7
F0.05
sg8
F0.4
sg9
I8
sg10
I8
sg11
F0.99
sg12
F0.4
sg13
I64
sg14
F0.15
sg15
I0
sg16
I2
sg17
F1.2
sg18
F0.125
sg19
F0.9
sg20
I1
sg21
g22
(g26
S'\x00\x00\x00\x00\x00\x00&@'
p334
tp335
Rp336
sg32
I10
sg33
I-1
sg34
I512
sg35
F0.8
sg36
F0.15
sg37
I1024
sg38
F0.125
sg39
g22
(g26
S'\xb8\x1e\x85\xebQ\xb8\x9e?'
p337
tp338
Rp339
sg43
F0.25
sg44
I2
sg45
F0.4
sg46
F0.1
sg47
F0.8
sg48
I6
sg49
I12
sg50
g22
(g26
S'\xb8\x1e\x85\xebQ\xb8\x8e?'
p340
tp341
Rp342
sg54
I1
sg55
I1
sg56
g57
sg58
I10
sg59
F0.1225
sg60
I1
sg61
I10
sg62
g22
(g26
S'\x00\x00\x00\x00\x00\x00\x00\x00'
p343
tp344
Rp345
sg66
I1
sg67
F0.2
sg68
g69
sg72
I15
sa(dp346
g4
I20
sg5
F0.3
sg6
F0.2
sg7
F0.05
sg8
F0.4
sg9
I8
sg10
I8
sg11
F0.99
sg12
F0.4
sg13
I64
sg14
F0.15
sg15
I0
sg16
I2
sg17
F1.2
sg18
F0.125
sg19
F0.9
sg20
I1
sg21
g22
(g26
S'\x00\x00\x00\x00\x00\x00(@'
p347
tp348
Rp349
sg32
I10
sg33
I-1
sg34
I512
sg35
F0.8
sg36
F0.15
sg37
I1024
sg38
F0.125
sg39
g22
(g26
S'333333\xc3\xbf'
p350
tp351
Rp352
sg43
F0.25
sg44
I2
sg45
F0.4
sg46
F0.1
sg47
F0.8
sg48
I6
sg49
I12
sg50
g22
(g26
S'433333\xb3?'
p353
tp354
Rp355
sg54
I1
sg55
I1
sg56
g57
sg58
I10
sg59
F0.1225
sg60
I1
sg61
I10
sg62
g22
(g26
S'\x00\x00\x00\x00\x00\x00\x00\x00'
p356
tp357
Rp358
sg66
I1
sg67
F0.2
sg68
g69
sg72
I15
sa(dp359
g4
I20
sg5
F0.3
sg6
F0.2
sg7
F0.05
sg8
F0.4
sg9
I8
sg10
I8
sg11
F0.99
sg12
F0.4
sg13
I64
sg14
F0.15
sg15
I0
sg16
I2
sg17
F1.2
sg18
F0.125
sg19
F0.9
sg20
I1
sg21
g22
(g26
S'\x00\x00\x00\x00\x00\x00*@'
p360
tp361
Rp362
sg32
I10
sg33
I-1
sg34
I512
sg35
F0.8
sg36
F0.15
sg37
I1024
sg38
F0.125
sg39
g22
(g26
S'\xb8\x1e\x85\xebQ\xb8\x9e?'
p363
tp364
Rp365
sg43
F0.25
sg44
I2
sg45
F0.4
sg46
F0.1
sg47
F0.8
sg48
I6
sg49
I12
sg50
g22
(g26
S'\xe2z\x14\xaeG\xe1\xba?'
p366
tp367
Rp368
sg54
I1
sg55
I1
sg56
g57
sg58
I10
sg59
F0.1225
sg60
I1
sg61
I10
sg62
g22
(g26
S'\x00\x00\x00\x00\x00\x00\x00\x00'
p369
tp370
Rp371
sg66
I1
sg67
F0.2
sg68
g69
sg72
I15
sa(dp372
g4
I20
sg5
F0.3
sg6
F0.2
sg7
F0.05
sg8
F0.4
sg9
I8
sg10
I8
sg11
F0.99
sg12
F0.4
sg13
I64
sg14
F0.15
sg15
I0
sg16
I2
sg17
F1.2
sg18
F0.125
sg19
F0.9
sg20
I1
sg21
g22
(g26
S'\x00\x00\x00\x00\x00\x00,@'
p373
tp374
Rp375
sg32
I10
sg33
I-1
sg34
I512
sg35
F0.8
sg36
F0.15
sg37
I1024
sg38
F0.125
sg39
g22
(g26
S'\xb8\x1e\x85\xebQ\xb8\x9e\xbf'
p376
tp377
Rp378
sg43
F0.25
sg44
I2
sg45
F0.4
sg46
F0.1
sg47
F0.8
sg48
I6
sg49
I12
sg50
g22
(g26
S'\xe2z\x14\xaeG\xe1\xba\xbf'
p379
tp380
Rp381
sg54
I1
sg55
I1
sg56
g57
sg58
I10
sg59
F0.1225
sg60
I1
sg61
I10
sg62
g22
(g26
S'\x00\x00\x00\x00\x00\x00\x00\x00'
p382
tp383
Rp384
sg66
I1
sg67
F0.2
sg68
g69
sg72
I15
sa(dp385
g4
I20
sg5
F0.3
sg6
F0.2
sg7
F0.05
sg8
F0.4
sg9
I8
sg10
I8
sg11
F0.99
sg12
F0.4
sg13
I64
sg14
F0.15
sg15
I0
sg16
I2
sg17
F1.2
sg18
F0.125
sg19
F0.9
sg20
I1
sg21
g22
(g26
S'\x00\x00\x00\x00\x00\x00.@'
p386
tp387
Rp388
sg32
I10
sg33
I-1
sg34
I512
sg35
F0.8
sg36
F0.15
sg37
I1024
sg38
F0.125
sg39
g22
(g26
S'\xe2z\x14\xaeG\xe1\xba?'
p389
tp390
Rp391
sg43
F0.25
sg44
I2
sg45
F0.4
sg46
F0.1
sg47
F0.8
sg48
I6
sg49
I12
sg50
g22
(g26
S'\xb8\x1e\x85\xebQ\xb8\x8e\xbf'
p392
tp393
Rp394
sg54
I1
sg55
I1
sg56
g57
sg58
I10
sg59
F0.1225
sg60
I1
sg61
I10
sg62
g22
(g26
S'\x00\x00\x00\x00\x00\x00\x00\x00'
p395
tp396
Rp397
sg66
I1
sg67
F0.2
sg68
g69
sg72
I15
sa(dp398
g4
I20
sg5
F0.3
sg6
F0.2
sg7
F0.05
sg8
F0.4
sg9
I8
sg10
I8
sg11
F0.99
sg12
F0.4
sg13
I64
sg14
F0.15
sg15
I0
sg16
I2
sg17
F1.2
sg18
F0.125
sg19
F0.9
sg20
I1
sg21
g22
(g26
S'\x00\x00\x00\x00\x00\x000@'
p399
tp400
Rp401
sg32
I10
sg33
I-1
sg34
I512
sg35
F0.8
sg36
F0.15
sg37
I1024
sg38
F0.125
sg39
g22
(g26
S'\n\xd7\xa3p=\n\xa7?'
p402
tp403
Rp404
sg43
F0.25
sg44
I2
sg45
F0.4
sg46
F0.1
sg47
F0.8
sg48
I6
sg49
I12
sg50
g22
(g26
S'H\xe1z\x14\xaeG\xc1?'
p405
tp406
Rp407
sg54
I1
sg55
I1
sg56
g57
sg58
I10
sg59
F0.1225
sg60
I1
sg61
I10
sg62
g22
(g26
S'\x00\x00\x00\x00\x00\x00\x00\x00'
p408
tp409
Rp410
sg66
I1
sg67
F0.2
sg68
g69
sg72
I15
sa(dp411
g4
I20
sg5
F0.3
sg6
F0.2
sg7
F0.05
sg8
F0.4
sg9
I8
sg10
I8
sg11
F0.99
sg12
F0.4
sg13
I64
sg14
F0.15
sg15
I0
sg16
I2
sg17
F1.2
sg18
F0.125
sg19
F0.9
sg20
I1
sg21
g22
(g26
S'\x00\x00\x00\x00\x00\x001@'
p412
tp413
Rp414
sg32
I10
sg33
I-1
sg34
I512
sg35
F0.8
sg36
F0.15
sg37
I1024
sg38
F0.125
sg39
g22
(g26
S'\xb8\x1e\x85\xebQ\xb8\x9e?'
p415
tp416
Rp417
sg43
F0.25
sg44
I2
sg45
F0.4
sg46
F0.1
sg47
F0.8
sg48
I6
sg49
I12
sg50
g22
(g26
S'\xb8\x1e\x85\xebQ\xb8\x9e?'
p418
tp419
Rp420
sg54
I1
sg55
I1
sg56
g57
sg58
I10
sg59
F0.1225
sg60
I1
sg61
I10
sg62
g22
(g26
S'\x00\x00\x00\x00\x00\x00\x00\x00'
p421
tp422
Rp423
sg66
I1
sg67
F0.2
sg68
g69
sg72
I15
sa(dp424
g4
I20
sg5
F0.3
sg6
F0.2
sg7
F0.05
sg8
F0.4
sg9
I8
sg10
I8
sg11
F0.99
sg12
F0.4
sg13
I64
sg14
F0.15
sg15
I0
sg16
I2
sg17
F1.2
sg18
F0.125
sg19
F0.9
sg20
I1
sg21
g22
(g26
S'\x00\x00\x00\x00\x00\x002@'
p425
tp426
Rp427
sg32
I10
sg33
I-1
sg34
I512
sg35
F0.8
sg36
F0.15
sg37
I1024
sg38
F0.125
sg39
g22
(g26
S'333333\xc3?'
p428
tp429
Rp430
sg43
F0.25
sg44
I2
sg45
F0.4
sg46
F0.1
sg47
F0.8
sg48
I6
sg49
I12
sg50
g22
(g26
S'\xb9\x1e\x85\xebQ\xb8\xae?'
p431
tp432
Rp433
sg54
I1
sg55
I1
sg56
g57
sg58
I10
sg59
F0.1225
sg60
I1
sg61
I10
sg62
g22
(g26
S'\x00\x00\x00\x00\x00\x00\x00\x00'
p434
tp435
Rp436
sg66
I1
sg67
F0.2
sg68
g69
sg72
I15
sa(dp437
g4
I20
sg5
F0.3
sg6
F0.2
sg7
F0.05
sg8
F0.4
sg9
I8
sg10
I8
sg11
F0.99
sg12
F0.4
sg13
I64
sg14
F0.15
sg15
I0
sg16
I2
sg17
F1.2
sg18
F0.125
sg19
F0.9
sg20
I1
sg21
g22
(g26
S'\x00\x00\x00\x00\x00\x003@'
p438
tp439
Rp440
sg32
I10
sg33
I-1
sg34
I512
sg35
F0.8
sg36
F0.15
sg37
I1024
sg38
F0.125
sg39
g22
(g26
S'\xb8\x1e\x85\xebQ\xb8\x9e\xbf'
p441
tp442
Rp443
sg43
F0.25
sg44
I2
sg45
F0.4
sg46
F0.1
sg47
F0.8
sg48
I6
sg49
I12
sg50
g22
(g26
S'333333\xc3\xbf'
p444
tp445
Rp446
sg54
I1
sg55
I1
sg56
g57
sg58
I10
sg59
F0.1225
sg60
I1
sg61
I10
sg62
g22
(g26
S'\x00\x00\x00\x00\x00\x00\x00\x00'
p447
tp448
Rp449
sg66
I1
sg67
F0.2
sg68
g69
sg72
I15
sa(dp450
g4
I20
sg5
F0.3
sg6
F0.2
sg7
F0.05
sg8
F0.4
sg9
I8
sg10
I8
sg11
F0.99
sg12
F0.4
sg13
I64
sg14
F0.15
sg15
I0
sg16
I2
sg17
F1.2
sg18
F0.125
sg19
F0.9
sg20
I1
sg21
g22
(g26
S'\x00\x00\x00\x00\x00\x00\x00\x00'
p451
tp452
Rp453
sg32
I10
sg33
I-1
sg34
I512
sg35
F0.8
sg36
F0.15
sg37
I1024
sg38
F0.125
sg39
g22
(g26
S'\x0b\xd7\xa3p=\n\xb7?'
p454
tp455
Rp456
sg43
F0.25
sg44
I2
sg45
F0.4
sg46
F0.1
sg47
F0.8
sg48
I6
sg49
I12
sg50
g22
(g26
S'\x0b\xd7\xa3p=\n\xb7?'
p457
tp458
Rp459
sg54
I1
sg55
I1
sg56
g57
sg58
I10
sg59
F0.1225
sg60
I1
sg61
I10
sg62
g22
(g26
S'\x00\x00\x00\x00\x00 l@'
p460
tp461
Rp462
sg66
I1
sg67
F0.2
sg68
g69
sg72
I15
sa(dp463
g4
I20
sg5
F0.3
sg6
F0.2
sg7
F0.05
sg8
F0.4
sg9
I8
sg10
I8
sg11
F0.99
sg12
F0.4
sg13
I64
sg14
F0.15
sg15
I0
sg16
I2
sg17
F1.2
sg18
F0.125
sg19
F0.9
sg20
I1
sg21
g22
(g26
S'\x00\x00\x00\x00\x00\x00\xf0?'
p464
tp465
Rp466
sg32
I10
sg33
I-1
sg34
I512
sg35
F0.8
sg36
F0.15
sg37
I1024
sg38
F0.125
sg39
g22
(g26
S'\xe2z\x14\xaeG\xe1\xba?'
p467
tp468
Rp469
sg43
F0.25
sg44
I2
sg45
F0.4
sg46
F0.1
sg47
F0.8
sg48
I6
sg49
I12
sg50
g22
(g26
S'\xb9\x1e\x85\xebQ\xb8\xae\xbf'
p470
tp471
Rp472
sg54
I1
sg55
I1
sg56
g57
sg58
I10
sg59
F0.1225
sg60
I1
sg61
I10
sg62
g22
(g26
S'\x00\x00\x00\x00\x00 l@'
p473
tp474
Rp475
sg66
I1
sg67
F0.2
sg68
g69
sg72
I15
sa(dp476
g4
I20
sg5
F0.3
sg6
F0.2
sg7
F0.05
sg8
F0.4
sg9
I8
sg10
I8
sg11
F0.99
sg12
F0.4
sg13
I64
sg14
F0.15
sg15
I0
sg16
I2
sg17
F1.2
sg18
F0.125
sg19
F0.9
sg20
I1
sg21
g22
(g26
S'\x00\x00\x00\x00\x00\x00\x00@'
p477
tp478
Rp479
sg32
I10
sg33
I-1
sg34
I512
sg35
F0.8
sg36
F0.15
sg37
I1024
sg38
F0.125
sg39
g22
(g26
S'\xb8\x1e\x85\xebQ\xb8\x8e\xbf'
p480
tp481
Rp482
sg43
F0.25
sg44
I2
sg45
F0.4
sg46
F0.1
sg47
F0.8
sg48
I6
sg49
I12
sg50
g22
(g26
S'\xe2z\x14\xaeG\xe1\xba\xbf'
p483
tp484
Rp485
sg54
I1
sg55
I1
sg56
g57
sg58
I10
sg59
F0.1225
sg60
I1
sg61
I10
sg62
g22
(g26
S'\x00\x00\x00\x00\x00 l@'
p486
tp487
Rp488
sg66
I1
sg67
F0.2
sg68
g69
sg72
I15
sa(dp489
g4
I20
sg5
F0.3
sg6
F0.2
sg7
F0.05
sg8
F0.4
sg9
I8
sg10
I8
sg11
F0.99
sg12
F0.4
sg13
I64
sg14
F0.15
sg15
I0
sg16
I2
sg17
F1.2
sg18
F0.125
sg19
F0.9
sg20
I1
sg21
g22
(g26
S'\x00\x00\x00\x00\x00\x00\x08@'
p490
tp491
Rp492
sg32
I10
sg33
I-1
sg34
I512
sg35
F0.8
sg36
F0.15
sg37
I1024
sg38
F0.125
sg39
g22
(g26
S'\xb8\x1e\x85\xebQ\xb8\x8e?'
p493
tp494
Rp495
sg43
F0.25
sg44
I2
sg45
F0.4
sg46
F0.1
sg47
F0.8
sg48
I6
sg49
I12
sg50
g22
(g26
S'\xb8\x1e\x85\xebQ\xb8\x9e?'
p496
tp497
Rp498
sg54
I1
sg55
I1
sg56
g57
sg58
I10
sg59
F0.1225
sg60
I1
sg61
I10
sg62
g22
(g26
S'\x00\x00\x00\x00\x00 l@'
p499
tp500
Rp501
sg66
I1
sg67
F0.2
sg68
g69
sg72
I15
sa(dp502
g4
I20
sg5
F0.3
sg6
F0.2
sg7
F0.05
sg8
F0.4
sg9
I8
sg10
I8
sg11
F0.99
sg12
F0.4
sg13
I64
sg14
F0.15
sg15
I0
sg16
I2
sg17
F1.2
sg18
F0.125
sg19
F0.9
sg20
I1
sg21
g22
(g26
S'\x00\x00\x00\x00\x00\x00\x10@'
p503
tp504
Rp505
sg32
I10
sg33
I-1
sg34
I512
sg35
F0.8
sg36
F0.15
sg37
I1024
sg38
F0.125
sg39
g22
(g26
S'333333\xc3?'
p506
tp507
Rp508
sg43
F0.25
sg44
I2
sg45
F0.4
sg46
F0.1
sg47
F0.8
sg48
I6
sg49
I12
sg50
g22
(g26
S'\xb9\x1e\x85\xebQ\xb8\xbe\xbf'
p509
tp510
Rp511
sg54
I1
sg55
I1
sg56
g57
sg58
I10
sg59
F0.1225
sg60
I1
sg61
I10
sg62
g22
(g26
S'\x00\x00\x00\x00\x00 l@'
p512
tp513
Rp514
sg66
I1
sg67
F0.2
sg68
g69
sg72
I15
sa(dp515
g4
I20
sg5
F0.3
sg6
F0.2
sg7
F0.05
sg8
F0.4
sg9
I8
sg10
I8
sg11
F0.99
sg12
F0.4
sg13
I64
sg14
F0.15
sg15
I0
sg16
I2
sg17
F1.2
sg18
F0.125
sg19
F0.9
sg20
I1
sg21
g22
(g26
S'\x00\x00\x00\x00\x00\x00\x14@'
p516
tp517
Rp518
sg32
I10
sg33
I-1
sg34
I512
sg35
F0.8
sg36
F0.15
sg37
I1024
sg38
F0.125
sg39
g22
(g26
S'\xb9\x1e\x85\xebQ\xb8\xae?'
p519
tp520
Rp521
sg43
F0.25
sg44
I2
sg45
F0.4
sg46
F0.1
sg47
F0.8
sg48
I6
sg49
I12
sg50
g22
(g26
S'\xb8\x1e\x85\xebQ\xb8\x8e\xbf'
p522
tp523
Rp524
sg54
I1
sg55
I1
sg56
g57
sg58
I10
sg59
F0.1225
sg60
I1
sg61
I10
sg62
g22
(g26
S'\x00\x00\x00\x00\x00 l@'
p525
tp526
Rp527
sg66
I1
sg67
F0.2
sg68
g69
sg72
I15
sa(dp528
g4
I20
sg5
F0.3
sg6
F0.2
sg7
F0.05
sg8
F0.4
sg9
I8
sg10
I8
sg11
F0.99
sg12
F0.4
sg13
I64
sg14
F0.15
sg15
I0
sg16
I2
sg17
F1.2
sg18
F0.125
sg19
F0.9
sg20
I1
sg21
g22
(g26
S'\x00\x00\x00\x00\x00\x00\x18@'
p529
tp530
Rp531
sg32
I10
sg33
I-1
sg34
I512
sg35
F0.8
sg36
F0.15
sg37
I1024
sg38
F0.125
sg39
g22
(g26
S'\xb8\x1e\x85\xebQ\xb8\x8e\xbf'
p532
tp533
Rp534
sg43
F0.25
sg44
I2
sg45
F0.4
sg46
F0.1
sg47
F0.8
sg48
I6
sg49
I12
sg50
g22
(g26
S'\xb9\x1e\x85\xebQ\xb8\xbe\xbf'
p535
tp536
Rp537
sg54
I1
sg55
I1
sg56
g57
sg58
I10
sg59
F0.1225
sg60
I1
sg61
I10
sg62
g22
(g26
S'\x00\x00\x00\x00\x00 l@'
p538
tp539
Rp540
sg66
I1
sg67
F0.2
sg68
g69
sg72
I15
sa(dp541
g4
I20
sg5
F0.3
sg6
F0.2
sg7
F0.05
sg8
F0.4
sg9
I8
sg10
I8
sg11
F0.99
sg12
F0.4
sg13
I64
sg14
F0.15
sg15
I0
sg16
I2
sg17
F1.2
sg18
F0.125
sg19
F0.9
sg20
I1
sg21
g22
(g26
S'\x00\x00\x00\x00\x00\x00\x1c@'
p542
tp543
Rp544
sg32
I10
sg33
I-1
sg34
I512
sg35
F0.8
sg36
F0.15
sg37
I1024
sg38
F0.125
sg39
g22
(g26
S'H\xe1z\x14\xaeG\xc1\xbf'
p545
tp546
Rp547
sg43
F0.25
sg44
I2
sg45
F0.4
sg46
F0.1
sg47
F0.8
sg48
I6
sg49
I12
sg50
g22
(g26
S'\x0b\xd7\xa3p=\n\xb7\xbf'
p548
tp549
Rp550
sg54
I1
sg55
I1
sg56
g57
sg58
I10
sg59
F0.1225
sg60
I1
sg61
I10
sg62
g22
(g26
S'\x00\x00\x00\x00\x00 l@'
p551
tp552
Rp553
sg66
I1
sg67
F0.2
sg68
g69
sg72
I15
sa(dp554
g4
I20
sg5
F0.3
sg6
F0.2
sg7
F0.05
sg8
F0.4
sg9
I8
sg10
I8
sg11
F0.99
sg12
F0.4
sg13
I64
sg14
F0.15
sg15
I0
sg16
I2
sg17
F1.2
sg18
F0.125
sg19
F0.9
sg20
I1
sg21
g22
(g26
S'\x00\x00\x00\x00\x00\x00 @'
p555
tp556
Rp557
sg32
I10
sg33
I-1
sg34
I512
sg35
F0.8
sg36
F0.15
sg37
I1024
sg38
F0.125
sg39
g22
(g26
S'\xb8\x1e\x85\xebQ\xb8\x9e\xbf'
p558
tp559
Rp560
sg43
F0.25
sg44
I2
sg45
F0.4
sg46
F0.1
sg47
F0.8
sg48
I6
sg49
I12
sg50
g22
(g26
S'\xb8\x1e\x85\xebQ\xb8\x9e\xbf'
p561
tp562
Rp563
sg54
I1
sg55
I1
sg56
g57
sg58
I10
sg59
F0.1225
sg60
I1
sg61
I10
sg62
g22
(g26
S'\x00\x00\x00\x00\x00 l@'
p564
tp565
Rp566
sg66
I1
sg67
F0.2
sg68
g69
sg72
I15
sa(dp567
g4
I20
sg5
F0.3
sg6
F0.2
sg7
F0.05
sg8
F0.4
sg9
I8
sg10
I8
sg11
F0.99
sg12
F0.4
sg13
I64
sg14
F0.15
sg15
I0
sg16
I2
sg17
F1.2
sg18
F0.125
sg19
F0.9
sg20
I1
sg21
g22
(g26
S'\x00\x00\x00\x00\x00\x00"@'
p568
tp569
Rp570
sg32
I10
sg33
I-1
sg34
I512
sg35
F0.8
sg36
F0.15
sg37
I1024
sg38
F0.125
sg39
g22
(g26
S'\xe2z\x14\xaeG\xe1\xba\xbf'
p571
tp572
Rp573
sg43
F0.25
sg44
I2
sg45
F0.4
sg46
F0.1
sg47
F0.8
sg48
I6
sg49
I12
sg50
g22
(g26
S'\xb9\x1e\x85\xebQ\xb8\xbe\xbf'
p574
tp575
Rp576
sg54
I1
sg55
I1
sg56
g57
sg58
I10
sg59
F0.1225
sg60
I1
sg61
I10
sg62
g22
(g26
S'\x00\x00\x00\x00\x00 l@'
p577
tp578
Rp579
sg66
I1
sg67
F0.2
sg68
g69
sg72
I15
sa(dp580
g4
I20
sg5
F0.3
sg6
F0.2
sg7
F0.05
sg8
F0.4
sg9
I8
sg10
I8
sg11
F0.99
sg12
F0.4
sg13
I64
sg14
F0.15
sg15
I0
sg16
I2
sg17
F1.2
sg18
F0.125
sg19
F0.9
sg20
I1
sg21
g22
(g26
S'\x00\x00\x00\x00\x00\x00$@'
p581
tp582
Rp583
sg32
I10
sg33
I-1
sg34
I512
sg35
F0.8
sg36
F0.15
sg37
I1024
sg38
F0.125
sg39
g22
(g26
S'\xb9\x1e\x85\xebQ\xb8\xae\xbf'
p584
tp585
Rp586
sg43
F0.25
sg44
I2
sg45
F0.4
sg46
F0.1
sg47
F0.8
sg48
I6
sg49
I12
sg50
g22
(g26
S'\xe2z\x14\xaeG\xe1\xba\xbf'
p587
tp588
Rp589
sg54
I1
sg55
I1
sg56
g57
sg58
I10
sg59
F0.1225
sg60
I1
sg61
I10
sg62
g22
(g26
S'\x00\x00\x00\x00\x00 l@'
p590
tp591
Rp592
sg66
I1
sg67
F0.2
sg68
g69
sg72
I15
sa(dp593
g4
I20
sg5
F0.3
sg6
F0.2
sg7
F0.05
sg8
F0.4
sg9
I8
sg10
I8
sg11
F0.99
sg12
F0.4
sg13
I64
sg14
F0.15
sg15
I0
sg16
I2
sg17
F1.2
sg18
F0.125
sg19
F0.9
sg20
I1
sg21
g22
(g26
S'\x00\x00\x00\x00\x00\x00&@'
p594
tp595
Rp596
sg32
I10
sg33
I-1
sg34
I512
sg35
F0.8
sg36
F0.15
sg37
I1024
sg38
F0.125
sg39
g22
(g26
S'333333\xc3\xbf'
p597
tp598
Rp599
sg43
F0.25
sg44
I2
sg45
F0.4
sg46
F0.1
sg47
F0.8
sg48
I6
sg49
I12
sg50
g22
(g26
S'H\xe1z\x14\xaeG\xc1\xbf'
p600
tp601
Rp602
sg54
I1
sg55
I1
sg56
g57
sg58
I10
sg59
F0.1225
sg60
I1
sg61
I10
sg62
g22
(g26
S'\x00\x00\x00\x00\x00 l@'
p603
tp604
Rp605
sg66
I1
sg67
F0.2
sg68
g69
sg72
I15
sa(dp606
g4
I20
sg5
F0.3
sg6
F0.2
sg7
F0.05
sg8
F0.4
sg9
I8
sg10
I8
sg11
F0.99
sg12
F0.4
sg13
I64
sg14
F0.15
sg15
I0
sg16
I2
sg17
F1.2
sg18
F0.125
sg19
F0.9
sg20
I1
sg21
g22
(g26
S'\x00\x00\x00\x00\x00\x00(@'
p607
tp608
Rp609
sg32
I10
sg33
I-1
sg34
I512
sg35
F0.8
sg36
F0.15
sg37
I1024
sg38
F0.125
sg39
g22
(g26
S'\n\xd7\xa3p=\n\xa7\xbf'
p610
tp611
Rp612
sg43
F0.25
sg44
I2
sg45
F0.4
sg46
F0.1
sg47
F0.8
sg48
I6
sg49
I12
sg50
g22
(g26
S'433333\xb3?'
p613
tp614
Rp615
sg54
I1
sg55
I1
sg56
g57
sg58
I10
sg59
F0.1225
sg60
I1
sg61
I10
sg62
g22
(g26
S'\x00\x00\x00\x00\x00 l@'
p616
tp617
Rp618
sg66
I1
sg67
F0.2
sg68
g69
sg72
I15
sa(dp619
g4
I20
sg5
F0.3
sg6
F0.2
sg7
F0.05
sg8
F0.4
sg9
I8
sg10
I8
sg11
F0.99
sg12
F0.4
sg13
I64
sg14
F0.15
sg15
I0
sg16
I2
sg17
F1.2
sg18
F0.125
sg19
F0.9
sg20
I1
sg21
g22
(g26
S'\x00\x00\x00\x00\x00\x00*@'
p620
tp621
Rp622
sg32
I10
sg33
I-1
sg34
I512
sg35
F0.8
sg36
F0.15
sg37
I1024
sg38
F0.125
sg39
g22
(g26
S'\xb9\x1e\x85\xebQ\xb8\xbe?'
p623
tp624
Rp625
sg43
F0.25
sg44
I2
sg45
F0.4
sg46
F0.1
sg47
F0.8
sg48
I6
sg49
I12
sg50
g22
(g26
S'\n\xd7\xa3p=\n\xa7?'
p626
tp627
Rp628
sg54
I1
sg55
I1
sg56
g57
sg58
I10
sg59
F0.1225
sg60
I1
sg61
I10
sg62
g22
(g26
S'\x00\x00\x00\x00\x00 l@'
p629
tp630
Rp631
sg66
I1
sg67
F0.2
sg68
g69
sg72
I15
sa(dp632
g4
I20
sg5
F0.3
sg6
F0.2
sg7
F0.05
sg8
F0.4
sg9
I8
sg10
I8
sg11
F0.99
sg12
F0.4
sg13
I64
sg14
F0.15
sg15
I0
sg16
I2
sg17
F1.2
sg18
F0.125
sg19
F0.9
sg20
I1
sg21
g22
(g26
S'\x00\x00\x00\x00\x00\x00,@'
p633
tp634
Rp635
sg32
I10
sg33
I-1
sg34
I512
sg35
F0.8
sg36
F0.15
sg37
I1024
sg38
F0.125
sg39
g22
(g26
S'\xb9\x1e\x85\xebQ\xb8\xbe\xbf'
p636
tp637
Rp638
sg43
F0.25
sg44
I2
sg45
F0.4
sg46
F0.1
sg47
F0.8
sg48
I6
sg49
I12
sg50
g22
(g26
S'\xe2z\x14\xaeG\xe1\xba\xbf'
p639
tp640
Rp641
sg54
I1
sg55
I1
sg56
g57
sg58
I10
sg59
F0.1225
sg60
I1
sg61
I10
sg62
g22
(g26
S'\x00\x00\x00\x00\x00 l@'
p642
tp643
Rp644
sg66
I1
sg67
F0.2
sg68
g69
sg72
I15
sa(dp645
g4
I20
sg5
F0.3
sg6
F0.2
sg7
F0.05
sg8
F0.4
sg9
I8
sg10
I8
sg11
F0.99
sg12
F0.4
sg13
I64
sg14
F0.15
sg15
I0
sg16
I2
sg17
F1.2
sg18
F0.125
sg19
F0.9
sg20
I1
sg21
g22
(g26
S'\x00\x00\x00\x00\x00\x00.@'
p646
tp647
Rp648
sg32
I10
sg33
I-1
sg34
I512
sg35
F0.8
sg36
F0.15
sg37
I1024
sg38
F0.125
sg39
g22
(g26
S'\xb8\x1e\x85\xebQ\xb8\x8e?'
p649
tp650
Rp651
sg43
F0.25
sg44
I2
sg45
F0.4
sg46
F0.1
sg47
F0.8
sg48
I6
sg49
I12
sg50
g22
(g26
S'\n\xd7\xa3p=\n\xa7?'
p652
tp653
Rp654
sg54
I1
sg55
I1
sg56
g57
sg58
I10
sg59
F0.1225
sg60
I1
sg61
I10
sg62
g22
(g26
S'\x00\x00\x00\x00\x00 l@'
p655
tp656
Rp657
sg66
I1
sg67
F0.2
sg68
g69
sg72
I15
sa(dp658
g4
I20
sg5
F0.3
sg6
F0.2
sg7
F0.05
sg8
F0.4
sg9
I8
sg10
I8
sg11
F0.99
sg12
F0.4
sg13
I64
sg14
F0.15
sg15
I0
sg16
I2
sg17
F1.2
sg18
F0.125
sg19
F0.9
sg20
I1
sg21
g22
(g26
S'\x00\x00\x00\x00\x00\x000@'
p659
tp660
Rp661
sg32
I10
sg33
I-1
sg34
I512
sg35
F0.8
sg36
F0.15
sg37
I1024
sg38
F0.125
sg39
g22
(g26
S'433333\xb3\xbf'
p662
tp663
Rp664
sg43
F0.25
sg44
I2
sg45
F0.4
sg46
F0.1
sg47
F0.8
sg48
I6
sg49
I12
sg50
g22
(g26
S'H\xe1z\x14\xaeG\xc1\xbf'
p665
tp666
Rp667
sg54
I1
sg55
I1
sg56
g57
sg58
I10
sg59
F0.1225
sg60
I1
sg61
I10
sg62
g22
(g26
S'\x00\x00\x00\x00\x00 l@'
p668
tp669
Rp670
sg66
I1
sg67
F0.2
sg68
g69
sg72
I15
sa(dp671
g4
I20
sg5
F0.3
sg6
F0.2
sg7
F0.05
sg8
F0.4
sg9
I8
sg10
I8
sg11
F0.99
sg12
F0.4
sg13
I64
sg14
F0.15
sg15
I0
sg16
I2
sg17
F1.2
sg18
F0.125
sg19
F0.9
sg20
I1
sg21
g22
(g26
S'\x00\x00\x00\x00\x00\x001@'
p672
tp673
Rp674
sg32
I10
sg33
I-1
sg34
I512
sg35
F0.8
sg36
F0.15
sg37
I1024
sg38
F0.125
sg39
g22
(g26
S'433333\xb3?'
p675
tp676
Rp677
sg43
F0.25
sg44
I2
sg45
F0.4
sg46
F0.1
sg47
F0.8
sg48
I6
sg49
I12
sg50
g22
(g26
S'\xb9\x1e\x85\xebQ\xb8\xbe?'
p678
tp679
Rp680
sg54
I1
sg55
I1
sg56
g57
sg58
I10
sg59
F0.1225
sg60
I1
sg61
I10
sg62
g22
(g26
S'\x00\x00\x00\x00\x00 l@'
p681
tp682
Rp683
sg66
I1
sg67
F0.2
sg68
g69
sg72
I15
sa(dp684
g4
I20
sg5
F0.3
sg6
F0.2
sg7
F0.05
sg8
F0.4
sg9
I8
sg10
I8
sg11
F0.99
sg12
F0.4
sg13
I64
sg14
F0.15
sg15
I0
sg16
I2
sg17
F1.2
sg18
F0.125
sg19
F0.9
sg20
I1
sg21
g22
(g26
S'\x00\x00\x00\x00\x00\x002@'
p685
tp686
Rp687
sg32
I10
sg33
I-1
sg34
I512
sg35
F0.8
sg36
F0.15
sg37
I1024
sg38
F0.125
sg39
g22
(g26
S'\n\xd7\xa3p=\n\xa7?'
p688
tp689
Rp690
sg43
F0.25
sg44
I2
sg45
F0.4
sg46
F0.1
sg47
F0.8
sg48
I6
sg49
I12
sg50
g22
(g26
S'\xb8\x1e\x85\xebQ\xb8\x9e\xbf'
p691
tp692
Rp693
sg54
I1
sg55
I1
sg56
g57
sg58
I10
sg59
F0.1225
sg60
I1
sg61
I10
sg62
g22
(g26
S'\x00\x00\x00\x00\x00 l@'
p694
tp695
Rp696
sg66
I1
sg67
F0.2
sg68
g69
sg72
I15
sag684
asS'eventArray'
p697
(lp698
(lp699
S'trial 0 started at 6.80629706383'
p700
aS'trial 0 phase 1 started at 7.51583003998'
p701
aS'trial 0 event space at 7.51585698128'
p702
aS'trial 0 phase 2 started at 7.73041701317'
p703
aS'trial 0 phase 3 started at 7.94595098495'
p704
aa(lp705
S'trial 1 started at 8.47226715088'
p706
aS'trial 1 phase 1 started at 8.78033900261'
p707
aS'trial 1 phase 2 started at 9.04693412781'
p708
aS'trial 1 phase 3 started at 9.24698710442'
p709
aa(lp710
S'trial 2 started at 9.7748901844'
p711
aS'trial 2 phase 1 started at 10.0809891224'
p712
aS'trial 2 phase 2 started at 10.3470790386'
p713
aS'trial 2 phase 3 started at 10.5636751652'
p714
aa(lp715
S'trial 3 started at 11.0872740746'
p716
aS'trial 3 phase 1 started at 11.3971381187'
p717
aS'trial 3 phase 2 started at 11.6637611389'
p718
aS'trial 3 phase 3 started at 11.8638091087'
p719
aa(lp720
S'trial 4 started at 12.4045991898'
p721
aS'trial 4 phase 1 started at 12.7138061523'
p722
aS'trial 4 phase 2 started at 12.9640090466'
p723
aS'trial 4 phase 3 started at 13.1640701294'
p724
aa(lp725
S'trial 5 started at 13.7089281082'
p726
aS'trial 5 phase 1 started at 14.0128591061'
p727
aS'trial 5 phase 2 started at 14.2795801163'
p728
aS'trial 5 phase 3 started at 14.4795970917'
p729
aa(lp730
S'trial 6 started at 15.0060920715'
p731
aS'trial 6 phase 1 started at 15.3138930798'
p732
aS'trial 6 phase 2 started at 15.5805990696'
p733
aS'trial 6 phase 3 started at 15.7971880436'
p734
aa(lp735
S'trial 7 started at 16.3226811886'
p736
aS'trial 7 phase 1 started at 16.630587101'
p737
aS'trial 7 phase 2 started at 16.8806550503'
p738
aS'trial 7 phase 3 started at 17.0972681046'
p739
aa(lp740
S'trial 8 started at 17.6391739845'
p741
aS'trial 8 phase 1 started at 17.9473240376'
p742
aS'trial 8 phase 2 started at 18.2140190601'
p743
aS'trial 8 phase 3 started at 18.4305641651'
p744
aa(lp745
S'trial 9 started at 18.9515721798'
p746
aS'trial 9 phase 1 started at 19.263944149'
p747
aS'trial 9 phase 2 started at 19.5140202045'
p748
aS'trial 9 phase 3 started at 19.7309000492'
p749
aa(lp750
S'trial 10 started at 20.2723140717'
p751
aS'trial 10 phase 1 started at 20.5806910992'
p752
aS'trial 10 phase 2 started at 20.8307011127'
p753
aS'trial 10 phase 3 started at 21.0473611355'
p754
aa(lp755
S'trial 11 started at 21.5678770542'
p756
aS'trial 11 phase 1 started at 21.8806631565'
p757
aS'trial 11 phase 2 started at 22.1307730675'
p758
aS'trial 11 phase 3 started at 22.3473989964'
p759
aa(lp760
S'trial 12 started at 22.8767302036'
p761
aS'trial 12 phase 1 started at 23.1807661057'
p762
aS'trial 12 phase 2 started at 23.430783987'
p763
aS'trial 12 phase 3 started at 23.6308209896'
p764
aa(lp765
S'trial 13 started at 24.1696131229'
p766
aS'trial 13 phase 1 started at 24.4808731079'
p767
aS'trial 13 phase 2 started at 24.7474470139'
p768
aS'trial 13 phase 3 started at 24.9475212097'
p769
aa(lp770
S'trial 14 started at 25.4892010689'
p771
aS'trial 14 phase 1 started at 25.7974832058'
p772
aS'trial 14 phase 2 started at 26.0475771427'
p773
aS'trial 14 phase 3 started at 26.2642362118'
p774
aa(lp775
S'trial 15 started at 26.8048381805'
p776
aS'trial 15 phase 1 started at 27.1132831573'
p777
aS'trial 15 phase 2 started at 27.3799471855'
p778
aS'trial 15 phase 3 started at 27.596583128'
p779
aa(lp780
S'trial 16 started at 28.1352450848'
p781
aS'trial 16 phase 1 started at 28.4475719929'
p782
aS'trial 16 phase 2 started at 28.6976490021'
p783
aS'trial 16 phase 3 started at 28.9142701626'
p784
aa(lp785
S'trial 17 started at 29.4567911625'
p786
aS'trial 17 phase 1 started at 29.7636032104'
p787
aS'trial 17 phase 2 started at 30.0300700665'
p788
aS'trial 17 phase 3 started at 30.2467031479'
p789
aa(lp790
S'trial 18 started at 30.768884182'
p791
aS'trial 18 phase 1 started at 31.0810081959'
p792
aS'trial 18 phase 2 started at 31.3310132027'
p793
aS'trial 18 phase 3 started at 31.5476441383'
p794
aa(lp795
S'trial 19 started at 32.0887181759'
p796
aS'trial 19 phase 1 started at 32.3977019787'
p797
aS'trial 19 phase 2 started at 32.6477301121'
p798
aS'trial 19 phase 3 started at 32.8643569946'
p799
aa(lp800
S'trial 20 started at 33.4057052135'
p801
aS'trial 20 phase 1 started at 33.7138221264'
p802
aS'trial 20 phase 2 started at 33.9640610218'
p803
aS'trial 20 phase 3 started at 34.1642479897'
p804
aa(lp805
S'trial 21 started at 34.689428091'
p806
aS'trial 21 phase 1 started at 34.9995369911'
p807
aS'trial 21 phase 2 started at 35.2497591972'
p808
aS'trial 21 phase 3 started at 35.4500341415'
p809
aa(lp810
S'trial 22 started at 35.9912860394'
p811
aS'trial 22 phase 1 started at 36.2998120785'
p812
aS'trial 22 phase 2 started at 36.5499391556'
p813
aS'trial 22 phase 3 started at 36.7501490116'
p814
aa(lp815
S'trial 23 started at 37.277780056'
p816
aS'trial 23 phase 1 started at 37.5852921009'
p817
aS'trial 23 phase 2 started at 37.8354120255'
p818
aS'trial 23 phase 3 started at 38.0356810093'
p819
aa(lp820
S'trial 24 started at 38.556992054'
p821
aS'trial 24 phase 1 started at 38.8696370125'
p822
aS'trial 24 phase 2 started at 39.1198511124'
p823
aS'trial 24 phase 3 started at 39.3200080395'
p824
aa(lp825
S'trial 25 started at 39.8502531052'
p826
aS'trial 25 phase 1 started at 40.1539452076'
p827
aS'trial 25 phase 2 started at 40.4041421413'
p828
aS'trial 25 phase 3 started at 40.604321003'
p829
aa(lp830
S'trial 26 started at 41.125836134'
p831
aS'trial 26 phase 1 started at 41.4382200241'
p832
aS'trial 26 phase 2 started at 41.6883921623'
p833
aS'trial 26 phase 3 started at 41.8884851933'
p834
aa(lp835
S'trial 27 started at 42.4286952019'
p836
aS'trial 27 phase 1 started at 42.7380201817'
p837
aS'trial 27 phase 2 started at 42.9882040024'
p838
aS'trial 27 phase 3 started at 43.1882882118'
p839
aa(lp840
S'trial 28 started at 43.7140820026'
p841
aS'trial 28 phase 1 started at 44.0230891705'
p842
aS'trial 28 phase 2 started at 44.2732751369'
p843
aS'trial 28 phase 3 started at 44.4734101295'
p844
aa(lp845
S'trial 29 started at 45.0160751343'
p846
aS'trial 29 phase 1 started at 45.322947979'
p847
aS'trial 29 phase 2 started at 45.572977066'
p848
aS'trial 29 phase 3 started at 45.7731721401'
p849
aa(lp850
S'trial 30 started at 46.2958240509'
p851
aS'trial 30 phase 1 started at 46.6078209877'
p852
aS'trial 30 phase 2 started at 46.858041048'
p853
aS'trial 30 phase 3 started at 47.0580461025'
p854
aa(lp855
S'trial 31 started at 47.5864830017'
p856
aS'trial 31 phase 1 started at 47.8917770386'
p857
aS'trial 31 phase 2 started at 48.1419081688'
p858
aS'trial 31 phase 3 started at 48.3420081139'
p859
aa(lp860
S'trial 32 started at 48.8678290844'
p861
aS'trial 32 phase 1 started at 49.175768137'
p862
aS'trial 32 phase 2 started at 49.4257981777'
p863
aS'trial 32 phase 3 started at 49.6258289814'
p864
aa(lp865
S'trial 33 started at 50.1508281231'
p866
aS'trial 33 phase 1 started at 50.4595570564'
p867
aS'trial 33 phase 2 started at 50.7096040249'
p868
aS'trial 33 phase 3 started at 50.9096951485'
p869
aa(lp870
S'trial 34 started at 51.4308052063'
p871
aS'trial 34 phase 1 started at 51.7433700562'
p872
aS'trial 34 phase 2 started at 51.9934539795'
p873
aS'trial 34 phase 3 started at 52.1935219765'
p874
aa(lp875
S'trial 35 started at 52.7303421497'
p876
aS'trial 35 phase 1 started at 53.0427761078'
p877
aS'trial 35 phase 2 started at 53.2929320335'
p878
aS'trial 35 phase 3 started at 53.5096411705'
p879
aa(lp880
S'trial 36 started at 54.034291029'
p881
aS'trial 36 phase 1 started at 54.3441882133'
p882
aS'trial 36 phase 2 started at 54.5943431854'
p883
aS'trial 36 phase 3 started at 54.7944691181'
p884
aa(lp885
S'trial 37 started at 55.3154401779'
p886
aS'trial 37 phase 1 started at 55.6279840469'
p887
aS'trial 37 phase 2 started at 55.8780419827'
p888
aS'trial 37 phase 3 started at 56.0780620575'
p889
aa(lp890
S'trial 38 started at 56.6022620201'
p891
aS'trial 38 phase 1 started at 56.9116370678'
p892
aS'trial 38 phase 2 started at 57.1616740227'
p893
aS'trial 38 phase 3 started at 57.3617501259'
p894
aa(lp895
S'trial 39 started at 57.8823230267'
p896
aS'trial 39 phase 1 started at 58.1953310966'
p897
aS'trial 39 phase 2 started at 58.4453470707'
p898
aS'trial 39 phase 3 started at 58.6454820633'
p899
aa(lp900
S'trial 40 started at 59.1864960194'
p901
aS'trial 40 phase 1 started at 59.494685173'
p902
aS'trial 40 phase 2 started at 59.7447071075'
p903
aS'trial 40 phase 3 started at 59.944715023'
p904
aa(lp905
S'trial 41 started at 60.4700741768'
p906
aS'trial 41 phase 1 started at 60.7792730331'
p907
aS'trial 41 phase 2 started at 61.0459911823'
p908
aS'trial 41 phase 3 started at 61.2461020947'
p909
aa(lp910
S'trial 42 started at 61.7693660259'
p911
aS'trial 42 phase 1 started at 62.0795021057'
p912
aS'trial 42 phase 2 started at 62.3295969963'
p913
aS'trial 42 phase 3 started at 62.5296862125'
p914
aa(lp915
S'trial 43 started at 63.0714931488'
p916
aS'trial 43 phase 1 started at 63.3797831535'
p917
aS'trial 43 phase 2 started at 63.6298120022'
p918
aS'trial 43 phase 3 started at 63.8298799992'
p919
aa(lp920
S'trial 44 started at 64.3675131798'
p921
aS'trial 44 phase 1 started at 64.6799399853'
p922
aS'trial 44 phase 2 started at 64.92999506'
p923
aS'trial 44 phase 3 started at 65.1300749779'
p924
aa(lp925
S'trial 45 started at 65.6711170673'
p926
aS'trial 45 phase 1 started at 65.9792521'
p927
aS'trial 45 phase 2 started at 66.2293729782'
p928
aS'trial 45 phase 3 started at 66.4293880463'
p929
aa(lp930
S'trial 46 started at 66.9512970448'
p931
aS'trial 46 phase 1 started at 67.2637469769'
p932
aS'trial 46 phase 2 started at 67.5137500763'
p933
aS'trial 46 phase 3 started at 67.7138960361'
p934
aa(lp935
S'trial 47 started at 68.2553610802'
p936
aS'trial 47 phase 1 started at 68.5629789829'
p937
aS'trial 47 phase 2 started at 68.8130412102'
p938
aS'trial 47 phase 3 started at 69.0296900272'
p939
aa(lp940
S'trial 48 started at 69.5713341236'
p941
aS'trial 48 phase 1 started at 69.8810200691'
p942
aS'trial 48 phase 2 started at 70.1475360394'
p943
aS'trial 48 phase 3 started at 70.3475921154'
p944
a(lp945
I-99
aF1.0787770748138428
aaS'trial 48 event escape at 70.6501641273'
p946
aag940
as.