(dp0
S'parameterArray'
p1
(lp2
(dp3
Vprf_stim_barpass_duration
p4
I20
sVblobstim_fix_opacity
p5
F0.3
sVpixstim_fix_aperture_fraction
p6
F0.2
sVblobstim_fix_ecc_min
p7
F0.05
sVpost_fix_time
p8
F0.4
sVpixstim_bg_noise_n_textures
p9
I8
sVpixstim_fix_noise_n_textures
p10
I8
sVpixstim_bg_aperture_fraction
p11
F0.99
sVsize_fixation_deg
p12
F0.4
sVpixstim_fix_tex_size
p13
I64
sVfix_psychometric_curve_interval
p14
F0.15
sVin_scanner
p15
I0
sVblobstim_fix_nr_blobrows_per_ring
p16
I2
sVTR
p17
F1.2
sVblobstim_bg_opacity
p18
F0.125
sVblobstim_fix_spacing_factor
p19
F0.9
sVpixstim_fix_amplitude_exponent
p20
I1
sS'pos_in_bar_trajectory'
p21
cnumpy.core.multiarray
scalar
p22
(cnumpy
dtype
p23
(S'f8'
p24
I0
I1
tp25
Rp26
(I3
S'<'
p27
NNNI-1
I-1
I0
tp28
bS'\x00\x00\x00\x00\x00\x00\x00\x00'
p29
tp30
Rp31
sVfix_psychometric_curve_nr_steps_oneside
p32
I10
sS'answer'
p33
I0
sVprf_checker_tex_nr_pix
p34
I512
sVblobstim_bg_spacing_factor
p35
F0.8
sVbg_psychometric_curve_interval
p36
F0.15
sVpixstim_bg_tex_size
p37
I1024
sVprf_checker_bar_width
p38
F0.125
sS'bg_trial_stimulus_value'
p39
g22
(g26
S'\x0b\xd7\xa3p=\n\xb7?'
p40
tp41
Rp42
sVfix_time
p43
F0.25
sVprf_checker_cycles_in_bar
p44
I2
sVpixstim_bg_opacity
p45
F0.2
sVblobstim_bg_ecc_min
p46
F0.1
sVpixstim_fix_opacity
p47
F0.6
sVprf_checker_flicker_frequency
p48
I6
sVblobstim_bg_nr_blobrows_per_ring
p49
I12
sS'fix_trial_stimulus_value'
p50
g22
(g26
S'\xb8\x1e\x85\xebQ\xb8\x8e?'
p51
tp52
Rp53
sVpixstim_bg_amplitude_exponent
p54
I1
sVwhich_stimulus_type
p55
I1
sVprf_stim_sequence_angles
p56
(lp57
I-1
aI0
aI225
aI-1
aI90
aI135
aI-1
aI180
aI45
aI-1
aI270
aI135
aI-1
asVprf_stim_blank_duration
p58
I10
sVaperture_stim_sd
p59
F0.1225
sVblobstim_bg_nr_rings
p60
I1
sVbg_psychometric_curve_nr_steps_oneside
p61
I10
sS'bar_orientation'
p62
g22
(g26
S'\x00\x00\x00\x00\x00\x00\xf0\xbf'
p63
tp64
Rp65
sVblobstim_fix_nr_ring
p66
I1
sVstim_time
p67
F0.2
sVanswer_dictionary
p68
(dp69
Vy
p70
I1
sVb
p71
I0
ssVblobstim_bg_ecc_max
p72
I15
sa(dp73
g4
I20
sg5
F0.3
sg6
F0.2
sg7
F0.05
sg8
F0.4
sg9
I8
sg10
I8
sg11
F0.99
sg12
F0.4
sg13
I64
sg14
F0.15
sg15
I0
sg16
I2
sg17
F1.2
sg18
F0.125
sg19
F0.9
sg20
I1
sg21
g22
(g26
S'\x00\x00\x00\x00\x00\x00\xf0?'
p74
tp75
Rp76
sg32
I10
sg33
I-1
sg34
I512
sg35
F0.8
sg36
F0.15
sg37
I1024
sg38
F0.125
sg39
g22
(g26
S'\x0b\xd7\xa3p=\n\xb7\xbf'
p77
tp78
Rp79
sg43
F0.25
sg44
I2
sg45
F0.2
sg46
F0.1
sg47
F0.6
sg48
I6
sg49
I12
sg50
g22
(g26
S'H\xe1z\x14\xaeG\xc1?'
p80
tp81
Rp82
sg54
I1
sg55
I1
sg56
g57
sg58
I10
sg59
F0.1225
sg60
I1
sg61
I10
sg62
g22
(g26
S'\x00\x00\x00\x00\x00\x00\xf0\xbf'
p83
tp84
Rp85
sg66
I1
sg67
F0.2
sg68
g69
sg72
I15
sa(dp86
g4
I20
sg5
F0.3
sg6
F0.2
sg7
F0.05
sg8
F0.4
sg9
I8
sg10
I8
sg11
F0.99
sg12
F0.4
sg13
I64
sg14
F0.15
sg15
I0
sg16
I2
sg17
F1.2
sg18
F0.125
sg19
F0.9
sg20
I1
sg21
g22
(g26
S'\x00\x00\x00\x00\x00\x00\x00@'
p87
tp88
Rp89
sg32
I10
sg33
I-1
sg34
I512
sg35
F0.8
sg36
F0.15
sg37
I1024
sg38
F0.125
sg39
g22
(g26
S'H\xe1z\x14\xaeG\xc1\xbf'
p90
tp91
Rp92
sg43
F0.25
sg44
I2
sg45
F0.2
sg46
F0.1
sg47
F0.6
sg48
I6
sg49
I12
sg50
g22
(g26
S'\n\xd7\xa3p=\n\xa7?'
p93
tp94
Rp95
sg54
I1
sg55
I1
sg56
g57
sg58
I10
sg59
F0.1225
sg60
I1
sg61
I10
sg62
g22
(g26
S'\x00\x00\x00\x00\x00\x00\xf0\xbf'
p96
tp97
Rp98
sg66
I1
sg67
F0.2
sg68
g69
sg72
I15
sa(dp99
g4
I20
sg5
F0.3
sg6
F0.2
sg7
F0.05
sg8
F0.4
sg9
I8
sg10
I8
sg11
F0.99
sg12
F0.4
sg13
I64
sg14
F0.15
sg15
I0
sg16
I2
sg17
F1.2
sg18
F0.125
sg19
F0.9
sg20
I1
sg21
g22
(g26
S'\x00\x00\x00\x00\x00\x00\x08@'
p100
tp101
Rp102
sg32
I10
sg33
I-1
sg34
I512
sg35
F0.8
sg36
F0.15
sg37
I1024
sg38
F0.125
sg39
g22
(g26
S'\xb8\x1e\x85\xebQ\xb8\x9e?'
p103
tp104
Rp105
sg43
F0.25
sg44
I2
sg45
F0.2
sg46
F0.1
sg47
F0.6
sg48
I6
sg49
I12
sg50
g22
(g26
S'\xb8\x1e\x85\xebQ\xb8\x8e\xbf'
p106
tp107
Rp108
sg54
I1
sg55
I1
sg56
g57
sg58
I10
sg59
F0.1225
sg60
I1
sg61
I10
sg62
g22
(g26
S'\x00\x00\x00\x00\x00\x00\xf0\xbf'
p109
tp110
Rp111
sg66
I1
sg67
F0.2
sg68
g69
sg72
I15
sa(dp112
g4
I20
sg5
F0.3
sg6
F0.2
sg7
F0.05
sg8
F0.4
sg9
I8
sg10
I8
sg11
F0.99
sg12
F0.4
sg13
I64
sg14
F0.15
sg15
I0
sg16
I2
sg17
F1.2
sg18
F0.125
sg19
F0.9
sg20
I1
sg21
g22
(g26
S'\x00\x00\x00\x00\x00\x00\x10@'
p113
tp114
Rp115
sg32
I10
sg33
I-1
sg34
I512
sg35
F0.8
sg36
F0.15
sg37
I1024
sg38
F0.125
sg39
g22
(g26
S'\n\xd7\xa3p=\n\xa7\xbf'
p116
tp117
Rp118
sg43
F0.25
sg44
I2
sg45
F0.2
sg46
F0.1
sg47
F0.6
sg48
I6
sg49
I12
sg50
g22
(g26
S'333333\xc3\xbf'
p119
tp120
Rp121
sg54
I1
sg55
I1
sg56
g57
sg58
I10
sg59
F0.1225
sg60
I1
sg61
I10
sg62
g22
(g26
S'\x00\x00\x00\x00\x00\x00\xf0\xbf'
p122
tp123
Rp124
sg66
I1
sg67
F0.2
sg68
g69
sg72
I15
sa(dp125
g4
I20
sg5
F0.3
sg6
F0.2
sg7
F0.05
sg8
F0.4
sg9
I8
sg10
I8
sg11
F0.99
sg12
F0.4
sg13
I64
sg14
F0.15
sg15
I0
sg16
I2
sg17
F1.2
sg18
F0.125
sg19
F0.9
sg20
I1
sg21
g22
(g26
S'\x00\x00\x00\x00\x00\x00\x14@'
p126
tp127
Rp128
sg32
I10
sg33
I-1
sg34
I512
sg35
F0.8
sg36
F0.15
sg37
I1024
sg38
F0.125
sg39
g22
(g26
S'\x0b\xd7\xa3p=\n\xb7\xbf'
p129
tp130
Rp131
sg43
F0.25
sg44
I2
sg45
F0.2
sg46
F0.1
sg47
F0.6
sg48
I6
sg49
I12
sg50
g22
(g26
S'\xe2z\x14\xaeG\xe1\xba\xbf'
p132
tp133
Rp134
sg54
I1
sg55
I1
sg56
g57
sg58
I10
sg59
F0.1225
sg60
I1
sg61
I10
sg62
g22
(g26
S'\x00\x00\x00\x00\x00\x00\xf0\xbf'
p135
tp136
Rp137
sg66
I1
sg67
F0.2
sg68
g69
sg72
I15
sa(dp138
g4
I20
sg5
F0.3
sg6
F0.2
sg7
F0.05
sg8
F0.4
sg9
I8
sg10
I8
sg11
F0.99
sg12
F0.4
sg13
I64
sg14
F0.15
sg15
I0
sg16
I2
sg17
F1.2
sg18
F0.125
sg19
F0.9
sg20
I1
sg21
g22
(g26
S'\x00\x00\x00\x00\x00\x00\x18@'
p139
tp140
Rp141
sg32
I10
sg33
I-1
sg34
I512
sg35
F0.8
sg36
F0.15
sg37
I1024
sg38
F0.125
sg39
g22
(g26
S'\xb9\x1e\x85\xebQ\xb8\xae\xbf'
p142
tp143
Rp144
sg43
F0.25
sg44
I2
sg45
F0.2
sg46
F0.1
sg47
F0.6
sg48
I6
sg49
I12
sg50
g22
(g26
S'\xe2z\x14\xaeG\xe1\xba?'
p145
tp146
Rp147
sg54
I1
sg55
I1
sg56
g57
sg58
I10
sg59
F0.1225
sg60
I1
sg61
I10
sg62
g22
(g26
S'\x00\x00\x00\x00\x00\x00\xf0\xbf'
p148
tp149
Rp150
sg66
I1
sg67
F0.2
sg68
g69
sg72
I15
sa(dp151
g4
I20
sg5
F0.3
sg6
F0.2
sg7
F0.05
sg8
F0.4
sg9
I8
sg10
I8
sg11
F0.99
sg12
F0.4
sg13
I64
sg14
F0.15
sg15
I0
sg16
I2
sg17
F1.2
sg18
F0.125
sg19
F0.9
sg20
I1
sg21
g22
(g26
S'\x00\x00\x00\x00\x00\x00\x1c@'
p152
tp153
Rp154
sg32
I10
sg33
I-1
sg34
I512
sg35
F0.8
sg36
F0.15
sg37
I1024
sg38
F0.125
sg39
g22
(g26
S'\n\xd7\xa3p=\n\xa7\xbf'
p155
tp156
Rp157
sg43
F0.25
sg44
I2
sg45
F0.2
sg46
F0.1
sg47
F0.6
sg48
I6
sg49
I12
sg50
g22
(g26
S'\xb9\x1e\x85\xebQ\xb8\xbe\xbf'
p158
tp159
Rp160
sg54
I1
sg55
I1
sg56
g57
sg58
I10
sg59
F0.1225
sg60
I1
sg61
I10
sg62
g22
(g26
S'\x00\x00\x00\x00\x00\x00\xf0\xbf'
p161
tp162
Rp163
sg66
I1
sg67
F0.2
sg68
g69
sg72
I15
sa(dp164
g4
I20
sg5
F0.3
sg6
F0.2
sg7
F0.05
sg8
F0.4
sg9
I8
sg10
I8
sg11
F0.99
sg12
F0.4
sg13
I64
sg14
F0.15
sg15
I0
sg16
I2
sg17
F1.2
sg18
F0.125
sg19
F0.9
sg20
I1
sg21
g22
(g26
S'\x00\x00\x00\x00\x00\x00 @'
p165
tp166
Rp167
sg32
I10
sg33
I-1
sg34
I512
sg35
F0.8
sg36
F0.15
sg37
I1024
sg38
F0.125
sg39
g22
(g26
S'\xb8\x1e\x85\xebQ\xb8\x9e\xbf'
p168
tp169
Rp170
sg43
F0.25
sg44
I2
sg45
F0.2
sg46
F0.1
sg47
F0.6
sg48
I6
sg49
I12
sg50
g22
(g26
S'\x0b\xd7\xa3p=\n\xb7\xbf'
p171
tp172
Rp173
sg54
I1
sg55
I1
sg56
g57
sg58
I10
sg59
F0.1225
sg60
I1
sg61
I10
sg62
g22
(g26
S'\x00\x00\x00\x00\x00\x00\xf0\xbf'
p174
tp175
Rp176
sg66
I1
sg67
F0.2
sg68
g69
sg72
I15
sa(dp177
g4
I20
sg5
F0.3
sg6
F0.2
sg7
F0.05
sg8
F0.4
sg9
I8
sg10
I8
sg11
F0.99
sg12
F0.4
sg13
I64
sg14
F0.15
sg15
I0
sg16
I2
sg17
F1.2
sg18
F0.125
sg19
F0.9
sg20
I1
sg21
g22
(g26
S'\x00\x00\x00\x00\x00\x00"@'
p178
tp179
Rp180
sg32
I10
sg33
I-1
sg34
I512
sg35
F0.8
sg36
F0.15
sg37
I1024
sg38
F0.125
sg39
g22
(g26
S'H\xe1z\x14\xaeG\xc1\xbf'
p181
tp182
Rp183
sg43
F0.25
sg44
I2
sg45
F0.2
sg46
F0.1
sg47
F0.6
sg48
I6
sg49
I12
sg50
g22
(g26
S'\x0b\xd7\xa3p=\n\xb7?'
p184
tp185
Rp186
sg54
I1
sg55
I1
sg56
g57
sg58
I10
sg59
F0.1225
sg60
I1
sg61
I10
sg62
g22
(g26
S'\x00\x00\x00\x00\x00\x00\xf0\xbf'
p187
tp188
Rp189
sg66
I1
sg67
F0.2
sg68
g69
sg72
I15
sa(dp190
g4
I20
sg5
F0.3
sg6
F0.2
sg7
F0.05
sg8
F0.4
sg9
I8
sg10
I8
sg11
F0.99
sg12
F0.4
sg13
I64
sg14
F0.15
sg15
I0
sg16
I2
sg17
F1.2
sg18
F0.125
sg19
F0.9
sg20
I1
sg21
g22
(g26
S'\x00\x00\x00\x00\x00\x00\x00\x00'
p191
tp192
Rp193
sg32
I10
sg33
I-1
sg34
I512
sg35
F0.8
sg36
F0.15
sg37
I1024
sg38
F0.125
sg39
g22
(g26
S'\xb9\x1e\x85\xebQ\xb8\xbe\xbf'
p194
tp195
Rp196
sg43
F0.25
sg44
I2
sg45
F0.2
sg46
F0.1
sg47
F0.6
sg48
I6
sg49
I12
sg50
g22
(g26
S'\xb8\x1e\x85\xebQ\xb8\x9e?'
p197
tp198
Rp199
sg54
I1
sg55
I1
sg56
g57
sg58
I10
sg59
F0.1225
sg60
I1
sg61
I10
sg62
g22
(g26
S'\x00\x00\x00\x00\x00\x00\x00\x00'
p200
tp201
Rp202
sg66
I1
sg67
F0.2
sg68
g69
sg72
I15
sa(dp203
g4
I20
sg5
F0.3
sg6
F0.2
sg7
F0.05
sg8
F0.4
sg9
I8
sg10
I8
sg11
F0.99
sg12
F0.4
sg13
I64
sg14
F0.15
sg15
I0
sg16
I2
sg17
F1.2
sg18
F0.125
sg19
F0.9
sg20
I1
sg21
g22
(g26
S'\x00\x00\x00\x00\x00\x00\xf0?'
p204
tp205
Rp206
sg32
I10
sg33
I-1
sg34
I512
sg35
F0.8
sg36
F0.15
sg37
I1024
sg38
F0.125
sg39
g22
(g26
S'\n\xd7\xa3p=\n\xa7\xbf'
p207
tp208
Rp209
sg43
F0.25
sg44
I2
sg45
F0.2
sg46
F0.1
sg47
F0.6
sg48
I6
sg49
I12
sg50
g22
(g26
S'\x0b\xd7\xa3p=\n\xb7?'
p210
tp211
Rp212
sg54
I1
sg55
I1
sg56
g57
sg58
I10
sg59
F0.1225
sg60
I1
sg61
I10
sg62
g22
(g26
S'\x00\x00\x00\x00\x00\x00\x00\x00'
p213
tp214
Rp215
sg66
I1
sg67
F0.2
sg68
g69
sg72
I15
sa(dp216
g4
I20
sg5
F0.3
sg6
F0.2
sg7
F0.05
sg8
F0.4
sg9
I8
sg10
I8
sg11
F0.99
sg12
F0.4
sg13
I64
sg14
F0.15
sg15
I0
sg16
I2
sg17
F1.2
sg18
F0.125
sg19
F0.9
sg20
I1
sg21
g22
(g26
S'\x00\x00\x00\x00\x00\x00\x00@'
p217
tp218
Rp219
sg32
I10
sg33
I-1
sg34
I512
sg35
F0.8
sg36
F0.15
sg37
I1024
sg38
F0.125
sg39
g22
(g26
S'\x0b\xd7\xa3p=\n\xb7\xbf'
p220
tp221
Rp222
sg43
F0.25
sg44
I2
sg45
F0.2
sg46
F0.1
sg47
F0.6
sg48
I6
sg49
I12
sg50
g22
(g26
S'\xb8\x1e\x85\xebQ\xb8\x9e?'
p223
tp224
Rp225
sg54
I1
sg55
I1
sg56
g57
sg58
I10
sg59
F0.1225
sg60
I1
sg61
I10
sg62
g22
(g26
S'\x00\x00\x00\x00\x00\x00\x00\x00'
p226
tp227
Rp228
sg66
I1
sg67
F0.2
sg68
g69
sg72
I15
sa(dp229
g4
I20
sg5
F0.3
sg6
F0.2
sg7
F0.05
sg8
F0.4
sg9
I8
sg10
I8
sg11
F0.99
sg12
F0.4
sg13
I64
sg14
F0.15
sg15
I0
sg16
I2
sg17
F1.2
sg18
F0.125
sg19
F0.9
sg20
I1
sg21
g22
(g26
S'\x00\x00\x00\x00\x00\x00\x08@'
p230
tp231
Rp232
sg32
I10
sg33
I-1
sg34
I512
sg35
F0.8
sg36
F0.15
sg37
I1024
sg38
F0.125
sg39
g22
(g26
S'433333\xb3?'
p233
tp234
Rp235
sg43
F0.25
sg44
I2
sg45
F0.2
sg46
F0.1
sg47
F0.6
sg48
I6
sg49
I12
sg50
g22
(g26
S'433333\xb3\xbf'
p236
tp237
Rp238
sg54
I1
sg55
I1
sg56
g57
sg58
I10
sg59
F0.1225
sg60
I1
sg61
I10
sg62
g22
(g26
S'\x00\x00\x00\x00\x00\x00\x00\x00'
p239
tp240
Rp241
sg66
I1
sg67
F0.2
sg68
g69
sg72
I15
sa(dp242
g4
I20
sg5
F0.3
sg6
F0.2
sg7
F0.05
sg8
F0.4
sg9
I8
sg10
I8
sg11
F0.99
sg12
F0.4
sg13
I64
sg14
F0.15
sg15
I0
sg16
I2
sg17
F1.2
sg18
F0.125
sg19
F0.9
sg20
I1
sg21
g22
(g26
S'\x00\x00\x00\x00\x00\x00\x10@'
p243
tp244
Rp245
sg32
I10
sg33
I-1
sg34
I512
sg35
F0.8
sg36
F0.15
sg37
I1024
sg38
F0.125
sg39
g22
(g26
S'\xb9\x1e\x85\xebQ\xb8\xbe\xbf'
p246
tp247
Rp248
sg43
F0.25
sg44
I2
sg45
F0.2
sg46
F0.1
sg47
F0.6
sg48
I6
sg49
I12
sg50
g22
(g26
S'333333\xc3?'
p249
tp250
Rp251
sg54
I1
sg55
I1
sg56
g57
sg58
I10
sg59
F0.1225
sg60
I1
sg61
I10
sg62
g22
(g26
S'\x00\x00\x00\x00\x00\x00\x00\x00'
p252
tp253
Rp254
sg66
I1
sg67
F0.2
sg68
g69
sg72
I15
sa(dp255
g4
I20
sg5
F0.3
sg6
F0.2
sg7
F0.05
sg8
F0.4
sg9
I8
sg10
I8
sg11
F0.99
sg12
F0.4
sg13
I64
sg14
F0.15
sg15
I0
sg16
I2
sg17
F1.2
sg18
F0.125
sg19
F0.9
sg20
I1
sg21
g22
(g26
S'\x00\x00\x00\x00\x00\x00\x14@'
p256
tp257
Rp258
sg32
I10
sg33
I-1
sg34
I512
sg35
F0.8
sg36
F0.15
sg37
I1024
sg38
F0.125
sg39
g22
(g26
S'\x0b\xd7\xa3p=\n\xb7\xbf'
p259
tp260
Rp261
sg43
F0.25
sg44
I2
sg45
F0.2
sg46
F0.1
sg47
F0.6
sg48
I6
sg49
I12
sg50
g22
(g26
S'\xb8\x1e\x85\xebQ\xb8\x9e?'
p262
tp263
Rp264
sg54
I1
sg55
I1
sg56
g57
sg58
I10
sg59
F0.1225
sg60
I1
sg61
I10
sg62
g22
(g26
S'\x00\x00\x00\x00\x00\x00\x00\x00'
p265
tp266
Rp267
sg66
I1
sg67
F0.2
sg68
g69
sg72
I15
sa(dp268
g4
I20
sg5
F0.3
sg6
F0.2
sg7
F0.05
sg8
F0.4
sg9
I8
sg10
I8
sg11
F0.99
sg12
F0.4
sg13
I64
sg14
F0.15
sg15
I0
sg16
I2
sg17
F1.2
sg18
F0.125
sg19
F0.9
sg20
I1
sg21
g22
(g26
S'\x00\x00\x00\x00\x00\x00\x18@'
p269
tp270
Rp271
sg32
I10
sg33
I-1
sg34
I512
sg35
F0.8
sg36
F0.15
sg37
I1024
sg38
F0.125
sg39
g22
(g26
S'433333\xb3?'
p272
tp273
Rp274
sg43
F0.25
sg44
I2
sg45
F0.2
sg46
F0.1
sg47
F0.6
sg48
I6
sg49
I12
sg50
g22
(g26
S'\xb9\x1e\x85\xebQ\xb8\xae?'
p275
tp276
Rp277
sg54
I1
sg55
I1
sg56
g57
sg58
I10
sg59
F0.1225
sg60
I1
sg61
I10
sg62
g22
(g26
S'\x00\x00\x00\x00\x00\x00\x00\x00'
p278
tp279
Rp280
sg66
I1
sg67
F0.2
sg68
g69
sg72
I15
sa(dp281
g4
I20
sg5
F0.3
sg6
F0.2
sg7
F0.05
sg8
F0.4
sg9
I8
sg10
I8
sg11
F0.99
sg12
F0.4
sg13
I64
sg14
F0.15
sg15
I0
sg16
I2
sg17
F1.2
sg18
F0.125
sg19
F0.9
sg20
I1
sg21
g22
(g26
S'\x00\x00\x00\x00\x00\x00\x1c@'
p282
tp283
Rp284
sg32
I10
sg33
I-1
sg34
I512
sg35
F0.8
sg36
F0.15
sg37
I1024
sg38
F0.125
sg39
g22
(g26
S'\xb8\x1e\x85\xebQ\xb8\x9e\xbf'
p285
tp286
Rp287
sg43
F0.25
sg44
I2
sg45
F0.2
sg46
F0.1
sg47
F0.6
sg48
I6
sg49
I12
sg50
g22
(g26
S'433333\xb3?'
p288
tp289
Rp290
sg54
I1
sg55
I1
sg56
g57
sg58
I10
sg59
F0.1225
sg60
I1
sg61
I10
sg62
g22
(g26
S'\x00\x00\x00\x00\x00\x00\x00\x00'
p291
tp292
Rp293
sg66
I1
sg67
F0.2
sg68
g69
sg72
I15
sa(dp294
g4
I20
sg5
F0.3
sg6
F0.2
sg7
F0.05
sg8
F0.4
sg9
I8
sg10
I8
sg11
F0.99
sg12
F0.4
sg13
I64
sg14
F0.15
sg15
I0
sg16
I2
sg17
F1.2
sg18
F0.125
sg19
F0.9
sg20
I1
sg21
g22
(g26
S'\x00\x00\x00\x00\x00\x00 @'
p295
tp296
Rp297
sg32
I10
sg33
I-1
sg34
I512
sg35
F0.8
sg36
F0.15
sg37
I1024
sg38
F0.125
sg39
g22
(g26
S'\xe2z\x14\xaeG\xe1\xba?'
p298
tp299
Rp300
sg43
F0.25
sg44
I2
sg45
F0.2
sg46
F0.1
sg47
F0.6
sg48
I6
sg49
I12
sg50
g22
(g26
S'\xb9\x1e\x85\xebQ\xb8\xae\xbf'
p301
tp302
Rp303
sg54
I1
sg55
I1
sg56
g57
sg58
I10
sg59
F0.1225
sg60
I1
sg61
I10
sg62
g22
(g26
S'\x00\x00\x00\x00\x00\x00\x00\x00'
p304
tp305
Rp306
sg66
I1
sg67
F0.2
sg68
g69
sg72
I15
sa(dp307
g4
I20
sg5
F0.3
sg6
F0.2
sg7
F0.05
sg8
F0.4
sg9
I8
sg10
I8
sg11
F0.99
sg12
F0.4
sg13
I64
sg14
F0.15
sg15
I0
sg16
I2
sg17
F1.2
sg18
F0.125
sg19
F0.9
sg20
I1
sg21
g22
(g26
S'\x00\x00\x00\x00\x00\x00"@'
p308
tp309
Rp310
sg32
I10
sg33
I-1
sg34
I512
sg35
F0.8
sg36
F0.15
sg37
I1024
sg38
F0.125
sg39
g22
(g26
S'\xb8\x1e\x85\xebQ\xb8\x8e\xbf'
p311
tp312
Rp313
sg43
F0.25
sg44
I2
sg45
F0.2
sg46
F0.1
sg47
F0.6
sg48
I6
sg49
I12
sg50
g22
(g26
S'\xb9\x1e\x85\xebQ\xb8\xbe\xbf'
p314
tp315
Rp316
sg54
I1
sg55
I1
sg56
g57
sg58
I10
sg59
F0.1225
sg60
I1
sg61
I10
sg62
g22
(g26
S'\x00\x00\x00\x00\x00\x00\x00\x00'
p317
tp318
Rp319
sg66
I1
sg67
F0.2
sg68
g69
sg72
I15
sa(dp320
g4
I20
sg5
F0.3
sg6
F0.2
sg7
F0.05
sg8
F0.4
sg9
I8
sg10
I8
sg11
F0.99
sg12
F0.4
sg13
I64
sg14
F0.15
sg15
I0
sg16
I2
sg17
F1.2
sg18
F0.125
sg19
F0.9
sg20
I1
sg21
g22
(g26
S'\x00\x00\x00\x00\x00\x00$@'
p321
tp322
Rp323
sg32
I10
sg33
I-1
sg34
I512
sg35
F0.8
sg36
F0.15
sg37
I1024
sg38
F0.125
sg39
g22
(g26
S'\xb9\x1e\x85\xebQ\xb8\xae?'
p324
tp325
Rp326
sg43
F0.25
sg44
I2
sg45
F0.2
sg46
F0.1
sg47
F0.6
sg48
I6
sg49
I12
sg50
g22
(g26
S'433333\xb3\xbf'
p327
tp328
Rp329
sg54
I1
sg55
I1
sg56
g57
sg58
I10
sg59
F0.1225
sg60
I1
sg61
I10
sg62
g22
(g26
S'\x00\x00\x00\x00\x00\x00\x00\x00'
p330
tp331
Rp332
sg66
I1
sg67
F0.2
sg68
g69
sg72
I15
sa(dp333
g4
I20
sg5
F0.3
sg6
F0.2
sg7
F0.05
sg8
F0.4
sg9
I8
sg10
I8
sg11
F0.99
sg12
F0.4
sg13
I64
sg14
F0.15
sg15
I0
sg16
I2
sg17
F1.2
sg18
F0.125
sg19
F0.9
sg20
I1
sg21
g22
(g26
S'\x00\x00\x00\x00\x00\x00&@'
p334
tp335
Rp336
sg32
I10
sg33
I-1
sg34
I512
sg35
F0.8
sg36
F0.15
sg37
I1024
sg38
F0.125
sg39
g22
(g26
S'\xb9\x1e\x85\xebQ\xb8\xbe?'
p337
tp338
Rp339
sg43
F0.25
sg44
I2
sg45
F0.2
sg46
F0.1
sg47
F0.6
sg48
I6
sg49
I12
sg50
g22
(g26
S'\n\xd7\xa3p=\n\xa7\xbf'
p340
tp341
Rp342
sg54
I1
sg55
I1
sg56
g57
sg58
I10
sg59
F0.1225
sg60
I1
sg61
I10
sg62
g22
(g26
S'\x00\x00\x00\x00\x00\x00\x00\x00'
p343
tp344
Rp345
sg66
I1
sg67
F0.2
sg68
g69
sg72
I15
sa(dp346
g4
I20
sg5
F0.3
sg6
F0.2
sg7
F0.05
sg8
F0.4
sg9
I8
sg10
I8
sg11
F0.99
sg12
F0.4
sg13
I64
sg14
F0.15
sg15
I0
sg16
I2
sg17
F1.2
sg18
F0.125
sg19
F0.9
sg20
I1
sg21
g22
(g26
S'\x00\x00\x00\x00\x00\x00(@'
p347
tp348
Rp349
sg32
I10
sg33
I-1
sg34
I512
sg35
F0.8
sg36
F0.15
sg37
I1024
sg38
F0.125
sg39
g22
(g26
S'\xb8\x1e\x85\xebQ\xb8\x8e?'
p350
tp351
Rp352
sg43
F0.25
sg44
I2
sg45
F0.2
sg46
F0.1
sg47
F0.6
sg48
I6
sg49
I12
sg50
g22
(g26
S'433333\xb3?'
p353
tp354
Rp355
sg54
I1
sg55
I1
sg56
g57
sg58
I10
sg59
F0.1225
sg60
I1
sg61
I10
sg62
g22
(g26
S'\x00\x00\x00\x00\x00\x00\x00\x00'
p356
tp357
Rp358
sg66
I1
sg67
F0.2
sg68
g69
sg72
I15
sa(dp359
g4
I20
sg5
F0.3
sg6
F0.2
sg7
F0.05
sg8
F0.4
sg9
I8
sg10
I8
sg11
F0.99
sg12
F0.4
sg13
I64
sg14
F0.15
sg15
I0
sg16
I2
sg17
F1.2
sg18
F0.125
sg19
F0.9
sg20
I1
sg21
g22
(g26
S'\x00\x00\x00\x00\x00\x00*@'
p360
tp361
Rp362
sg32
I10
sg33
I-1
sg34
I512
sg35
F0.8
sg36
F0.15
sg37
I1024
sg38
F0.125
sg39
g22
(g26
S'\xe2z\x14\xaeG\xe1\xba?'
p363
tp364
Rp365
sg43
F0.25
sg44
I2
sg45
F0.2
sg46
F0.1
sg47
F0.6
sg48
I6
sg49
I12
sg50
g22
(g26
S'\xb9\x1e\x85\xebQ\xb8\xbe\xbf'
p366
tp367
Rp368
sg54
I1
sg55
I1
sg56
g57
sg58
I10
sg59
F0.1225
sg60
I1
sg61
I10
sg62
g22
(g26
S'\x00\x00\x00\x00\x00\x00\x00\x00'
p369
tp370
Rp371
sg66
I1
sg67
F0.2
sg68
g69
sg72
I15
sa(dp372
g4
I20
sg5
F0.3
sg6
F0.2
sg7
F0.05
sg8
F0.4
sg9
I8
sg10
I8
sg11
F0.99
sg12
F0.4
sg13
I64
sg14
F0.15
sg15
I0
sg16
I2
sg17
F1.2
sg18
F0.125
sg19
F0.9
sg20
I1
sg21
g22
(g26
S'\x00\x00\x00\x00\x00\x00,@'
p373
tp374
Rp375
sg32
I10
sg33
I-1
sg34
I512
sg35
F0.8
sg36
F0.15
sg37
I1024
sg38
F0.125
sg39
g22
(g26
S'333333\xc3?'
p376
tp377
Rp378
sg43
F0.25
sg44
I2
sg45
F0.2
sg46
F0.1
sg47
F0.6
sg48
I6
sg49
I12
sg50
g22
(g26
S'H\xe1z\x14\xaeG\xc1\xbf'
p379
tp380
Rp381
sg54
I1
sg55
I1
sg56
g57
sg58
I10
sg59
F0.1225
sg60
I1
sg61
I10
sg62
g22
(g26
S'\x00\x00\x00\x00\x00\x00\x00\x00'
p382
tp383
Rp384
sg66
I1
sg67
F0.2
sg68
g69
sg72
I15
sa(dp385
g4
I20
sg5
F0.3
sg6
F0.2
sg7
F0.05
sg8
F0.4
sg9
I8
sg10
I8
sg11
F0.99
sg12
F0.4
sg13
I64
sg14
F0.15
sg15
I0
sg16
I2
sg17
F1.2
sg18
F0.125
sg19
F0.9
sg20
I1
sg21
g22
(g26
S'\x00\x00\x00\x00\x00\x00.@'
p386
tp387
Rp388
sg32
I10
sg33
I-1
sg34
I512
sg35
F0.8
sg36
F0.15
sg37
I1024
sg38
F0.125
sg39
g22
(g26
S'\xb9\x1e\x85\xebQ\xb8\xbe\xbf'
p389
tp390
Rp391
sg43
F0.25
sg44
I2
sg45
F0.2
sg46
F0.1
sg47
F0.6
sg48
I6
sg49
I12
sg50
g22
(g26
S'333333\xc3\xbf'
p392
tp393
Rp394
sg54
I1
sg55
I1
sg56
g57
sg58
I10
sg59
F0.1225
sg60
I1
sg61
I10
sg62
g22
(g26
S'\x00\x00\x00\x00\x00\x00\x00\x00'
p395
tp396
Rp397
sg66
I1
sg67
F0.2
sg68
g69
sg72
I15
sa(dp398
g4
I20
sg5
F0.3
sg6
F0.2
sg7
F0.05
sg8
F0.4
sg9
I8
sg10
I8
sg11
F0.99
sg12
F0.4
sg13
I64
sg14
F0.15
sg15
I0
sg16
I2
sg17
F1.2
sg18
F0.125
sg19
F0.9
sg20
I1
sg21
g22
(g26
S'\x00\x00\x00\x00\x00\x000@'
p399
tp400
Rp401
sg32
I10
sg33
I-1
sg34
I512
sg35
F0.8
sg36
F0.15
sg37
I1024
sg38
F0.125
sg39
g22
(g26
S'333333\xc3?'
p402
tp403
Rp404
sg43
F0.25
sg44
I2
sg45
F0.2
sg46
F0.1
sg47
F0.6
sg48
I6
sg49
I12
sg50
g22
(g26
S'\xb9\x1e\x85\xebQ\xb8\xbe?'
p405
tp406
Rp407
sg54
I1
sg55
I1
sg56
g57
sg58
I10
sg59
F0.1225
sg60
I1
sg61
I10
sg62
g22
(g26
S'\x00\x00\x00\x00\x00\x00\x00\x00'
p408
tp409
Rp410
sg66
I1
sg67
F0.2
sg68
g69
sg72
I15
sa(dp411
g4
I20
sg5
F0.3
sg6
F0.2
sg7
F0.05
sg8
F0.4
sg9
I8
sg10
I8
sg11
F0.99
sg12
F0.4
sg13
I64
sg14
F0.15
sg15
I0
sg16
I2
sg17
F1.2
sg18
F0.125
sg19
F0.9
sg20
I1
sg21
g22
(g26
S'\x00\x00\x00\x00\x00\x001@'
p412
tp413
Rp414
sg32
I10
sg33
I-1
sg34
I512
sg35
F0.8
sg36
F0.15
sg37
I1024
sg38
F0.125
sg39
g22
(g26
S'\x0b\xd7\xa3p=\n\xb7?'
p415
tp416
Rp417
sg43
F0.25
sg44
I2
sg45
F0.2
sg46
F0.1
sg47
F0.6
sg48
I6
sg49
I12
sg50
g22
(g26
S'\x0b\xd7\xa3p=\n\xb7?'
p418
tp419
Rp420
sg54
I1
sg55
I1
sg56
g57
sg58
I10
sg59
F0.1225
sg60
I1
sg61
I10
sg62
g22
(g26
S'\x00\x00\x00\x00\x00\x00\x00\x00'
p421
tp422
Rp423
sg66
I1
sg67
F0.2
sg68
g69
sg72
I15
sa(dp424
g4
I20
sg5
F0.3
sg6
F0.2
sg7
F0.05
sg8
F0.4
sg9
I8
sg10
I8
sg11
F0.99
sg12
F0.4
sg13
I64
sg14
F0.15
sg15
I0
sg16
I2
sg17
F1.2
sg18
F0.125
sg19
F0.9
sg20
I1
sg21
g22
(g26
S'\x00\x00\x00\x00\x00\x002@'
p425
tp426
Rp427
sg32
I10
sg33
I-1
sg34
I512
sg35
F0.8
sg36
F0.15
sg37
I1024
sg38
F0.125
sg39
g22
(g26
S'\x0b\xd7\xa3p=\n\xb7?'
p428
tp429
Rp430
sg43
F0.25
sg44
I2
sg45
F0.2
sg46
F0.1
sg47
F0.6
sg48
I6
sg49
I12
sg50
g22
(g26
S'\xb9\x1e\x85\xebQ\xb8\xbe\xbf'
p431
tp432
Rp433
sg54
I1
sg55
I1
sg56
g57
sg58
I10
sg59
F0.1225
sg60
I1
sg61
I10
sg62
g22
(g26
S'\x00\x00\x00\x00\x00\x00\x00\x00'
p434
tp435
Rp436
sg66
I1
sg67
F0.2
sg68
g69
sg72
I15
sa(dp437
g4
I20
sg5
F0.3
sg6
F0.2
sg7
F0.05
sg8
F0.4
sg9
I8
sg10
I8
sg11
F0.99
sg12
F0.4
sg13
I64
sg14
F0.15
sg15
I0
sg16
I2
sg17
F1.2
sg18
F0.125
sg19
F0.9
sg20
I1
sg21
g22
(g26
S'\x00\x00\x00\x00\x00\x003@'
p438
tp439
Rp440
sg32
I10
sg33
I-1
sg34
I512
sg35
F0.8
sg36
F0.15
sg37
I1024
sg38
F0.125
sg39
g22
(g26
S'\xb9\x1e\x85\xebQ\xb8\xae\xbf'
p441
tp442
Rp443
sg43
F0.25
sg44
I2
sg45
F0.2
sg46
F0.1
sg47
F0.6
sg48
I6
sg49
I12
sg50
g22
(g26
S'\n\xd7\xa3p=\n\xa7\xbf'
p444
tp445
Rp446
sg54
I1
sg55
I1
sg56
g57
sg58
I10
sg59
F0.1225
sg60
I1
sg61
I10
sg62
g22
(g26
S'\x00\x00\x00\x00\x00\x00\x00\x00'
p447
tp448
Rp449
sg66
I1
sg67
F0.2
sg68
g69
sg72
I15
sa(dp450
g4
I20
sg5
F0.3
sg6
F0.2
sg7
F0.05
sg8
F0.4
sg9
I8
sg10
I8
sg11
F0.99
sg12
F0.4
sg13
I64
sg14
F0.15
sg15
I0
sg16
I2
sg17
F1.2
sg18
F0.125
sg19
F0.9
sg20
I1
sg21
g22
(g26
S'\x00\x00\x00\x00\x00\x00\x00\x00'
p451
tp452
Rp453
sg32
I10
sg33
I-1
sg34
I512
sg35
F0.8
sg36
F0.15
sg37
I1024
sg38
F0.125
sg39
g22
(g26
S'333333\xc3?'
p454
tp455
Rp456
sg43
F0.25
sg44
I2
sg45
F0.2
sg46
F0.1
sg47
F0.6
sg48
I6
sg49
I12
sg50
g22
(g26
S'\xb8\x1e\x85\xebQ\xb8\x9e\xbf'
p457
tp458
Rp459
sg54
I1
sg55
I1
sg56
g57
sg58
I10
sg59
F0.1225
sg60
I1
sg61
I10
sg62
g22
(g26
S'\x00\x00\x00\x00\x00 l@'
p460
tp461
Rp462
sg66
I1
sg67
F0.2
sg68
g69
sg72
I15
sa(dp463
g4
I20
sg5
F0.3
sg6
F0.2
sg7
F0.05
sg8
F0.4
sg9
I8
sg10
I8
sg11
F0.99
sg12
F0.4
sg13
I64
sg14
F0.15
sg15
I0
sg16
I2
sg17
F1.2
sg18
F0.125
sg19
F0.9
sg20
I1
sg21
g22
(g26
S'\x00\x00\x00\x00\x00\x00\xf0?'
p464
tp465
Rp466
sg32
I10
sg33
I-1
sg34
I512
sg35
F0.8
sg36
F0.15
sg37
I1024
sg38
F0.125
sg39
g22
(g26
S'\xb8\x1e\x85\xebQ\xb8\x9e?'
p467
tp468
Rp469
sg43
F0.25
sg44
I2
sg45
F0.2
sg46
F0.1
sg47
F0.6
sg48
I6
sg49
I12
sg50
g22
(g26
S'\xe2z\x14\xaeG\xe1\xba?'
p470
tp471
Rp472
sg54
I1
sg55
I1
sg56
g57
sg58
I10
sg59
F0.1225
sg60
I1
sg61
I10
sg62
g22
(g26
S'\x00\x00\x00\x00\x00 l@'
p473
tp474
Rp475
sg66
I1
sg67
F0.2
sg68
g69
sg72
I15
sa(dp476
g4
I20
sg5
F0.3
sg6
F0.2
sg7
F0.05
sg8
F0.4
sg9
I8
sg10
I8
sg11
F0.99
sg12
F0.4
sg13
I64
sg14
F0.15
sg15
I0
sg16
I2
sg17
F1.2
sg18
F0.125
sg19
F0.9
sg20
I1
sg21
g22
(g26
S'\x00\x00\x00\x00\x00\x00\x00@'
p477
tp478
Rp479
sg32
I10
sg33
I-1
sg34
I512
sg35
F0.8
sg36
F0.15
sg37
I1024
sg38
F0.125
sg39
g22
(g26
S'\xb8\x1e\x85\xebQ\xb8\x8e?'
p480
tp481
Rp482
sg43
F0.25
sg44
I2
sg45
F0.2
sg46
F0.1
sg47
F0.6
sg48
I6
sg49
I12
sg50
g22
(g26
S'\xb9\x1e\x85\xebQ\xb8\xbe\xbf'
p483
tp484
Rp485
sg54
I1
sg55
I1
sg56
g57
sg58
I10
sg59
F0.1225
sg60
I1
sg61
I10
sg62
g22
(g26
S'\x00\x00\x00\x00\x00 l@'
p486
tp487
Rp488
sg66
I1
sg67
F0.2
sg68
g69
sg72
I15
sa(dp489
g4
I20
sg5
F0.3
sg6
F0.2
sg7
F0.05
sg8
F0.4
sg9
I8
sg10
I8
sg11
F0.99
sg12
F0.4
sg13
I64
sg14
F0.15
sg15
I0
sg16
I2
sg17
F1.2
sg18
F0.125
sg19
F0.9
sg20
I1
sg21
g22
(g26
S'\x00\x00\x00\x00\x00\x00\x08@'
p490
tp491
Rp492
sg32
I10
sg33
I-1
sg34
I512
sg35
F0.8
sg36
F0.15
sg37
I1024
sg38
F0.125
sg39
g22
(g26
S'\xe2z\x14\xaeG\xe1\xba?'
p493
tp494
Rp495
sg43
F0.25
sg44
I2
sg45
F0.2
sg46
F0.1
sg47
F0.6
sg48
I6
sg49
I12
sg50
g22
(g26
S'\xe2z\x14\xaeG\xe1\xba?'
p496
tp497
Rp498
sg54
I1
sg55
I1
sg56
g57
sg58
I10
sg59
F0.1225
sg60
I1
sg61
I10
sg62
g22
(g26
S'\x00\x00\x00\x00\x00 l@'
p499
tp500
Rp501
sg66
I1
sg67
F0.2
sg68
g69
sg72
I15
sa(dp502
g4
I20
sg5
F0.3
sg6
F0.2
sg7
F0.05
sg8
F0.4
sg9
I8
sg10
I8
sg11
F0.99
sg12
F0.4
sg13
I64
sg14
F0.15
sg15
I0
sg16
I2
sg17
F1.2
sg18
F0.125
sg19
F0.9
sg20
I1
sg21
g22
(g26
S'\x00\x00\x00\x00\x00\x00\x10@'
p503
tp504
Rp505
sg32
I10
sg33
I-1
sg34
I512
sg35
F0.8
sg36
F0.15
sg37
I1024
sg38
F0.125
sg39
g22
(g26
S'\xb8\x1e\x85\xebQ\xb8\x8e?'
p506
tp507
Rp508
sg43
F0.25
sg44
I2
sg45
F0.2
sg46
F0.1
sg47
F0.6
sg48
I6
sg49
I12
sg50
g22
(g26
S'333333\xc3\xbf'
p509
tp510
Rp511
sg54
I1
sg55
I1
sg56
g57
sg58
I10
sg59
F0.1225
sg60
I1
sg61
I10
sg62
g22
(g26
S'\x00\x00\x00\x00\x00 l@'
p512
tp513
Rp514
sg66
I1
sg67
F0.2
sg68
g69
sg72
I15
sa(dp515
g4
I20
sg5
F0.3
sg6
F0.2
sg7
F0.05
sg8
F0.4
sg9
I8
sg10
I8
sg11
F0.99
sg12
F0.4
sg13
I64
sg14
F0.15
sg15
I0
sg16
I2
sg17
F1.2
sg18
F0.125
sg19
F0.9
sg20
I1
sg21
g22
(g26
S'\x00\x00\x00\x00\x00\x00\x14@'
p516
tp517
Rp518
sg32
I10
sg33
I-1
sg34
I512
sg35
F0.8
sg36
F0.15
sg37
I1024
sg38
F0.125
sg39
g22
(g26
S'333333\xc3\xbf'
p519
tp520
Rp521
sg43
F0.25
sg44
I2
sg45
F0.2
sg46
F0.1
sg47
F0.6
sg48
I6
sg49
I12
sg50
g22
(g26
S'\xb9\x1e\x85\xebQ\xb8\xbe?'
p522
tp523
Rp524
sg54
I1
sg55
I1
sg56
g57
sg58
I10
sg59
F0.1225
sg60
I1
sg61
I10
sg62
g22
(g26
S'\x00\x00\x00\x00\x00 l@'
p525
tp526
Rp527
sg66
I1
sg67
F0.2
sg68
g69
sg72
I15
sa(dp528
g4
I20
sg5
F0.3
sg6
F0.2
sg7
F0.05
sg8
F0.4
sg9
I8
sg10
I8
sg11
F0.99
sg12
F0.4
sg13
I64
sg14
F0.15
sg15
I0
sg16
I2
sg17
F1.2
sg18
F0.125
sg19
F0.9
sg20
I1
sg21
g22
(g26
S'\x00\x00\x00\x00\x00\x00\x18@'
p529
tp530
Rp531
sg32
I10
sg33
I-1
sg34
I512
sg35
F0.8
sg36
F0.15
sg37
I1024
sg38
F0.125
sg39
g22
(g26
S'\xe2z\x14\xaeG\xe1\xba\xbf'
p532
tp533
Rp534
sg43
F0.25
sg44
I2
sg45
F0.2
sg46
F0.1
sg47
F0.6
sg48
I6
sg49
I12
sg50
g22
(g26
S'\xb8\x1e\x85\xebQ\xb8\x9e\xbf'
p535
tp536
Rp537
sg54
I1
sg55
I1
sg56
g57
sg58
I10
sg59
F0.1225
sg60
I1
sg61
I10
sg62
g22
(g26
S'\x00\x00\x00\x00\x00 l@'
p538
tp539
Rp540
sg66
I1
sg67
F0.2
sg68
g69
sg72
I15
sa(dp541
g4
I20
sg5
F0.3
sg6
F0.2
sg7
F0.05
sg8
F0.4
sg9
I8
sg10
I8
sg11
F0.99
sg12
F0.4
sg13
I64
sg14
F0.15
sg15
I0
sg16
I2
sg17
F1.2
sg18
F0.125
sg19
F0.9
sg20
I1
sg21
g22
(g26
S'\x00\x00\x00\x00\x00\x00\x1c@'
p542
tp543
Rp544
sg32
I10
sg33
I-1
sg34
I512
sg35
F0.8
sg36
F0.15
sg37
I1024
sg38
F0.125
sg39
g22
(g26
S'\xb8\x1e\x85\xebQ\xb8\x9e\xbf'
p545
tp546
Rp547
sg43
F0.25
sg44
I2
sg45
F0.2
sg46
F0.1
sg47
F0.6
sg48
I6
sg49
I12
sg50
g22
(g26
S'\x0b\xd7\xa3p=\n\xb7?'
p548
tp549
Rp550
sg54
I1
sg55
I1
sg56
g57
sg58
I10
sg59
F0.1225
sg60
I1
sg61
I10
sg62
g22
(g26
S'\x00\x00\x00\x00\x00 l@'
p551
tp552
Rp553
sg66
I1
sg67
F0.2
sg68
g69
sg72
I15
sa(dp554
g4
I20
sg5
F0.3
sg6
F0.2
sg7
F0.05
sg8
F0.4
sg9
I8
sg10
I8
sg11
F0.99
sg12
F0.4
sg13
I64
sg14
F0.15
sg15
I0
sg16
I2
sg17
F1.2
sg18
F0.125
sg19
F0.9
sg20
I1
sg21
g22
(g26
S'\x00\x00\x00\x00\x00\x00 @'
p555
tp556
Rp557
sg32
I10
sg33
I-1
sg34
I512
sg35
F0.8
sg36
F0.15
sg37
I1024
sg38
F0.125
sg39
g22
(g26
S'H\xe1z\x14\xaeG\xc1\xbf'
p558
tp559
Rp560
sg43
F0.25
sg44
I2
sg45
F0.2
sg46
F0.1
sg47
F0.6
sg48
I6
sg49
I12
sg50
g22
(g26
S'\xb8\x1e\x85\xebQ\xb8\x8e\xbf'
p561
tp562
Rp563
sg54
I1
sg55
I1
sg56
g57
sg58
I10
sg59
F0.1225
sg60
I1
sg61
I10
sg62
g22
(g26
S'\x00\x00\x00\x00\x00 l@'
p564
tp565
Rp566
sg66
I1
sg67
F0.2
sg68
g69
sg72
I15
sa(dp567
g4
I20
sg5
F0.3
sg6
F0.2
sg7
F0.05
sg8
F0.4
sg9
I8
sg10
I8
sg11
F0.99
sg12
F0.4
sg13
I64
sg14
F0.15
sg15
I0
sg16
I2
sg17
F1.2
sg18
F0.125
sg19
F0.9
sg20
I1
sg21
g22
(g26
S'\x00\x00\x00\x00\x00\x00"@'
p568
tp569
Rp570
sg32
I10
sg33
I-1
sg34
I512
sg35
F0.8
sg36
F0.15
sg37
I1024
sg38
F0.125
sg39
g22
(g26
S'\xe2z\x14\xaeG\xe1\xba?'
p571
tp572
Rp573
sg43
F0.25
sg44
I2
sg45
F0.2
sg46
F0.1
sg47
F0.6
sg48
I6
sg49
I12
sg50
g22
(g26
S'\xb8\x1e\x85\xebQ\xb8\x8e?'
p574
tp575
Rp576
sg54
I1
sg55
I1
sg56
g57
sg58
I10
sg59
F0.1225
sg60
I1
sg61
I10
sg62
g22
(g26
S'\x00\x00\x00\x00\x00 l@'
p577
tp578
Rp579
sg66
I1
sg67
F0.2
sg68
g69
sg72
I15
sa(dp580
g4
I20
sg5
F0.3
sg6
F0.2
sg7
F0.05
sg8
F0.4
sg9
I8
sg10
I8
sg11
F0.99
sg12
F0.4
sg13
I64
sg14
F0.15
sg15
I0
sg16
I2
sg17
F1.2
sg18
F0.125
sg19
F0.9
sg20
I1
sg21
g22
(g26
S'\x00\x00\x00\x00\x00\x00$@'
p581
tp582
Rp583
sg32
I10
sg33
I-1
sg34
I512
sg35
F0.8
sg36
F0.15
sg37
I1024
sg38
F0.125
sg39
g22
(g26
S'\xb8\x1e\x85\xebQ\xb8\x9e?'
p584
tp585
Rp586
sg43
F0.25
sg44
I2
sg45
F0.2
sg46
F0.1
sg47
F0.6
sg48
I6
sg49
I12
sg50
g22
(g26
S'\xb9\x1e\x85\xebQ\xb8\xbe?'
p587
tp588
Rp589
sg54
I1
sg55
I1
sg56
g57
sg58
I10
sg59
F0.1225
sg60
I1
sg61
I10
sg62
g22
(g26
S'\x00\x00\x00\x00\x00 l@'
p590
tp591
Rp592
sg66
I1
sg67
F0.2
sg68
g69
sg72
I15
sa(dp593
g4
I20
sg5
F0.3
sg6
F0.2
sg7
F0.05
sg8
F0.4
sg9
I8
sg10
I8
sg11
F0.99
sg12
F0.4
sg13
I64
sg14
F0.15
sg15
I0
sg16
I2
sg17
F1.2
sg18
F0.125
sg19
F0.9
sg20
I1
sg21
g22
(g26
S'\x00\x00\x00\x00\x00\x00&@'
p594
tp595
Rp596
sg32
I10
sg33
I-1
sg34
I512
sg35
F0.8
sg36
F0.15
sg37
I1024
sg38
F0.125
sg39
g22
(g26
S'\xb9\x1e\x85\xebQ\xb8\xae?'
p597
tp598
Rp599
sg43
F0.25
sg44
I2
sg45
F0.2
sg46
F0.1
sg47
F0.6
sg48
I6
sg49
I12
sg50
g22
(g26
S'\xb8\x1e\x85\xebQ\xb8\x9e\xbf'
p600
tp601
Rp602
sg54
I1
sg55
I1
sg56
g57
sg58
I10
sg59
F0.1225
sg60
I1
sg61
I10
sg62
g22
(g26
S'\x00\x00\x00\x00\x00 l@'
p603
tp604
Rp605
sg66
I1
sg67
F0.2
sg68
g69
sg72
I15
sa(dp606
g4
I20
sg5
F0.3
sg6
F0.2
sg7
F0.05
sg8
F0.4
sg9
I8
sg10
I8
sg11
F0.99
sg12
F0.4
sg13
I64
sg14
F0.15
sg15
I0
sg16
I2
sg17
F1.2
sg18
F0.125
sg19
F0.9
sg20
I1
sg21
g22
(g26
S'\x00\x00\x00\x00\x00\x00(@'
p607
tp608
Rp609
sg32
I10
sg33
I-1
sg34
I512
sg35
F0.8
sg36
F0.15
sg37
I1024
sg38
F0.125
sg39
g22
(g26
S'\xb9\x1e\x85\xebQ\xb8\xbe?'
p610
tp611
Rp612
sg43
F0.25
sg44
I2
sg45
F0.2
sg46
F0.1
sg47
F0.6
sg48
I6
sg49
I12
sg50
g22
(g26
S'H\xe1z\x14\xaeG\xc1?'
p613
tp614
Rp615
sg54
I1
sg55
I1
sg56
g57
sg58
I10
sg59
F0.1225
sg60
I1
sg61
I10
sg62
g22
(g26
S'\x00\x00\x00\x00\x00 l@'
p616
tp617
Rp618
sg66
I1
sg67
F0.2
sg68
g69
sg72
I15
sa(dp619
g4
I20
sg5
F0.3
sg6
F0.2
sg7
F0.05
sg8
F0.4
sg9
I8
sg10
I8
sg11
F0.99
sg12
F0.4
sg13
I64
sg14
F0.15
sg15
I0
sg16
I2
sg17
F1.2
sg18
F0.125
sg19
F0.9
sg20
I1
sg21
g22
(g26
S'\x00\x00\x00\x00\x00\x00*@'
p620
tp621
Rp622
sg32
I10
sg33
I-1
sg34
I512
sg35
F0.8
sg36
F0.15
sg37
I1024
sg38
F0.125
sg39
g22
(g26
S'\xe2z\x14\xaeG\xe1\xba?'
p623
tp624
Rp625
sg43
F0.25
sg44
I2
sg45
F0.2
sg46
F0.1
sg47
F0.6
sg48
I6
sg49
I12
sg50
g22
(g26
S'\xb8\x1e\x85\xebQ\xb8\x8e\xbf'
p626
tp627
Rp628
sg54
I1
sg55
I1
sg56
g57
sg58
I10
sg59
F0.1225
sg60
I1
sg61
I10
sg62
g22
(g26
S'\x00\x00\x00\x00\x00 l@'
p629
tp630
Rp631
sg66
I1
sg67
F0.2
sg68
g69
sg72
I15
sa(dp632
g4
I20
sg5
F0.3
sg6
F0.2
sg7
F0.05
sg8
F0.4
sg9
I8
sg10
I8
sg11
F0.99
sg12
F0.4
sg13
I64
sg14
F0.15
sg15
I0
sg16
I2
sg17
F1.2
sg18
F0.125
sg19
F0.9
sg20
I1
sg21
g22
(g26
S'\x00\x00\x00\x00\x00\x00,@'
p633
tp634
Rp635
sg32
I10
sg33
I-1
sg34
I512
sg35
F0.8
sg36
F0.15
sg37
I1024
sg38
F0.125
sg39
g22
(g26
S'\xb9\x1e\x85\xebQ\xb8\xbe?'
p636
tp637
Rp638
sg43
F0.25
sg44
I2
sg45
F0.2
sg46
F0.1
sg47
F0.6
sg48
I6
sg49
I12
sg50
g22
(g26
S'433333\xb3\xbf'
p639
tp640
Rp641
sg54
I1
sg55
I1
sg56
g57
sg58
I10
sg59
F0.1225
sg60
I1
sg61
I10
sg62
g22
(g26
S'\x00\x00\x00\x00\x00 l@'
p642
tp643
Rp644
sg66
I1
sg67
F0.2
sg68
g69
sg72
I15
sa(dp645
g4
I20
sg5
F0.3
sg6
F0.2
sg7
F0.05
sg8
F0.4
sg9
I8
sg10
I8
sg11
F0.99
sg12
F0.4
sg13
I64
sg14
F0.15
sg15
I0
sg16
I2
sg17
F1.2
sg18
F0.125
sg19
F0.9
sg20
I1
sg21
g22
(g26
S'\x00\x00\x00\x00\x00\x00.@'
p646
tp647
Rp648
sg32
I10
sg33
I-1
sg34
I512
sg35
F0.8
sg36
F0.15
sg37
I1024
sg38
F0.125
sg39
g22
(g26
S'\xb8\x1e\x85\xebQ\xb8\x9e\xbf'
p649
tp650
Rp651
sg43
F0.25
sg44
I2
sg45
F0.2
sg46
F0.1
sg47
F0.6
sg48
I6
sg49
I12
sg50
g22
(g26
S'\xb9\x1e\x85\xebQ\xb8\xae\xbf'
p652
tp653
Rp654
sg54
I1
sg55
I1
sg56
g57
sg58
I10
sg59
F0.1225
sg60
I1
sg61
I10
sg62
g22
(g26
S'\x00\x00\x00\x00\x00 l@'
p655
tp656
Rp657
sg66
I1
sg67
F0.2
sg68
g69
sg72
I15
sa(dp658
g4
I20
sg5
F0.3
sg6
F0.2
sg7
F0.05
sg8
F0.4
sg9
I8
sg10
I8
sg11
F0.99
sg12
F0.4
sg13
I64
sg14
F0.15
sg15
I0
sg16
I2
sg17
F1.2
sg18
F0.125
sg19
F0.9
sg20
I1
sg21
g22
(g26
S'\x00\x00\x00\x00\x00\x000@'
p659
tp660
Rp661
sg32
I10
sg33
I-1
sg34
I512
sg35
F0.8
sg36
F0.15
sg37
I1024
sg38
F0.125
sg39
g22
(g26
S'333333\xc3\xbf'
p662
tp663
Rp664
sg43
F0.25
sg44
I2
sg45
F0.2
sg46
F0.1
sg47
F0.6
sg48
I6
sg49
I12
sg50
g22
(g26
S'\xb8\x1e\x85\xebQ\xb8\x8e?'
p665
tp666
Rp667
sg54
I1
sg55
I1
sg56
g57
sg58
I10
sg59
F0.1225
sg60
I1
sg61
I10
sg62
g22
(g26
S'\x00\x00\x00\x00\x00 l@'
p668
tp669
Rp670
sg66
I1
sg67
F0.2
sg68
g69
sg72
I15
sa(dp671
g4
I20
sg5
F0.3
sg6
F0.2
sg7
F0.05
sg8
F0.4
sg9
I8
sg10
I8
sg11
F0.99
sg12
F0.4
sg13
I64
sg14
F0.15
sg15
I0
sg16
I2
sg17
F1.2
sg18
F0.125
sg19
F0.9
sg20
I1
sg21
g22
(g26
S'\x00\x00\x00\x00\x00\x001@'
p672
tp673
Rp674
sg32
I10
sg33
I-1
sg34
I512
sg35
F0.8
sg36
F0.15
sg37
I1024
sg38
F0.125
sg39
g22
(g26
S'\xe2z\x14\xaeG\xe1\xba?'
p675
tp676
Rp677
sg43
F0.25
sg44
I2
sg45
F0.2
sg46
F0.1
sg47
F0.6
sg48
I6
sg49
I12
sg50
g22
(g26
S'\xb9\x1e\x85\xebQ\xb8\xae?'
p678
tp679
Rp680
sg54
I1
sg55
I1
sg56
g57
sg58
I10
sg59
F0.1225
sg60
I1
sg61
I10
sg62
g22
(g26
S'\x00\x00\x00\x00\x00 l@'
p681
tp682
Rp683
sg66
I1
sg67
F0.2
sg68
g69
sg72
I15
sa(dp684
g4
I20
sg5
F0.3
sg6
F0.2
sg7
F0.05
sg8
F0.4
sg9
I8
sg10
I8
sg11
F0.99
sg12
F0.4
sg13
I64
sg14
F0.15
sg15
I0
sg16
I2
sg17
F1.2
sg18
F0.125
sg19
F0.9
sg20
I1
sg21
g22
(g26
S'\x00\x00\x00\x00\x00\x002@'
p685
tp686
Rp687
sg32
I10
sg33
I-1
sg34
I512
sg35
F0.8
sg36
F0.15
sg37
I1024
sg38
F0.125
sg39
g22
(g26
S'\xb8\x1e\x85\xebQ\xb8\x9e?'
p688
tp689
Rp690
sg43
F0.25
sg44
I2
sg45
F0.2
sg46
F0.1
sg47
F0.6
sg48
I6
sg49
I12
sg50
g22
(g26
S'\xb9\x1e\x85\xebQ\xb8\xae\xbf'
p691
tp692
Rp693
sg54
I1
sg55
I1
sg56
g57
sg58
I10
sg59
F0.1225
sg60
I1
sg61
I10
sg62
g22
(g26
S'\x00\x00\x00\x00\x00 l@'
p694
tp695
Rp696
sg66
I1
sg67
F0.2
sg68
g69
sg72
I15
sa(dp697
g4
I20
sg5
F0.3
sg6
F0.2
sg7
F0.05
sg8
F0.4
sg9
I8
sg10
I8
sg11
F0.99
sg12
F0.4
sg13
I64
sg14
F0.15
sg15
I0
sg16
I2
sg17
F1.2
sg18
F0.125
sg19
F0.9
sg20
I1
sg21
g22
(g26
S'\x00\x00\x00\x00\x00\x003@'
p698
tp699
Rp700
sg32
I10
sg33
I-1
sg34
I512
sg35
F0.8
sg36
F0.15
sg37
I1024
sg38
F0.125
sg39
g22
(g26
S'H\xe1z\x14\xaeG\xc1?'
p701
tp702
Rp703
sg43
F0.25
sg44
I2
sg45
F0.2
sg46
F0.1
sg47
F0.6
sg48
I6
sg49
I12
sg50
g22
(g26
S'\xb8\x1e\x85\xebQ\xb8\x8e?'
p704
tp705
Rp706
sg54
I1
sg55
I1
sg56
g57
sg58
I10
sg59
F0.1225
sg60
I1
sg61
I10
sg62
g22
(g26
S'\x00\x00\x00\x00\x00 l@'
p707
tp708
Rp709
sg66
I1
sg67
F0.2
sg68
g69
sg72
I15
sag697
asS'eventArray'
p710
(lp711
(lp712
S'trial 0 started at 6.8712348938'
p713
aS'trial 0 event b at 11.392455101'
p714
aS'trial 0 phase 1 started at 13.3602790833'
p715
aS'trial 0 event space at 13.3602969646'
p716
aS'trial 0 phase 2 started at 13.6099729538'
p717
aS'trial 0 phase 3 started at 13.8242111206'
p718
aa(lp719
S'trial 1 started at 14.3671329021'
p720
aS'trial 1 phase 1 started at 14.6742091179'
p721
aS'trial 1 phase 2 started at 14.9408910275'
p722
aS'trial 1 phase 3 started at 15.1409080029'
p723
aa(lp724
S'trial 2 started at 15.6800470352'
p725
aS'trial 2 phase 1 started at 15.9898979664'
p726
aS'trial 2 phase 2 started at 16.2565181255'
p727
aS'trial 2 phase 3 started at 16.4566149712'
p728
aa(lp729
S'trial 3 started at 16.9825160503'
p730
aS'trial 3 phase 1 started at 17.2908980846'
p731
aS'trial 3 phase 2 started at 17.5409839153'
p732
aS'trial 3 phase 3 started at 17.7575399876'
p733
aa(lp734
S'trial 4 started at 18.2784810066'
p735
aS'trial 4 phase 1 started at 18.5909531116'
p736
aS'trial 4 phase 2 started at 18.857585907'
p737
aS'trial 4 phase 3 started at 19.0576651096'
p738
aa(lp739
S'trial 5 started at 19.5994889736'
p740
aS'trial 5 phase 1 started at 19.9076139927'
p741
aS'trial 5 phase 2 started at 20.157640934'
p742
aS'trial 5 phase 3 started at 20.3576579094'
p743
aa(lp744
S'trial 6 started at 20.8831651211'
p745
aS'trial 6 phase 1 started at 21.1910219193'
p746
aS'trial 6 phase 2 started at 21.4577710629'
p747
aS'trial 6 phase 3 started at 21.6743609905'
p748
aa(lp749
S'trial 7 started at 22.213807106'
p750
aS'trial 7 phase 1 started at 22.5234251022'
p751
aS'trial 7 phase 2 started at 22.7900350094'
p752
aS'trial 7 phase 3 started at 22.9900491238'
p753
aa(lp754
S'trial 8 started at 23.5139451027'
p755
aS'trial 8 phase 1 started at 23.8243830204'
p756
aS'trial 8 phase 2 started at 24.0743999481'
p757
aS'trial 8 phase 3 started at 24.2744979858'
p758
aa(lp759
S'trial 9 started at 24.8111560345'
p760
aS'trial 9 phase 1 started at 25.1244609356'
p761
aS'trial 9 phase 2 started at 25.3744950294'
p762
aS'trial 9 phase 3 started at 25.5745439529'
p763
aa(lp764
S'trial 10 started at 26.1180329323'
p765
aS'trial 10 phase 1 started at 26.424478054'
p766
aS'trial 10 phase 2 started at 26.6746089458'
p767
aS'trial 10 phase 3 started at 26.8912880421'
p768
aa(lp769
S'trial 11 started at 27.430421114'
p770
aS'trial 11 phase 1 started at 27.7401649952'
p771
aS'trial 11 phase 2 started at 27.9902169704'
p772
aS'trial 11 phase 3 started at 28.1903469563'
p773
aa(lp774
S'trial 12 started at 28.712223053'
p775
aS'trial 12 phase 1 started at 29.0245649815'
p776
aS'trial 12 phase 2 started at 29.2913410664'
p777
aS'trial 12 phase 3 started at 29.5079689026'
p778
aa(lp779
S'trial 13 started at 30.0289258957'
p780
aS'trial 13 phase 1 started at 30.34136796'
p781
aS'trial 13 phase 2 started at 30.6080589294'
p782
aS'trial 13 phase 3 started at 30.8247230053'
p783
aa(lp784
S'trial 14 started at 31.3646059036'
p785
aS'trial 14 phase 1 started at 31.6737229824'
p786
aS'trial 14 phase 2 started at 31.9404211044'
p787
aS'trial 14 phase 3 started at 32.1570549011'
p788
aa(lp789
S'trial 15 started at 32.6818621159'
p790
aS'trial 15 phase 1 started at 32.9914419651'
p791
aS'trial 15 phase 2 started at 33.2580718994'
p792
aS'trial 15 phase 3 started at 33.4581239223'
p793
aa(lp794
S'trial 16 started at 34.0012190342'
p795
aS'trial 16 phase 1 started at 34.3080120087'
p796
aS'trial 16 phase 2 started at 34.5580980778'
p797
aS'trial 16 phase 3 started at 34.7581300735'
p798
aa(lp799
S'trial 17 started at 35.2827160358'
p800
aS'trial 17 phase 1 started at 35.591506958'
p801
aS'trial 17 phase 2 started at 35.8581459522'
p802
aS'trial 17 phase 3 started at 36.0748450756'
p803
aa(lp804
S'trial 18 started at 36.5956070423'
p805
aS'trial 18 phase 1 started at 36.9082360268'
p806
aS'trial 18 phase 2 started at 37.1582429409'
p807
aS'trial 18 phase 3 started at 37.3748350143'
p808
aa(lp809
S'trial 19 started at 37.9155271053'
p810
aS'trial 19 phase 1 started at 38.2238550186'
p811
aS'trial 19 phase 2 started at 38.4738879204'
p812
aS'trial 19 phase 3 started at 38.6739361286'
p813
aa(lp814
S'trial 20 started at 39.197660923'
p815
aS'trial 20 phase 1 started at 39.5082120895'
p816
aS'trial 20 phase 2 started at 39.7583220005'
p817
aS'trial 20 phase 3 started at 39.9750010967'
p818
aa(lp819
S'trial 21 started at 40.5163691044'
p820
aS'trial 21 phase 1 started at 40.8250119686'
p821
aS'trial 21 phase 2 started at 41.0916030407'
p822
aS'trial 21 phase 3 started at 41.2916369438'
p823
aa(lp824
S'trial 22 started at 41.8294091225'
p825
aS'trial 22 phase 1 started at 42.1416890621'
p826
aS'trial 22 phase 2 started at 42.4083459377'
p827
aS'trial 22 phase 3 started at 42.6083779335'
p828
aa(lp829
S'trial 23 started at 43.1517899036'
p830
aS'trial 23 phase 1 started at 43.4583749771'
p831
aS'trial 23 phase 2 started at 43.7250249386'
p832
aS'trial 23 phase 3 started at 43.9250440598'
p833
aa(lp834
S'trial 24 started at 44.463406086'
p835
aS'trial 24 phase 1 started at 44.7741260529'
p836
aS'trial 24 phase 2 started at 45.0407979488'
p837
aS'trial 24 phase 3 started at 45.2574169636'
p838
aa(lp839
S'trial 25 started at 45.7811179161'
p840
aS'trial 25 phase 1 started at 46.0917749405'
p841
aS'trial 25 phase 2 started at 46.3418490887'
p842
aS'trial 25 phase 3 started at 46.5584740639'
p843
aa(lp844
S'trial 26 started at 47.0932209492'
p845
aS'trial 26 phase 1 started at 47.4074819088'
p846
aS'trial 26 phase 2 started at 47.6741330624'
p847
aS'trial 26 phase 3 started at 47.8741750717'
p848
aa(lp849
S'trial 27 started at 48.3998119831'
p850
aS'trial 27 phase 1 started at 48.7084679604'
p851
aS'trial 27 phase 2 started at 48.9584879875'
p852
aS'trial 27 phase 3 started at 49.1585919857'
p853
aa(lp854
S'trial 28 started at 49.6783089638'
p855
aS'trial 28 phase 1 started at 49.9918930531'
p856
aS'trial 28 phase 2 started at 50.241945982'
p857
aS'trial 28 phase 3 started at 50.4585781097'
p858
aa(lp859
S'trial 29 started at 50.9958610535'
p860
aS'trial 29 phase 1 started at 51.3086690903'
p861
aS'trial 29 phase 2 started at 51.5586819649'
p862
aS'trial 29 phase 3 started at 51.7752361298'
p863
aa(lp864
S'trial 30 started at 52.2984759808'
p865
aS'trial 30 phase 1 started at 52.6086850166'
p866
aS'trial 30 phase 2 started at 52.8753829002'
p867
aS'trial 30 phase 3 started at 53.0756831169'
p868
aa(lp869
S'trial 31 started at 53.6165640354'
p870
aS'trial 31 phase 1 started at 53.9243171215'
p871
aS'trial 31 phase 2 started at 54.1910319328'
p872
aS'trial 31 phase 3 started at 54.407679081'
p873
aa(lp874
S'trial 32 started at 54.9329221249'
p875
aS'trial 32 phase 1 started at 55.2421090603'
p876
aS'trial 32 phase 2 started at 55.5087840557'
p877
aS'trial 32 phase 3 started at 55.7254350185'
p878
aa(lp879
S'trial 33 started at 56.2668969631'
p880
aS'trial 33 phase 1 started at 56.5753741264'
p881
aS'trial 33 phase 2 started at 56.8254470825'
p882
aS'trial 33 phase 3 started at 57.0254530907'
p883
aa(lp884
S'trial 34 started at 57.5650980473'
p885
aS'trial 34 phase 1 started at 57.8754789829'
p886
aS'trial 34 phase 2 started at 58.142179966'
p887
aS'trial 34 phase 3 started at 58.3588991165'
p888
aa(lp889
S'trial 35 started at 58.8963000774'
p890
aS'trial 35 phase 1 started at 59.2089021206'
p891
aS'trial 35 phase 2 started at 59.4755439758'
p892
aS'trial 35 phase 3 started at 59.6755609512'
p893
aa(lp894
S'trial 36 started at 60.2128829956'
p895
aS'trial 36 phase 1 started at 60.5246400833'
p896
aS'trial 36 phase 2 started at 60.7913000584'
p897
aS'trial 36 phase 3 started at 61.0078990459'
p898
aa(lp899
S'trial 37 started at 61.529458046'
p900
aS'trial 37 phase 1 started at 61.8422009945'
p901
aS'trial 37 phase 2 started at 62.0922830105'
p902
aS'trial 37 phase 3 started at 62.3089060783'
p903
aa(lp904
S'trial 38 started at 62.8336141109'
p905
aS'trial 38 phase 1 started at 63.1422820091'
p906
aS'trial 38 phase 2 started at 63.3923230171'
p907
aS'trial 38 phase 3 started at 63.6089940071'
p908
aa(lp909
S'trial 39 started at 64.1453719139'
p910
aS'trial 39 phase 1 started at 64.4579660892'
p911
aS'trial 39 phase 2 started at 64.7080380917'
p912
aS'trial 39 phase 3 started at 64.924654007'
p913
aa(lp914
S'trial 40 started at 65.4484069347'
p915
aS'trial 40 phase 1 started at 65.7590420246'
p916
aS'trial 40 phase 2 started at 66.0256938934'
p917
aS'trial 40 phase 3 started at 66.2257359028'
p918
aa(lp919
S'trial 41 started at 66.7506279945'
p920
aS'trial 41 phase 1 started at 67.0591289997'
p921
aS'trial 41 phase 2 started at 67.3091380596'
p922
aS'trial 41 phase 3 started at 67.5091450214'
p923
aa(lp924
S'trial 42 started at 68.0329070091'
p925
aS'trial 42 phase 1 started at 68.3424479961'
p926
aS'trial 42 phase 2 started at 68.5924949646'
p927
aS'trial 42 phase 3 started at 68.7925341129'
p928
aa(lp929
S'trial 43 started at 69.328359127'
p930
aS'trial 43 phase 1 started at 69.6414461136'
p931
aS'trial 43 phase 2 started at 69.8915328979'
p932
aS'trial 43 phase 3 started at 70.108093977'
p933
aa(lp934
S'trial 44 started at 70.6292591095'
p935
aS'trial 44 phase 1 started at 70.9424710274'
p936
aS'trial 44 phase 2 started at 71.1925299168'
p937
aS'trial 44 phase 3 started at 71.3926188946'
p938
aa(lp939
S'trial 45 started at 71.9350390434'
p940
aS'trial 45 phase 1 started at 72.2416141033'
p941
aS'trial 45 phase 2 started at 72.4916191101'
p942
aS'trial 45 phase 3 started at 72.7082419395'
p943
aa(lp944
S'trial 46 started at 73.2308459282'
p945
aS'trial 46 phase 1 started at 73.5426459312'
p946
aS'trial 46 phase 2 started at 73.8093590736'
p947
aS'trial 46 phase 3 started at 74.0259349346'
p948
aa(lp949
S'trial 47 started at 74.5501010418'
p950
aS'trial 47 phase 1 started at 74.8593719006'
p951
aS'trial 47 phase 2 started at 75.1093819141'
p952
aS'trial 47 phase 3 started at 75.3259749413'
p953
aa(lp954
S'trial 48 started at 75.8630170822'
p955
aS'trial 48 phase 1 started at 76.174998045'
p956
aS'trial 48 phase 2 started at 76.4250469208'
p957
aS'trial 48 phase 3 started at 76.6416840553'
p958
aa(lp959
S'trial 49 started at 77.1627080441'
p960
aS'trial 49 phase 1 started at 77.476197958'
p961
aS'trial 49 phase 2 started at 77.7427821159'
p962
a(lp963
I-99
aF0.5997109413146973
aaS'trial 49 event q at 77.7624719143'
p964
aag959
as.