(dp0
S'parameterArray'
p1
(lp2
(dp3
Vprf_stim_barpass_duration
p4
I20
sVblobstim_fix_opacity
p5
F0.3
sVpixstim_fix_aperture_fraction
p6
F0.2
sVblobstim_fix_ecc_min
p7
F0.05
sVpost_fix_time
p8
F0.7
sVpixstim_bg_noise_n_textures
p9
I16
sVflickerfuse
p10
I0
sVpixstim_fix_noise_n_textures
p11
I16
sVpixstim_bg_aperture_fraction
p12
F0.99
sVsize_fixation_deg
p13
F0.4
sVpixstim_fix_tex_size
p14
I64
sVfix_psychometric_curve_interval
p15
F0.18
sVin_scanner
p16
I0
sVblobstim_fix_nr_blobrows_per_ring
p17
I2
sVTR
p18
F1.5
sVblobstim_bg_opacity
p19
F0.125
sVblobstim_fix_spacing_factor
p20
F0.9
sVpixstim_fix_amplitude_exponent
p21
F1.5
sS'pos_in_bar_trajectory'
p22
cnumpy.core.multiarray
scalar
p23
(cnumpy
dtype
p24
(S'f8'
p25
I0
I1
tp26
Rp27
(I3
S'<'
p28
NNNI-1
I-1
I0
tp29
bS'\x00\x00\x00\x00\x00\x00\x00\x00'
p30
tp31
Rp32
sVfix_psychometric_curve_nr_steps_oneside
p33
I6
sS'answer'
p34
I-1
sVprf_checker_tex_nr_pix
p35
I512
sVblobstim_bg_spacing_factor
p36
F0.8
sVbg_psychometric_curve_interval
p37
F0.18
sVpixstim_bg_tex_size
p38
I1024
sVprf_checker_bar_width
p39
F0.125
sS'bg_trial_stimulus_value'
p40
g23
(g27
S'333333\xc3\xbf'
p41
tp42
Rp43
sVfix_time
p44
F0.25
sVprf_checker_cycles_in_bar
p45
I2
sVpixstim_bg_opacity
p46
F0.99
sVblobstim_bg_ecc_min
p47
F0.1
sVpixstim_fix_opacity
p48
F0.99
sVprf_checker_flicker_frequency
p49
I2
sVblobstim_bg_nr_blobrows_per_ring
p50
I12
sS'fix_trial_stimulus_value'
p51
g23
(g27
S'333333\xc3\xbf'
p52
tp53
Rp54
sVpixstim_bg_amplitude_exponent
p55
F1.5
sVwhich_stimulus_type
p56
I1
sVprf_stim_sequence_angles
p57
(lp58
I-1
aI0
aI225
aI-1
aI90
aI135
aI-1
aI180
aI45
aI-1
aI270
aI135
aI-1
asVprf_stim_blank_duration
p59
I10
sVaperture_stim_sd
p60
F0.1225
sVblobstim_bg_nr_rings
p61
I1
sVbg_psychometric_curve_nr_steps_oneside
p62
I6
sS'bar_orientation'
p63
g23
(g27
S'\x00\x00\x00\x00\x00\x00\xf0\xbf'
p64
tp65
Rp66
sVblobstim_fix_nr_ring
p67
I1
sVstim_time
p68
F0.5
sVcolor_balance
p69
I0
sVanswer_dictionary
p70
(dp71
Vj
p72
I1
sVf
p73
I0
ssVblobstim_bg_ecc_max
p74
I15
sa(dp75
g4
I20
sg5
F0.3
sg6
F0.2
sg7
F0.05
sg8
F0.7
sg9
I16
sg10
I0
sg11
I16
sg12
F0.99
sg13
F0.4
sg14
I64
sg15
F0.18
sg16
I0
sg17
I2
sg18
F1.5
sg19
F0.125
sg20
F0.9
sg21
F1.5
sg22
g23
(g27
S'\x00\x00\x00\x00\x00\x00\xf0?'
p76
tp77
Rp78
sg33
I6
sg34
I-1
sg35
I512
sg36
F0.8
sg37
F0.18
sg38
I1024
sg39
F0.125
sg40
g23
(g27
S'\xb8\x1e\x85\xebQ\xb8\xbe\xbf'
p79
tp80
Rp81
sg44
F0.25
sg45
I2
sg46
F0.99
sg47
F0.1
sg48
F0.99
sg49
I2
sg50
I12
sg51
g23
(g27
S'\xb8\x1e\x85\xebQ\xb8\xae\xbf'
p82
tp83
Rp84
sg55
F1.5
sg56
I1
sg57
g58
sg59
I10
sg60
F0.1225
sg61
I1
sg62
I6
sg63
g23
(g27
S'\x00\x00\x00\x00\x00\x00\xf0\xbf'
p85
tp86
Rp87
sg67
I1
sg68
F0.5
sg69
I0
sg70
g71
sg74
I15
sa(dp88
g4
I20
sg5
F0.3
sg6
F0.2
sg7
F0.05
sg8
F0.7
sg9
I16
sg10
I0
sg11
I16
sg12
F0.99
sg13
F0.4
sg14
I64
sg15
F0.18
sg16
I0
sg17
I2
sg18
F1.5
sg19
F0.125
sg20
F0.9
sg21
F1.5
sg22
g23
(g27
S'\x00\x00\x00\x00\x00\x00\x00@'
p89
tp90
Rp91
sg33
I6
sg34
I-1
sg35
I512
sg36
F0.8
sg37
F0.18
sg38
I1024
sg39
F0.125
sg40
g23
(g27
S'\n\xd7\xa3p=\n\xc7?'
p92
tp93
Rp94
sg44
F0.25
sg45
I2
sg46
F0.99
sg47
F0.1
sg48
F0.99
sg49
I2
sg50
I12
sg51
g23
(g27
S'333333\xc3?'
p95
tp96
Rp97
sg55
F1.5
sg56
I1
sg57
g58
sg59
I10
sg60
F0.1225
sg61
I1
sg62
I6
sg63
g23
(g27
S'\x00\x00\x00\x00\x00\x00\xf0\xbf'
p98
tp99
Rp100
sg67
I1
sg68
F0.5
sg69
I0
sg70
g71
sg74
I15
sa(dp101
g4
I20
sg5
F0.3
sg6
F0.2
sg7
F0.05
sg8
F0.7
sg9
I16
sg10
I0
sg11
I16
sg12
F0.99
sg13
F0.4
sg14
I64
sg15
F0.18
sg16
I0
sg17
I2
sg18
F1.5
sg19
F0.125
sg20
F0.9
sg21
F1.5
sg22
g23
(g27
S'\x00\x00\x00\x00\x00\x00\x08@'
p102
tp103
Rp104
sg33
I6
sg34
I-1
sg35
I512
sg36
F0.8
sg37
F0.18
sg38
I1024
sg39
F0.125
sg40
g23
(g27
S'\xb8\x1e\x85\xebQ\xb8\xae\xbf'
p105
tp106
Rp107
sg44
F0.25
sg45
I2
sg46
F0.99
sg47
F0.1
sg48
F0.99
sg49
I2
sg50
I12
sg51
g23
(g27
S'333333\xc3?'
p108
tp109
Rp110
sg55
F1.5
sg56
I1
sg57
g58
sg59
I10
sg60
F0.1225
sg61
I1
sg62
I6
sg63
g23
(g27
S'\x00\x00\x00\x00\x00\x00\xf0\xbf'
p111
tp112
Rp113
sg67
I1
sg68
F0.5
sg69
I0
sg70
g71
sg74
I15
sa(dp114
g4
I20
sg5
F0.3
sg6
F0.2
sg7
F0.05
sg8
F0.7
sg9
I16
sg10
I0
sg11
I16
sg12
F0.99
sg13
F0.4
sg14
I64
sg15
F0.18
sg16
I0
sg17
I2
sg18
F1.5
sg19
F0.125
sg20
F0.9
sg21
F1.5
sg22
g23
(g27
S'\x00\x00\x00\x00\x00\x00\x10@'
p115
tp116
Rp117
sg33
I6
sg34
I-1
sg35
I512
sg36
F0.8
sg37
F0.18
sg38
I1024
sg39
F0.125
sg40
g23
(g27
S'\n\xd7\xa3p=\n\xc7?'
p118
tp119
Rp120
sg44
F0.25
sg45
I2
sg46
F0.99
sg47
F0.1
sg48
F0.99
sg49
I2
sg50
I12
sg51
g23
(g27
S'\n\xd7\xa3p=\n\xc7\xbf'
p121
tp122
Rp123
sg55
F1.5
sg56
I1
sg57
g58
sg59
I10
sg60
F0.1225
sg61
I1
sg62
I6
sg63
g23
(g27
S'\x00\x00\x00\x00\x00\x00\xf0\xbf'
p124
tp125
Rp126
sg67
I1
sg68
F0.5
sg69
I0
sg70
g71
sg74
I15
sa(dp127
g4
I20
sg5
F0.3
sg6
F0.2
sg7
F0.05
sg8
F0.7
sg9
I16
sg10
I0
sg11
I16
sg12
F0.99
sg13
F0.4
sg14
I64
sg15
F0.18
sg16
I0
sg17
I2
sg18
F1.5
sg19
F0.125
sg20
F0.9
sg21
F1.5
sg22
g23
(g27
S'\x00\x00\x00\x00\x00\x00\x14@'
p128
tp129
Rp130
sg33
I6
sg34
I-1
sg35
I512
sg36
F0.8
sg37
F0.18
sg38
I1024
sg39
F0.125
sg40
g23
(g27
S'\n\xd7\xa3p=\n\xb7\xbf'
p131
tp132
Rp133
sg44
F0.25
sg45
I2
sg46
F0.99
sg47
F0.1
sg48
F0.99
sg49
I2
sg50
I12
sg51
g23
(g27
S'\n\xd7\xa3p=\n\xb7\xbf'
p134
tp135
Rp136
sg55
F1.5
sg56
I1
sg57
g58
sg59
I10
sg60
F0.1225
sg61
I1
sg62
I6
sg63
g23
(g27
S'\x00\x00\x00\x00\x00\x00\xf0\xbf'
p137
tp138
Rp139
sg67
I1
sg68
F0.5
sg69
I0
sg70
g71
sg74
I15
sa(dp140
g4
I20
sg5
F0.3
sg6
F0.2
sg7
F0.05
sg8
F0.7
sg9
I16
sg10
I0
sg11
I16
sg12
F0.99
sg13
F0.4
sg14
I64
sg15
F0.18
sg16
I0
sg17
I2
sg18
F1.5
sg19
F0.125
sg20
F0.9
sg21
F1.5
sg22
g23
(g27
S'\x00\x00\x00\x00\x00\x00\x18@'
p141
tp142
Rp143
sg33
I6
sg34
I-1
sg35
I512
sg36
F0.8
sg37
F0.18
sg38
I1024
sg39
F0.125
sg40
g23
(g27
S'\n\xd7\xa3p=\n\xc7\xbf'
p144
tp145
Rp146
sg44
F0.25
sg45
I2
sg46
F0.99
sg47
F0.1
sg48
F0.99
sg49
I2
sg50
I12
sg51
g23
(g27
S'\n\xd7\xa3p=\n\xc7\xbf'
p147
tp148
Rp149
sg55
F1.5
sg56
I1
sg57
g58
sg59
I10
sg60
F0.1225
sg61
I1
sg62
I6
sg63
g23
(g27
S'\x00\x00\x00\x00\x00\x00\xf0\xbf'
p150
tp151
Rp152
sg67
I1
sg68
F0.5
sg69
I0
sg70
g71
sg74
I15
sa(dp153
g4
I20
sg5
F0.3
sg6
F0.2
sg7
F0.05
sg8
F0.7
sg9
I16
sg10
I0
sg11
I16
sg12
F0.99
sg13
F0.4
sg14
I64
sg15
F0.18
sg16
I0
sg17
I2
sg18
F1.5
sg19
F0.125
sg20
F0.9
sg21
F1.5
sg22
g23
(g27
S'\x00\x00\x00\x00\x00\x00\x1c@'
p154
tp155
Rp156
sg33
I6
sg34
I-1
sg35
I512
sg36
F0.8
sg37
F0.18
sg38
I1024
sg39
F0.125
sg40
g23
(g27
S'\xb8\x1e\x85\xebQ\xb8\xbe\xbf'
p157
tp158
Rp159
sg44
F0.25
sg45
I2
sg46
F0.99
sg47
F0.1
sg48
F0.99
sg49
I2
sg50
I12
sg51
g23
(g27
S'\n\xd7\xa3p=\n\xb7?'
p160
tp161
Rp162
sg55
F1.5
sg56
I1
sg57
g58
sg59
I10
sg60
F0.1225
sg61
I1
sg62
I6
sg63
g23
(g27
S'\x00\x00\x00\x00\x00\x00\xf0\xbf'
p163
tp164
Rp165
sg67
I1
sg68
F0.5
sg69
I0
sg70
g71
sg74
I15
sag153
asS'eventArray'
p166
(lp167
(lp168
S'trial 0 started at 5.52259302139'
p169
aS'trial 0 phase 1 started at 13.8283889294'
p170
aS'trial 0 event space at 13.8283998966'
p171
aS'trial 0 phase 2 started at 14.0656158924'
p172
aS'trial 0 phase 3 started at 14.5823528767'
p173
aa(lp174
S'trial 1 started at 15.3551928997'
p175
aS'trial 1 phase 1 started at 15.3552060127'
p176
aS'trial 1 phase 2 started at 15.6158080101'
p177
aS'trial 1 phase 3 started at 16.132267952'
p178
aa(lp179
S'trial 2 started at 16.8938360214'
p180
aS'trial 2 phase 1 started at 16.893848896'
p181
aS'trial 2 phase 2 started at 17.1489880085'
p182
aS'trial 2 phase 3 started at 17.6490340233'
p183
aa(lp184
S'trial 3 started at 18.4124779701'
p185
aS'trial 3 phase 1 started at 18.4124910831'
p186
aS'trial 3 phase 2 started at 18.6657700539'
p187
aS'trial 3 phase 3 started at 19.1823000908'
p188
aa(lp189
S'trial 4 started at 19.944247961'
p190
aS'trial 4 phase 1 started at 19.944259882'
p191
aS'trial 4 phase 2 started at 20.1989679337'
p192
aS'trial 4 phase 3 started at 20.6992058754'
p193
aa(lp194
S'trial 5 started at 21.4626450539'
p195
aS'trial 5 phase 1 started at 21.4626560211'
p196
aS'trial 5 phase 2 started at 21.7158050537'
p197
aS'trial 5 phase 3 started at 22.215898037'
p198
aa(lp199
S'trial 6 started at 22.9945158958'
p200
aS'trial 6 phase 1 started at 22.9945290089'
p201
aS'trial 6 phase 2 started at 23.2493538857'
p202
aS'trial 6 phase 3 started at 23.7656569481'
p203
aa(lp204
S'trial 7 started at 24.5274438858'
p205
aS'trial 7 phase 1 started at 24.5274560452'
p206
aS'trial 7 phase 2 started at 24.7826559544'
p207
aS'trial 7 phase 3 started at 25.2990598679'
p208
a(lp209
I-99
aF0.8569090366363525
aaS'trial 7 event escape at 25.3843910694'
p210
aag204
as.