ccopy_reg
_reconstructor
p0
(cexptools.core.staircase
OneUpOneDownStaircase
p1
c__builtin__
object
p2
Ntp3
Rp4
(dp5
S'nr_reversals'
p6
I3000
sS'nr_correct'
p7
I0
sS'max_nr_trials'
p8
I12000
sS'past_answers'
p9
(lp10
sS'present_increment_value'
p11
F0.025
sS'initial_value'
p12
F0.1
sS'nr_trials'
p13
I0
sS'initial_stepsize'
p14
F0.025
sS'min_test_val'
p15
NsS'max_test_val'
p16
F0.5
sS'increment_value'
p17
F0.025
sS'stepsize_multiplication_on_reversal'
p18
F0.8
sS'test_values'
p19
(lp20
F0.1
asS'present_nr_reversals'
p21
I0
sb.