(dp0
S'parameterArray'
p1
(lp2
(dp3
Vprf_stim_barpass_duration
p4
I20
sVblobstim_fix_opacity
p5
F0.3
sVpixstim_fix_aperture_fraction
p6
F0.2
sVblobstim_fix_ecc_min
p7
F0.05
sVpost_fix_time
p8
F0.7
sVpixstim_bg_noise_n_textures
p9
I16
sVpixstim_fix_noise_n_textures
p10
I16
sVpixstim_bg_aperture_fraction
p11
F0.99
sVsize_fixation_deg
p12
F0.4
sVpixstim_fix_tex_size
p13
I64
sVfix_psychometric_curve_interval
p14
F0.18
sVin_scanner
p15
I0
sVblobstim_fix_nr_blobrows_per_ring
p16
I2
sVTR
p17
F1.5
sVblobstim_bg_opacity
p18
F0.125
sVblobstim_fix_spacing_factor
p19
F0.9
sVpixstim_fix_amplitude_exponent
p20
F1.5
sS'pos_in_bar_trajectory'
p21
cnumpy.core.multiarray
scalar
p22
(cnumpy
dtype
p23
(S'f8'
p24
I0
I1
tp25
Rp26
(I3
S'<'
p27
NNNI-1
I-1
I0
tp28
bS'\x00\x00\x00\x00\x00\x00\x00\x00'
p29
tp30
Rp31
sVfix_psychometric_curve_nr_steps_oneside
p32
I6
sS'answer'
p33
I-1
sVprf_checker_tex_nr_pix
p34
I512
sVblobstim_bg_spacing_factor
p35
F0.8
sVbg_psychometric_curve_interval
p36
F0.18
sVpixstim_bg_tex_size
p37
I1024
sVprf_checker_bar_width
p38
F0.125
sS'bg_trial_stimulus_value'
p39
g22
(g26
S'333333\xc3?'
p40
tp41
Rp42
sVfix_time
p43
F0.25
sVprf_checker_cycles_in_bar
p44
I2
sVpixstim_bg_opacity
p45
F0.05
sVblobstim_bg_ecc_min
p46
F0.1
sVpixstim_fix_opacity
p47
F0.45
sVprf_checker_flicker_frequency
p48
I2
sVblobstim_bg_nr_blobrows_per_ring
p49
I12
sS'fix_trial_stimulus_value'
p50
g22
(g26
S'\xb8\x1e\x85\xebQ\xb8\xae\xbf'
p51
tp52
Rp53
sVpixstim_bg_amplitude_exponent
p54
F1.5
sVwhich_stimulus_type
p55
I1
sVprf_stim_sequence_angles
p56
(lp57
I-1
aI0
aI225
aI-1
aI90
aI135
aI-1
aI180
aI45
aI-1
aI270
aI135
aI-1
asVprf_stim_blank_duration
p58
I10
sVaperture_stim_sd
p59
F0.1225
sVblobstim_bg_nr_rings
p60
I1
sVbg_psychometric_curve_nr_steps_oneside
p61
I6
sS'bar_orientation'
p62
g22
(g26
S'\x00\x00\x00\x00\x00\x00\xf0\xbf'
p63
tp64
Rp65
sVblobstim_fix_nr_ring
p66
I1
sVstim_time
p67
F0.5
sVcolor_balance
p68
I0
sVanswer_dictionary
p69
(dp70
Vj
p71
I1
sVf
p72
I0
ssVblobstim_bg_ecc_max
p73
I15
sa(dp74
g4
I20
sg5
F0.3
sg6
F0.2
sg7
F0.05
sg8
F0.7
sg9
I16
sg10
I16
sg11
F0.99
sg12
F0.4
sg13
I64
sg14
F0.18
sg15
I0
sg16
I2
sg17
F1.5
sg18
F0.125
sg19
F0.9
sg20
F1.5
sg21
g22
(g26
S'\x00\x00\x00\x00\x00\x00\xf0?'
p75
tp76
Rp77
sg32
I6
sg33
I-1
sg34
I512
sg35
F0.8
sg36
F0.18
sg37
I1024
sg38
F0.125
sg39
g22
(g26
S'333333\xc3\xbf'
p78
tp79
Rp80
sg43
F0.25
sg44
I2
sg45
F0.05
sg46
F0.1
sg47
F0.45
sg48
I2
sg49
I12
sg50
g22
(g26
S'\xb8\x1e\x85\xebQ\xb8\x9e\xbf'
p81
tp82
Rp83
sg54
F1.5
sg55
I1
sg56
g57
sg58
I10
sg59
F0.1225
sg60
I1
sg61
I6
sg62
g22
(g26
S'\x00\x00\x00\x00\x00\x00\xf0\xbf'
p84
tp85
Rp86
sg66
I1
sg67
F0.5
sg68
I0
sg69
g70
sg73
I15
sa(dp87
g4
I20
sg5
F0.3
sg6
F0.2
sg7
F0.05
sg8
F0.7
sg9
I16
sg10
I16
sg11
F0.99
sg12
F0.4
sg13
I64
sg14
F0.18
sg15
I0
sg16
I2
sg17
F1.5
sg18
F0.125
sg19
F0.9
sg20
F1.5
sg21
g22
(g26
S'\x00\x00\x00\x00\x00\x00\x00@'
p88
tp89
Rp90
sg32
I6
sg33
I-1
sg34
I512
sg35
F0.8
sg36
F0.18
sg37
I1024
sg38
F0.125
sg39
g22
(g26
S'\n\xd7\xa3p=\n\xb7?'
p91
tp92
Rp93
sg43
F0.25
sg44
I2
sg45
F0.05
sg46
F0.1
sg47
F0.45
sg48
I2
sg49
I12
sg50
g22
(g26
S'\xb8\x1e\x85\xebQ\xb8\xbe?'
p94
tp95
Rp96
sg54
F1.5
sg55
I1
sg56
g57
sg58
I10
sg59
F0.1225
sg60
I1
sg61
I6
sg62
g22
(g26
S'\x00\x00\x00\x00\x00\x00\xf0\xbf'
p97
tp98
Rp99
sg66
I1
sg67
F0.5
sg68
I0
sg69
g70
sg73
I15
sa(dp100
g4
I20
sg5
F0.3
sg6
F0.2
sg7
F0.05
sg8
F0.7
sg9
I16
sg10
I16
sg11
F0.99
sg12
F0.4
sg13
I64
sg14
F0.18
sg15
I0
sg16
I2
sg17
F1.5
sg18
F0.125
sg19
F0.9
sg20
F1.5
sg21
g22
(g26
S'\x00\x00\x00\x00\x00\x00\x08@'
p101
tp102
Rp103
sg32
I6
sg33
I-1
sg34
I512
sg35
F0.8
sg36
F0.18
sg37
I1024
sg38
F0.125
sg39
g22
(g26
S'\xb8\x1e\x85\xebQ\xb8\x9e?'
p104
tp105
Rp106
sg43
F0.25
sg44
I2
sg45
F0.05
sg46
F0.1
sg47
F0.45
sg48
I2
sg49
I12
sg50
g22
(g26
S'\xb8\x1e\x85\xebQ\xb8\xbe\xbf'
p107
tp108
Rp109
sg54
F1.5
sg55
I1
sg56
g57
sg58
I10
sg59
F0.1225
sg60
I1
sg61
I6
sg62
g22
(g26
S'\x00\x00\x00\x00\x00\x00\xf0\xbf'
p110
tp111
Rp112
sg66
I1
sg67
F0.5
sg68
I0
sg69
g70
sg73
I15
sa(dp113
g4
I20
sg5
F0.3
sg6
F0.2
sg7
F0.05
sg8
F0.7
sg9
I16
sg10
I16
sg11
F0.99
sg12
F0.4
sg13
I64
sg14
F0.18
sg15
I0
sg16
I2
sg17
F1.5
sg18
F0.125
sg19
F0.9
sg20
F1.5
sg21
g22
(g26
S'\x00\x00\x00\x00\x00\x00\x10@'
p114
tp115
Rp116
sg32
I6
sg33
I-1
sg34
I512
sg35
F0.8
sg36
F0.18
sg37
I1024
sg38
F0.125
sg39
g22
(g26
S'\xb8\x1e\x85\xebQ\xb8\xbe?'
p117
tp118
Rp119
sg43
F0.25
sg44
I2
sg45
F0.05
sg46
F0.1
sg47
F0.45
sg48
I2
sg49
I12
sg50
g22
(g26
S'\n\xd7\xa3p=\n\xb7\xbf'
p120
tp121
Rp122
sg54
F1.5
sg55
I1
sg56
g57
sg58
I10
sg59
F0.1225
sg60
I1
sg61
I6
sg62
g22
(g26
S'\x00\x00\x00\x00\x00\x00\xf0\xbf'
p123
tp124
Rp125
sg66
I1
sg67
F0.5
sg68
I0
sg69
g70
sg73
I15
sag113
asS'eventArray'
p126
(lp127
(lp128
S'trial 0 started at 5.37067008018'
p129
aS'trial 0 phase 1 started at 5.8871011734'
p130
aS'trial 0 event space at 5.88711714745'
p131
aS'trial 0 phase 2 started at 6.12807106972'
p132
aS'trial 0 phase 3 started at 6.64457511902'
p133
aa(lp134
S'trial 1 started at 7.42256903648'
p135
aS'trial 1 phase 1 started at 7.42258810997'
p136
aS'trial 1 phase 2 started at 7.67810511589'
p137
aS'trial 1 phase 3 started at 8.19480800629'
p138
aa(lp139
S'trial 2 started at 8.96163702011'
p140
aS'trial 2 phase 1 started at 8.96165919304'
p141
aS'trial 2 phase 2 started at 9.228110075'
p142
aS'trial 2 phase 3 started at 9.72881007195'
p143
aa(lp144
S'trial 3 started at 10.509729147'
p145
aS'trial 3 phase 1 started at 10.5097541809'
p146
aS'trial 3 phase 2 started at 10.7614400387'
p147
aS'trial 3 phase 3 started at 11.2614490986'
p148
aa(lp149
S'trial 4 started at 12.0429961681'
p150
aS'trial 4 phase 1 started at 12.0430250168'
p151
aS'trial 4 phase 2 started at 12.2947821617'
p152
aS'trial 4 phase 3 started at 12.8116700649'
p153
a(lp154
I-99
aF0.8562219142913818
aaS'trial 4 event escape at 12.8992710114'
p155
aag149
as.