(dp0
S'parameterArray'
p1
(lp2
(dp3
Vprf_stim_barpass_duration
p4
I20
sVblobstim_fix_opacity
p5
F0.3
sVpixstim_fix_aperture_fraction
p6
F0.2
sVblobstim_fix_ecc_min
p7
F0.05
sVpost_fix_time
p8
F0.7
sVpixstim_bg_noise_n_textures
p9
I16
sVpixstim_fix_noise_n_textures
p10
I16
sVpixstim_bg_aperture_fraction
p11
F0.99
sVsize_fixation_deg
p12
F0.4
sVpixstim_fix_tex_size
p13
I64
sVfix_psychometric_curve_interval
p14
F0.18
sVin_scanner
p15
I0
sVblobstim_fix_nr_blobrows_per_ring
p16
I2
sVTR
p17
F1.5
sVblobstim_bg_opacity
p18
F0.125
sVblobstim_fix_spacing_factor
p19
F0.9
sVpixstim_fix_amplitude_exponent
p20
F1.5
sS'pos_in_bar_trajectory'
p21
cnumpy.core.multiarray
scalar
p22
(cnumpy
dtype
p23
(S'f8'
p24
I0
I1
tp25
Rp26
(I3
S'<'
p27
NNNI-1
I-1
I0
tp28
bS'\x00\x00\x00\x00\x00\x00\x00\x00'
p29
tp30
Rp31
sVfix_psychometric_curve_nr_steps_oneside
p32
I6
sS'answer'
p33
I-1
sVprf_checker_tex_nr_pix
p34
I512
sVblobstim_bg_spacing_factor
p35
F0.8
sVbg_psychometric_curve_interval
p36
F0.18
sVpixstim_bg_tex_size
p37
I1024
sVprf_checker_bar_width
p38
F0.125
sS'bg_trial_stimulus_value'
p39
g22
(g26
S'\xb8\x1e\x85\xebQ\xb8\xbe?'
p40
tp41
Rp42
sVfix_time
p43
F0.25
sVprf_checker_cycles_in_bar
p44
I2
sVpixstim_bg_opacity
p45
F0.05
sVblobstim_bg_ecc_min
p46
F0.1
sVpixstim_fix_opacity
p47
F0.45
sVprf_checker_flicker_frequency
p48
I2
sVblobstim_bg_nr_blobrows_per_ring
p49
I12
sS'fix_trial_stimulus_value'
p50
g22
(g26
S'\n\xd7\xa3p=\n\xb7\xbf'
p51
tp52
Rp53
sVpixstim_bg_amplitude_exponent
p54
F1.5
sVwhich_stimulus_type
p55
I1
sVprf_stim_sequence_angles
p56
(lp57
I-1
aI0
aI225
aI-1
aI90
aI135
aI-1
aI180
aI45
aI-1
aI270
aI135
aI-1
asVprf_stim_blank_duration
p58
I10
sVaperture_stim_sd
p59
F0.1225
sVblobstim_bg_nr_rings
p60
I1
sVbg_psychometric_curve_nr_steps_oneside
p61
I6
sS'bar_orientation'
p62
g22
(g26
S'\x00\x00\x00\x00\x00\x00\xf0\xbf'
p63
tp64
Rp65
sVblobstim_fix_nr_ring
p66
I1
sVstim_time
p67
F0.5
sVcolor_balance
p68
I0
sVanswer_dictionary
p69
(dp70
Vj
p71
I1
sVf
p72
I0
ssVblobstim_bg_ecc_max
p73
I15
sag3
asS'eventArray'
p74
(lp75
(lp76
S'trial 0 started at 5.25085878372'
p77
aS'trial 0 phase 1 started at 9.68524479866'
p78
aS'trial 0 event space at 9.68525886536'
p79
aS'trial 0 event lshift at 9.77410888672'
p80
aS'trial 0 event less at 9.89237189293'
p81
aS'trial 0 phase 2 started at 9.9223549366'
p82
aS'trial 0 phase 3 started at 10.4229409695'
p83
a(lp84
I-99
aF5.39204216003418
aaS'trial 0 event escape at 10.6429729462'
p85
aag76
as.