ccopy_reg
_reconstructor
p0
(cexptools.core.staircase
OneUpOneDownStaircase
p1
c__builtin__
object
p2
Ntp3
Rp4
(dp5
S'nr_reversals'
p6
I3000
sS'nr_correct'
p7
I0
sS'max_nr_trials'
p8
I12000
sS'past_answers'
p9
(lp10
I0
aI1
aI1
aI1
aI1
aI1
aI1
aI0
aI0
aI0
aI0
aI0
aI0
aI1
aI1
aI1
aI1
aI1
aI0
aI1
aI1
aI0
aI0
aI1
aI0
aI0
aI0
aI0
aI0
aI0
aI1
aI1
aI1
aI1
aI1
aI0
aI1
aI0
aI0
aI0
aI1
aI1
aI0
aI1
aI0
aI0
aI1
aI0
aI1
aI1
aI0
aI1
aI0
aI0
aI0
aI0
aI1
aI1
aI0
aI0
aI1
aI0
aI0
aI0
aI0
aI0
aI1
aI1
aI0
aI0
aI1
aI0
aI1
aI0
aI1
aI1
aI0
aI1
aI0
aI1
aI1
aI0
aI1
aI0
asS'present_increment_value'
p11
F0.0005764607523034242
sS'initial_value'
p12
F0.2
sS'nr_trials'
p13
I84
sS'initial_stepsize'
p14
F0.05
sS'min_test_val'
p15
NsS'max_test_val'
p16
F0.5
sS'increment_value'
p17
F0.05
sS'stepsize_multiplication_on_reversal'
p18
F0.8
sS'test_values'
p19
(lp20
F0.2
aF0.25
aF0.2
aF0.15000000000000002
aF0.10000000000000002
aF0.05000000000000002
aF1.3877787807814457e-17
aF-0.04999999999999999
aF1.3877787807814457e-17
aF0.04000000000000002
aF0.08000000000000003
aF0.12000000000000004
aF0.16000000000000003
aF0.20000000000000004
aF0.16000000000000003
aF0.12000000000000002
aF0.08000000000000002
aF0.04000000000000001
aF0.0
aF0.04000000000000001
aF0.008
aF-0.024000000000000007
aF0.008
aF0.033600000000000005
aF0.007999999999999997
aF0.033600000000000005
aF0.05408000000000002
aF0.07456000000000003
aF0.09504000000000004
aF0.11552000000000005
aF0.13600000000000007
aF0.11552000000000005
aF0.09504000000000004
aF0.07456000000000003
aF0.05408000000000002
aF0.033600000000000005
aF0.05408000000000002
aF0.03769600000000001
aF0.05408000000000002
aF0.06718720000000003
aF0.08029440000000004
aF0.06718720000000003
aF0.054080000000000024
aF0.06718720000000003
aF0.05670144000000003
aF0.06718720000000003
aF0.07557580800000004
aF0.06718720000000003
aF0.07557580800000004
aF0.06886492160000003
aF0.06215403520000003
aF0.06886492160000003
aF0.06349621248000002
aF0.06886492160000003
aF0.07315988889600003
aF0.07745485619200003
aF0.08174982348800003
aF0.07745485619200003
aF0.07315988889600003
aF0.07745485619200003
aF0.08089083002880003
aF0.07745485619200003
aF0.08089083002880003
aF0.08363960909824003
aF0.08638838816768003
aF0.08913716723712004
aF0.09188594630656004
aF0.08913716723712004
aF0.08638838816768003
aF0.08913716723712004
aF0.09133619049267204
aF0.08913716723712004
aF0.09133619049267204
aF0.08957697188823044
aF0.09133619049267204
aF0.08992881560911876
aF0.08852144072556549
aF0.08992881560911876
aF0.08880291570227614
aF0.08992881560911876
aF0.08902809568364467
aF0.08812737575817058
aF0.08902809568364467
aF0.0883075197432654
aF0.08902809568364467
asS'present_nr_reversals'
p21
I40
sb.