(dp0
S'parameterArray'
p1
(lp2
(dp3
Vprf_stim_barpass_duration
p4
I20
sVblobstim_fix_opacity
p5
F0.3
sVpixstim_fix_aperture_fraction
p6
F0.2
sVblobstim_fix_ecc_min
p7
F0.05
sVpost_fix_time
p8
F0.7
sVpixstim_bg_noise_n_textures
p9
I16
sVflickerfuse
p10
I0
sVpixstim_fix_noise_n_textures
p11
I16
sVpixstim_bg_aperture_fraction
p12
F0.99
sVsize_fixation_deg
p13
F0.4
sVpixstim_fix_tex_size
p14
I64
sVfix_psychometric_curve_interval
p15
F0.18
sVin_scanner
p16
I0
sVblobstim_fix_nr_blobrows_per_ring
p17
I2
sVTR
p18
F1.5
sVblobstim_bg_opacity
p19
F0.125
sVblobstim_fix_spacing_factor
p20
F0.9
sVpixstim_fix_amplitude_exponent
p21
F1.5
sS'pos_in_bar_trajectory'
p22
cnumpy.core.multiarray
scalar
p23
(cnumpy
dtype
p24
(S'f8'
p25
I0
I1
tp26
Rp27
(I3
S'<'
p28
NNNI-1
I-1
I0
tp29
bS'\x00\x00\x00\x00\x00\x00\x00\x00'
p30
tp31
Rp32
sVfix_psychometric_curve_nr_steps_oneside
p33
I6
sS'answer'
p34
I-1
sVprf_checker_tex_nr_pix
p35
I512
sVblobstim_bg_spacing_factor
p36
F0.8
sVbg_psychometric_curve_interval
p37
F0.18
sVpixstim_bg_tex_size
p38
I1024
sVprf_checker_bar_width
p39
F0.125
sS'bg_trial_stimulus_value'
p40
g23
(g27
S'333333\xc3\xbf'
p41
tp42
Rp43
sVfix_time
p44
F0.25
sVprf_checker_cycles_in_bar
p45
I2
sVpixstim_bg_opacity
p46
F0.99
sVblobstim_bg_ecc_min
p47
F0.1
sVpixstim_fix_opacity
p48
F0.99
sVprf_checker_flicker_frequency
p49
I2
sVblobstim_bg_nr_blobrows_per_ring
p50
I12
sS'fix_trial_stimulus_value'
p51
g23
(g27
S'\xb8\x1e\x85\xebQ\xb8\xbe?'
p52
tp53
Rp54
sVpixstim_bg_amplitude_exponent
p55
F1.5
sVwhich_stimulus_type
p56
I1
sVprf_stim_sequence_angles
p57
(lp58
I-1
aI0
aI225
aI-1
aI90
aI135
aI-1
aI180
aI45
aI-1
aI270
aI135
aI-1
asVprf_stim_blank_duration
p59
I10
sVaperture_stim_sd
p60
F0.1225
sVblobstim_bg_nr_rings
p61
I1
sVbg_psychometric_curve_nr_steps_oneside
p62
I6
sS'bar_orientation'
p63
g23
(g27
S'\x00\x00\x00\x00\x00\x00\xf0\xbf'
p64
tp65
Rp66
sVblobstim_fix_nr_ring
p67
I1
sVstim_time
p68
F0.5
sVcolor_balance
p69
I0
sVanswer_dictionary
p70
(dp71
Vj
p72
I1
sVf
p73
I0
ssVblobstim_bg_ecc_max
p74
I15
sa(dp75
g4
I20
sg5
F0.3
sg6
F0.2
sg7
F0.05
sg8
F0.7
sg9
I16
sg10
I0
sg11
I16
sg12
F0.99
sg13
F0.4
sg14
I64
sg15
F0.18
sg16
I0
sg17
I2
sg18
F1.5
sg19
F0.125
sg20
F0.9
sg21
F1.5
sg22
g23
(g27
S'\x00\x00\x00\x00\x00\x00\xf0?'
p76
tp77
Rp78
sg33
I6
sg34
I-1
sg35
I512
sg36
F0.8
sg37
F0.18
sg38
I1024
sg39
F0.125
sg40
g23
(g27
S'\xb8\x1e\x85\xebQ\xb8\xae\xbf'
p79
tp80
Rp81
sg44
F0.25
sg45
I2
sg46
F0.99
sg47
F0.1
sg48
F0.99
sg49
I2
sg50
I12
sg51
g23
(g27
S'\n\xd7\xa3p=\n\xc7\xbf'
p82
tp83
Rp84
sg55
F1.5
sg56
I1
sg57
g58
sg59
I10
sg60
F0.1225
sg61
I1
sg62
I6
sg63
g23
(g27
S'\x00\x00\x00\x00\x00\x00\xf0\xbf'
p85
tp86
Rp87
sg67
I1
sg68
F0.5
sg69
I0
sg70
g71
sg74
I15
sa(dp88
g4
I20
sg5
F0.3
sg6
F0.2
sg7
F0.05
sg8
F0.7
sg9
I16
sg10
I0
sg11
I16
sg12
F0.99
sg13
F0.4
sg14
I64
sg15
F0.18
sg16
I0
sg17
I2
sg18
F1.5
sg19
F0.125
sg20
F0.9
sg21
F1.5
sg22
g23
(g27
S'\x00\x00\x00\x00\x00\x00\x00@'
p89
tp90
Rp91
sg33
I6
sg34
I-1
sg35
I512
sg36
F0.8
sg37
F0.18
sg38
I1024
sg39
F0.125
sg40
g23
(g27
S'\n\xd7\xa3p=\n\xb7?'
p92
tp93
Rp94
sg44
F0.25
sg45
I2
sg46
F0.99
sg47
F0.1
sg48
F0.99
sg49
I2
sg50
I12
sg51
g23
(g27
S'\n\xd7\xa3p=\n\xb7\xbf'
p95
tp96
Rp97
sg55
F1.5
sg56
I1
sg57
g58
sg59
I10
sg60
F0.1225
sg61
I1
sg62
I6
sg63
g23
(g27
S'\x00\x00\x00\x00\x00\x00\xf0\xbf'
p98
tp99
Rp100
sg67
I1
sg68
F0.5
sg69
I0
sg70
g71
sg74
I15
sa(dp101
g4
I20
sg5
F0.3
sg6
F0.2
sg7
F0.05
sg8
F0.7
sg9
I16
sg10
I0
sg11
I16
sg12
F0.99
sg13
F0.4
sg14
I64
sg15
F0.18
sg16
I0
sg17
I2
sg18
F1.5
sg19
F0.125
sg20
F0.9
sg21
F1.5
sg22
g23
(g27
S'\x00\x00\x00\x00\x00\x00\x08@'
p102
tp103
Rp104
sg33
I6
sg34
I-1
sg35
I512
sg36
F0.8
sg37
F0.18
sg38
I1024
sg39
F0.125
sg40
g23
(g27
S'333333\xc3\xbf'
p105
tp106
Rp107
sg44
F0.25
sg45
I2
sg46
F0.99
sg47
F0.1
sg48
F0.99
sg49
I2
sg50
I12
sg51
g23
(g27
S'\n\xd7\xa3p=\n\xc7\xbf'
p108
tp109
Rp110
sg55
F1.5
sg56
I1
sg57
g58
sg59
I10
sg60
F0.1225
sg61
I1
sg62
I6
sg63
g23
(g27
S'\x00\x00\x00\x00\x00\x00\xf0\xbf'
p111
tp112
Rp113
sg67
I1
sg68
F0.5
sg69
I0
sg70
g71
sg74
I15
sa(dp114
g4
I20
sg5
F0.3
sg6
F0.2
sg7
F0.05
sg8
F0.7
sg9
I16
sg10
I0
sg11
I16
sg12
F0.99
sg13
F0.4
sg14
I64
sg15
F0.18
sg16
I0
sg17
I2
sg18
F1.5
sg19
F0.125
sg20
F0.9
sg21
F1.5
sg22
g23
(g27
S'\x00\x00\x00\x00\x00\x00\x10@'
p115
tp116
Rp117
sg33
I6
sg34
I-1
sg35
I512
sg36
F0.8
sg37
F0.18
sg38
I1024
sg39
F0.125
sg40
g23
(g27
S'\n\xd7\xa3p=\n\xb7\xbf'
p118
tp119
Rp120
sg44
F0.25
sg45
I2
sg46
F0.99
sg47
F0.1
sg48
F0.99
sg49
I2
sg50
I12
sg51
g23
(g27
S'\n\xd7\xa3p=\n\xb7\xbf'
p121
tp122
Rp123
sg55
F1.5
sg56
I1
sg57
g58
sg59
I10
sg60
F0.1225
sg61
I1
sg62
I6
sg63
g23
(g27
S'\x00\x00\x00\x00\x00\x00\xf0\xbf'
p124
tp125
Rp126
sg67
I1
sg68
F0.5
sg69
I0
sg70
g71
sg74
I15
sa(dp127
g4
I20
sg5
F0.3
sg6
F0.2
sg7
F0.05
sg8
F0.7
sg9
I16
sg10
I0
sg11
I16
sg12
F0.99
sg13
F0.4
sg14
I64
sg15
F0.18
sg16
I0
sg17
I2
sg18
F1.5
sg19
F0.125
sg20
F0.9
sg21
F1.5
sg22
g23
(g27
S'\x00\x00\x00\x00\x00\x00\x14@'
p128
tp129
Rp130
sg33
I6
sg34
I-1
sg35
I512
sg36
F0.8
sg37
F0.18
sg38
I1024
sg39
F0.125
sg40
g23
(g27
S'333333\xc3\xbf'
p131
tp132
Rp133
sg44
F0.25
sg45
I2
sg46
F0.99
sg47
F0.1
sg48
F0.99
sg49
I2
sg50
I12
sg51
g23
(g27
S'\xb8\x1e\x85\xebQ\xb8\x9e\xbf'
p134
tp135
Rp136
sg55
F1.5
sg56
I1
sg57
g58
sg59
I10
sg60
F0.1225
sg61
I1
sg62
I6
sg63
g23
(g27
S'\x00\x00\x00\x00\x00\x00\xf0\xbf'
p137
tp138
Rp139
sg67
I1
sg68
F0.5
sg69
I0
sg70
g71
sg74
I15
sa(dp140
g4
I20
sg5
F0.3
sg6
F0.2
sg7
F0.05
sg8
F0.7
sg9
I16
sg10
I0
sg11
I16
sg12
F0.99
sg13
F0.4
sg14
I64
sg15
F0.18
sg16
I0
sg17
I2
sg18
F1.5
sg19
F0.125
sg20
F0.9
sg21
F1.5
sg22
g23
(g27
S'\x00\x00\x00\x00\x00\x00\x18@'
p141
tp142
Rp143
sg33
I6
sg34
I-1
sg35
I512
sg36
F0.8
sg37
F0.18
sg38
I1024
sg39
F0.125
sg40
g23
(g27
S'\xb8\x1e\x85\xebQ\xb8\x9e?'
p144
tp145
Rp146
sg44
F0.25
sg45
I2
sg46
F0.99
sg47
F0.1
sg48
F0.99
sg49
I2
sg50
I12
sg51
g23
(g27
S'\xb8\x1e\x85\xebQ\xb8\x9e?'
p147
tp148
Rp149
sg55
F1.5
sg56
I1
sg57
g58
sg59
I10
sg60
F0.1225
sg61
I1
sg62
I6
sg63
g23
(g27
S'\x00\x00\x00\x00\x00\x00\xf0\xbf'
p150
tp151
Rp152
sg67
I1
sg68
F0.5
sg69
I0
sg70
g71
sg74
I15
sa(dp153
g4
I20
sg5
F0.3
sg6
F0.2
sg7
F0.05
sg8
F0.7
sg9
I16
sg10
I0
sg11
I16
sg12
F0.99
sg13
F0.4
sg14
I64
sg15
F0.18
sg16
I0
sg17
I2
sg18
F1.5
sg19
F0.125
sg20
F0.9
sg21
F1.5
sg22
g23
(g27
S'\x00\x00\x00\x00\x00\x00\x1c@'
p154
tp155
Rp156
sg33
I6
sg34
I-1
sg35
I512
sg36
F0.8
sg37
F0.18
sg38
I1024
sg39
F0.125
sg40
g23
(g27
S'\xb8\x1e\x85\xebQ\xb8\xae?'
p157
tp158
Rp159
sg44
F0.25
sg45
I2
sg46
F0.99
sg47
F0.1
sg48
F0.99
sg49
I2
sg50
I12
sg51
g23
(g27
S'\xb8\x1e\x85\xebQ\xb8\xbe?'
p160
tp161
Rp162
sg55
F1.5
sg56
I1
sg57
g58
sg59
I10
sg60
F0.1225
sg61
I1
sg62
I6
sg63
g23
(g27
S'\x00\x00\x00\x00\x00\x00\xf0\xbf'
p163
tp164
Rp165
sg67
I1
sg68
F0.5
sg69
I0
sg70
g71
sg74
I15
sa(dp166
g4
I20
sg5
F0.3
sg6
F0.2
sg7
F0.05
sg8
F0.7
sg9
I16
sg10
I0
sg11
I16
sg12
F0.99
sg13
F0.4
sg14
I64
sg15
F0.18
sg16
I0
sg17
I2
sg18
F1.5
sg19
F0.125
sg20
F0.9
sg21
F1.5
sg22
g23
(g27
S'\x00\x00\x00\x00\x00\x00 @'
p167
tp168
Rp169
sg33
I6
sg34
I-1
sg35
I512
sg36
F0.8
sg37
F0.18
sg38
I1024
sg39
F0.125
sg40
g23
(g27
S'\n\xd7\xa3p=\n\xc7\xbf'
p170
tp171
Rp172
sg44
F0.25
sg45
I2
sg46
F0.99
sg47
F0.1
sg48
F0.99
sg49
I2
sg50
I12
sg51
g23
(g27
S'\n\xd7\xa3p=\n\xb7\xbf'
p173
tp174
Rp175
sg55
F1.5
sg56
I1
sg57
g58
sg59
I10
sg60
F0.1225
sg61
I1
sg62
I6
sg63
g23
(g27
S'\x00\x00\x00\x00\x00\x00\xf0\xbf'
p176
tp177
Rp178
sg67
I1
sg68
F0.5
sg69
I0
sg70
g71
sg74
I15
sa(dp179
g4
I20
sg5
F0.3
sg6
F0.2
sg7
F0.05
sg8
F0.7
sg9
I16
sg10
I0
sg11
I16
sg12
F0.99
sg13
F0.4
sg14
I64
sg15
F0.18
sg16
I0
sg17
I2
sg18
F1.5
sg19
F0.125
sg20
F0.9
sg21
F1.5
sg22
g23
(g27
S'\x00\x00\x00\x00\x00\x00"@'
p180
tp181
Rp182
sg33
I6
sg34
I-1
sg35
I512
sg36
F0.8
sg37
F0.18
sg38
I1024
sg39
F0.125
sg40
g23
(g27
S'\xb8\x1e\x85\xebQ\xb8\xbe\xbf'
p183
tp184
Rp185
sg44
F0.25
sg45
I2
sg46
F0.99
sg47
F0.1
sg48
F0.99
sg49
I2
sg50
I12
sg51
g23
(g27
S'\xb8\x1e\x85\xebQ\xb8\x9e?'
p186
tp187
Rp188
sg55
F1.5
sg56
I1
sg57
g58
sg59
I10
sg60
F0.1225
sg61
I1
sg62
I6
sg63
g23
(g27
S'\x00\x00\x00\x00\x00\x00\xf0\xbf'
p189
tp190
Rp191
sg67
I1
sg68
F0.5
sg69
I0
sg70
g71
sg74
I15
sa(dp192
g4
I20
sg5
F0.3
sg6
F0.2
sg7
F0.05
sg8
F0.7
sg9
I16
sg10
I0
sg11
I16
sg12
F0.99
sg13
F0.4
sg14
I64
sg15
F0.18
sg16
I0
sg17
I2
sg18
F1.5
sg19
F0.125
sg20
F0.9
sg21
F1.5
sg22
g23
(g27
S'\x00\x00\x00\x00\x00\x00\x00\x00'
p193
tp194
Rp195
sg33
I6
sg34
I-1
sg35
I512
sg36
F0.8
sg37
F0.18
sg38
I1024
sg39
F0.125
sg40
g23
(g27
S'\n\xd7\xa3p=\n\xc7\xbf'
p196
tp197
Rp198
sg44
F0.25
sg45
I2
sg46
F0.99
sg47
F0.1
sg48
F0.99
sg49
I2
sg50
I12
sg51
g23
(g27
S'\n\xd7\xa3p=\n\xb7?'
p199
tp200
Rp201
sg55
F1.5
sg56
I1
sg57
g58
sg59
I10
sg60
F0.1225
sg61
I1
sg62
I6
sg63
g23
(g27
S'\x00\x00\x00\x00\x00\x00\x00\x00'
p202
tp203
Rp204
sg67
I1
sg68
F0.5
sg69
I0
sg70
g71
sg74
I15
sa(dp205
g4
I20
sg5
F0.3
sg6
F0.2
sg7
F0.05
sg8
F0.7
sg9
I16
sg10
I0
sg11
I16
sg12
F0.99
sg13
F0.4
sg14
I64
sg15
F0.18
sg16
I0
sg17
I2
sg18
F1.5
sg19
F0.125
sg20
F0.9
sg21
F1.5
sg22
g23
(g27
S'\x00\x00\x00\x00\x00\x00\xf0?'
p206
tp207
Rp208
sg33
I6
sg34
I-1
sg35
I512
sg36
F0.8
sg37
F0.18
sg38
I1024
sg39
F0.125
sg40
g23
(g27
S'\xb8\x1e\x85\xebQ\xb8\x9e?'
p209
tp210
Rp211
sg44
F0.25
sg45
I2
sg46
F0.99
sg47
F0.1
sg48
F0.99
sg49
I2
sg50
I12
sg51
g23
(g27
S'333333\xc3\xbf'
p212
tp213
Rp214
sg55
F1.5
sg56
I1
sg57
g58
sg59
I10
sg60
F0.1225
sg61
I1
sg62
I6
sg63
g23
(g27
S'\x00\x00\x00\x00\x00\x00\x00\x00'
p215
tp216
Rp217
sg67
I1
sg68
F0.5
sg69
I0
sg70
g71
sg74
I15
sa(dp218
g4
I20
sg5
F0.3
sg6
F0.2
sg7
F0.05
sg8
F0.7
sg9
I16
sg10
I0
sg11
I16
sg12
F0.99
sg13
F0.4
sg14
I64
sg15
F0.18
sg16
I0
sg17
I2
sg18
F1.5
sg19
F0.125
sg20
F0.9
sg21
F1.5
sg22
g23
(g27
S'\x00\x00\x00\x00\x00\x00\x00@'
p219
tp220
Rp221
sg33
I6
sg34
I-1
sg35
I512
sg36
F0.8
sg37
F0.18
sg38
I1024
sg39
F0.125
sg40
g23
(g27
S'\n\xd7\xa3p=\n\xc7\xbf'
p222
tp223
Rp224
sg44
F0.25
sg45
I2
sg46
F0.99
sg47
F0.1
sg48
F0.99
sg49
I2
sg50
I12
sg51
g23
(g27
S'\xb8\x1e\x85\xebQ\xb8\xbe\xbf'
p225
tp226
Rp227
sg55
F1.5
sg56
I1
sg57
g58
sg59
I10
sg60
F0.1225
sg61
I1
sg62
I6
sg63
g23
(g27
S'\x00\x00\x00\x00\x00\x00\x00\x00'
p228
tp229
Rp230
sg67
I1
sg68
F0.5
sg69
I0
sg70
g71
sg74
I15
sa(dp231
g4
I20
sg5
F0.3
sg6
F0.2
sg7
F0.05
sg8
F0.7
sg9
I16
sg10
I0
sg11
I16
sg12
F0.99
sg13
F0.4
sg14
I64
sg15
F0.18
sg16
I0
sg17
I2
sg18
F1.5
sg19
F0.125
sg20
F0.9
sg21
F1.5
sg22
g23
(g27
S'\x00\x00\x00\x00\x00\x00\x08@'
p232
tp233
Rp234
sg33
I6
sg34
I-1
sg35
I512
sg36
F0.8
sg37
F0.18
sg38
I1024
sg39
F0.125
sg40
g23
(g27
S'\xb8\x1e\x85\xebQ\xb8\xae?'
p235
tp236
Rp237
sg44
F0.25
sg45
I2
sg46
F0.99
sg47
F0.1
sg48
F0.99
sg49
I2
sg50
I12
sg51
g23
(g27
S'\xb8\x1e\x85\xebQ\xb8\xae?'
p238
tp239
Rp240
sg55
F1.5
sg56
I1
sg57
g58
sg59
I10
sg60
F0.1225
sg61
I1
sg62
I6
sg63
g23
(g27
S'\x00\x00\x00\x00\x00\x00\x00\x00'
p241
tp242
Rp243
sg67
I1
sg68
F0.5
sg69
I0
sg70
g71
sg74
I15
sa(dp244
g4
I20
sg5
F0.3
sg6
F0.2
sg7
F0.05
sg8
F0.7
sg9
I16
sg10
I0
sg11
I16
sg12
F0.99
sg13
F0.4
sg14
I64
sg15
F0.18
sg16
I0
sg17
I2
sg18
F1.5
sg19
F0.125
sg20
F0.9
sg21
F1.5
sg22
g23
(g27
S'\x00\x00\x00\x00\x00\x00\x10@'
p245
tp246
Rp247
sg33
I6
sg34
I-1
sg35
I512
sg36
F0.8
sg37
F0.18
sg38
I1024
sg39
F0.125
sg40
g23
(g27
S'\xb8\x1e\x85\xebQ\xb8\x9e?'
p248
tp249
Rp250
sg44
F0.25
sg45
I2
sg46
F0.99
sg47
F0.1
sg48
F0.99
sg49
I2
sg50
I12
sg51
g23
(g27
S'333333\xc3\xbf'
p251
tp252
Rp253
sg55
F1.5
sg56
I1
sg57
g58
sg59
I10
sg60
F0.1225
sg61
I1
sg62
I6
sg63
g23
(g27
S'\x00\x00\x00\x00\x00\x00\x00\x00'
p254
tp255
Rp256
sg67
I1
sg68
F0.5
sg69
I0
sg70
g71
sg74
I15
sa(dp257
g4
I20
sg5
F0.3
sg6
F0.2
sg7
F0.05
sg8
F0.7
sg9
I16
sg10
I0
sg11
I16
sg12
F0.99
sg13
F0.4
sg14
I64
sg15
F0.18
sg16
I0
sg17
I2
sg18
F1.5
sg19
F0.125
sg20
F0.9
sg21
F1.5
sg22
g23
(g27
S'\x00\x00\x00\x00\x00\x00\x14@'
p258
tp259
Rp260
sg33
I6
sg34
I-1
sg35
I512
sg36
F0.8
sg37
F0.18
sg38
I1024
sg39
F0.125
sg40
g23
(g27
S'\n\xd7\xa3p=\n\xc7\xbf'
p261
tp262
Rp263
sg44
F0.25
sg45
I2
sg46
F0.99
sg47
F0.1
sg48
F0.99
sg49
I2
sg50
I12
sg51
g23
(g27
S'333333\xc3\xbf'
p264
tp265
Rp266
sg55
F1.5
sg56
I1
sg57
g58
sg59
I10
sg60
F0.1225
sg61
I1
sg62
I6
sg63
g23
(g27
S'\x00\x00\x00\x00\x00\x00\x00\x00'
p267
tp268
Rp269
sg67
I1
sg68
F0.5
sg69
I0
sg70
g71
sg74
I15
sa(dp270
g4
I20
sg5
F0.3
sg6
F0.2
sg7
F0.05
sg8
F0.7
sg9
I16
sg10
I0
sg11
I16
sg12
F0.99
sg13
F0.4
sg14
I64
sg15
F0.18
sg16
I0
sg17
I2
sg18
F1.5
sg19
F0.125
sg20
F0.9
sg21
F1.5
sg22
g23
(g27
S'\x00\x00\x00\x00\x00\x00\x18@'
p271
tp272
Rp273
sg33
I6
sg34
I-1
sg35
I512
sg36
F0.8
sg37
F0.18
sg38
I1024
sg39
F0.125
sg40
g23
(g27
S'\xb8\x1e\x85\xebQ\xb8\x9e\xbf'
p274
tp275
Rp276
sg44
F0.25
sg45
I2
sg46
F0.99
sg47
F0.1
sg48
F0.99
sg49
I2
sg50
I12
sg51
g23
(g27
S'\n\xd7\xa3p=\n\xb7?'
p277
tp278
Rp279
sg55
F1.5
sg56
I1
sg57
g58
sg59
I10
sg60
F0.1225
sg61
I1
sg62
I6
sg63
g23
(g27
S'\x00\x00\x00\x00\x00\x00\x00\x00'
p280
tp281
Rp282
sg67
I1
sg68
F0.5
sg69
I0
sg70
g71
sg74
I15
sa(dp283
g4
I20
sg5
F0.3
sg6
F0.2
sg7
F0.05
sg8
F0.7
sg9
I16
sg10
I0
sg11
I16
sg12
F0.99
sg13
F0.4
sg14
I64
sg15
F0.18
sg16
I0
sg17
I2
sg18
F1.5
sg19
F0.125
sg20
F0.9
sg21
F1.5
sg22
g23
(g27
S'\x00\x00\x00\x00\x00\x00\x1c@'
p284
tp285
Rp286
sg33
I6
sg34
I-1
sg35
I512
sg36
F0.8
sg37
F0.18
sg38
I1024
sg39
F0.125
sg40
g23
(g27
S'\xb8\x1e\x85\xebQ\xb8\xbe?'
p287
tp288
Rp289
sg44
F0.25
sg45
I2
sg46
F0.99
sg47
F0.1
sg48
F0.99
sg49
I2
sg50
I12
sg51
g23
(g27
S'\n\xd7\xa3p=\n\xc7\xbf'
p290
tp291
Rp292
sg55
F1.5
sg56
I1
sg57
g58
sg59
I10
sg60
F0.1225
sg61
I1
sg62
I6
sg63
g23
(g27
S'\x00\x00\x00\x00\x00\x00\x00\x00'
p293
tp294
Rp295
sg67
I1
sg68
F0.5
sg69
I0
sg70
g71
sg74
I15
sa(dp296
g4
I20
sg5
F0.3
sg6
F0.2
sg7
F0.05
sg8
F0.7
sg9
I16
sg10
I0
sg11
I16
sg12
F0.99
sg13
F0.4
sg14
I64
sg15
F0.18
sg16
I0
sg17
I2
sg18
F1.5
sg19
F0.125
sg20
F0.9
sg21
F1.5
sg22
g23
(g27
S'\x00\x00\x00\x00\x00\x00 @'
p297
tp298
Rp299
sg33
I6
sg34
I-1
sg35
I512
sg36
F0.8
sg37
F0.18
sg38
I1024
sg39
F0.125
sg40
g23
(g27
S'\xb8\x1e\x85\xebQ\xb8\xae?'
p300
tp301
Rp302
sg44
F0.25
sg45
I2
sg46
F0.99
sg47
F0.1
sg48
F0.99
sg49
I2
sg50
I12
sg51
g23
(g27
S'\n\xd7\xa3p=\n\xb7\xbf'
p303
tp304
Rp305
sg55
F1.5
sg56
I1
sg57
g58
sg59
I10
sg60
F0.1225
sg61
I1
sg62
I6
sg63
g23
(g27
S'\x00\x00\x00\x00\x00\x00\x00\x00'
p306
tp307
Rp308
sg67
I1
sg68
F0.5
sg69
I0
sg70
g71
sg74
I15
sa(dp309
g4
I20
sg5
F0.3
sg6
F0.2
sg7
F0.05
sg8
F0.7
sg9
I16
sg10
I0
sg11
I16
sg12
F0.99
sg13
F0.4
sg14
I64
sg15
F0.18
sg16
I0
sg17
I2
sg18
F1.5
sg19
F0.125
sg20
F0.9
sg21
F1.5
sg22
g23
(g27
S'\x00\x00\x00\x00\x00\x00"@'
p310
tp311
Rp312
sg33
I6
sg34
I-1
sg35
I512
sg36
F0.8
sg37
F0.18
sg38
I1024
sg39
F0.125
sg40
g23
(g27
S'\xb8\x1e\x85\xebQ\xb8\xbe\xbf'
p313
tp314
Rp315
sg44
F0.25
sg45
I2
sg46
F0.99
sg47
F0.1
sg48
F0.99
sg49
I2
sg50
I12
sg51
g23
(g27
S'\xb8\x1e\x85\xebQ\xb8\xbe?'
p316
tp317
Rp318
sg55
F1.5
sg56
I1
sg57
g58
sg59
I10
sg60
F0.1225
sg61
I1
sg62
I6
sg63
g23
(g27
S'\x00\x00\x00\x00\x00\x00\x00\x00'
p319
tp320
Rp321
sg67
I1
sg68
F0.5
sg69
I0
sg70
g71
sg74
I15
sa(dp322
g4
I20
sg5
F0.3
sg6
F0.2
sg7
F0.05
sg8
F0.7
sg9
I16
sg10
I0
sg11
I16
sg12
F0.99
sg13
F0.4
sg14
I64
sg15
F0.18
sg16
I0
sg17
I2
sg18
F1.5
sg19
F0.125
sg20
F0.9
sg21
F1.5
sg22
g23
(g27
S'\x00\x00\x00\x00\x00\x00$@'
p323
tp324
Rp325
sg33
I6
sg34
I-1
sg35
I512
sg36
F0.8
sg37
F0.18
sg38
I1024
sg39
F0.125
sg40
g23
(g27
S'\xb8\x1e\x85\xebQ\xb8\xbe?'
p326
tp327
Rp328
sg44
F0.25
sg45
I2
sg46
F0.99
sg47
F0.1
sg48
F0.99
sg49
I2
sg50
I12
sg51
g23
(g27
S'\xb8\x1e\x85\xebQ\xb8\xae?'
p329
tp330
Rp331
sg55
F1.5
sg56
I1
sg57
g58
sg59
I10
sg60
F0.1225
sg61
I1
sg62
I6
sg63
g23
(g27
S'\x00\x00\x00\x00\x00\x00\x00\x00'
p332
tp333
Rp334
sg67
I1
sg68
F0.5
sg69
I0
sg70
g71
sg74
I15
sa(dp335
g4
I20
sg5
F0.3
sg6
F0.2
sg7
F0.05
sg8
F0.7
sg9
I16
sg10
I0
sg11
I16
sg12
F0.99
sg13
F0.4
sg14
I64
sg15
F0.18
sg16
I0
sg17
I2
sg18
F1.5
sg19
F0.125
sg20
F0.9
sg21
F1.5
sg22
g23
(g27
S'\x00\x00\x00\x00\x00\x00&@'
p336
tp337
Rp338
sg33
I6
sg34
I-1
sg35
I512
sg36
F0.8
sg37
F0.18
sg38
I1024
sg39
F0.125
sg40
g23
(g27
S'\n\xd7\xa3p=\n\xc7\xbf'
p339
tp340
Rp341
sg44
F0.25
sg45
I2
sg46
F0.99
sg47
F0.1
sg48
F0.99
sg49
I2
sg50
I12
sg51
g23
(g27
S'\n\xd7\xa3p=\n\xc7?'
p342
tp343
Rp344
sg55
F1.5
sg56
I1
sg57
g58
sg59
I10
sg60
F0.1225
sg61
I1
sg62
I6
sg63
g23
(g27
S'\x00\x00\x00\x00\x00\x00\x00\x00'
p345
tp346
Rp347
sg67
I1
sg68
F0.5
sg69
I0
sg70
g71
sg74
I15
sa(dp348
g4
I20
sg5
F0.3
sg6
F0.2
sg7
F0.05
sg8
F0.7
sg9
I16
sg10
I0
sg11
I16
sg12
F0.99
sg13
F0.4
sg14
I64
sg15
F0.18
sg16
I0
sg17
I2
sg18
F1.5
sg19
F0.125
sg20
F0.9
sg21
F1.5
sg22
g23
(g27
S'\x00\x00\x00\x00\x00\x00(@'
p349
tp350
Rp351
sg33
I6
sg34
I-1
sg35
I512
sg36
F0.8
sg37
F0.18
sg38
I1024
sg39
F0.125
sg40
g23
(g27
S'333333\xc3\xbf'
p352
tp353
Rp354
sg44
F0.25
sg45
I2
sg46
F0.99
sg47
F0.1
sg48
F0.99
sg49
I2
sg50
I12
sg51
g23
(g27
S'\n\xd7\xa3p=\n\xc7?'
p355
tp356
Rp357
sg55
F1.5
sg56
I1
sg57
g58
sg59
I10
sg60
F0.1225
sg61
I1
sg62
I6
sg63
g23
(g27
S'\x00\x00\x00\x00\x00\x00\x00\x00'
p358
tp359
Rp360
sg67
I1
sg68
F0.5
sg69
I0
sg70
g71
sg74
I15
sa(dp361
g4
I20
sg5
F0.3
sg6
F0.2
sg7
F0.05
sg8
F0.7
sg9
I16
sg10
I0
sg11
I16
sg12
F0.99
sg13
F0.4
sg14
I64
sg15
F0.18
sg16
I0
sg17
I2
sg18
F1.5
sg19
F0.125
sg20
F0.9
sg21
F1.5
sg22
g23
(g27
S'\x00\x00\x00\x00\x00\x00*@'
p362
tp363
Rp364
sg33
I6
sg34
I-1
sg35
I512
sg36
F0.8
sg37
F0.18
sg38
I1024
sg39
F0.125
sg40
g23
(g27
S'\xb8\x1e\x85\xebQ\xb8\x9e?'
p365
tp366
Rp367
sg44
F0.25
sg45
I2
sg46
F0.99
sg47
F0.1
sg48
F0.99
sg49
I2
sg50
I12
sg51
g23
(g27
S'\xb8\x1e\x85\xebQ\xb8\xbe\xbf'
p368
tp369
Rp370
sg55
F1.5
sg56
I1
sg57
g58
sg59
I10
sg60
F0.1225
sg61
I1
sg62
I6
sg63
g23
(g27
S'\x00\x00\x00\x00\x00\x00\x00\x00'
p371
tp372
Rp373
sg67
I1
sg68
F0.5
sg69
I0
sg70
g71
sg74
I15
sa(dp374
g4
I20
sg5
F0.3
sg6
F0.2
sg7
F0.05
sg8
F0.7
sg9
I16
sg10
I0
sg11
I16
sg12
F0.99
sg13
F0.4
sg14
I64
sg15
F0.18
sg16
I0
sg17
I2
sg18
F1.5
sg19
F0.125
sg20
F0.9
sg21
F1.5
sg22
g23
(g27
S'\x00\x00\x00\x00\x00\x00,@'
p375
tp376
Rp377
sg33
I6
sg34
I-1
sg35
I512
sg36
F0.8
sg37
F0.18
sg38
I1024
sg39
F0.125
sg40
g23
(g27
S'\xb8\x1e\x85\xebQ\xb8\xae?'
p378
tp379
Rp380
sg44
F0.25
sg45
I2
sg46
F0.99
sg47
F0.1
sg48
F0.99
sg49
I2
sg50
I12
sg51
g23
(g27
S'\xb8\x1e\x85\xebQ\xb8\x9e?'
p381
tp382
Rp383
sg55
F1.5
sg56
I1
sg57
g58
sg59
I10
sg60
F0.1225
sg61
I1
sg62
I6
sg63
g23
(g27
S'\x00\x00\x00\x00\x00\x00\x00\x00'
p384
tp385
Rp386
sg67
I1
sg68
F0.5
sg69
I0
sg70
g71
sg74
I15
sa(dp387
g4
I20
sg5
F0.3
sg6
F0.2
sg7
F0.05
sg8
F0.7
sg9
I16
sg10
I0
sg11
I16
sg12
F0.99
sg13
F0.4
sg14
I64
sg15
F0.18
sg16
I0
sg17
I2
sg18
F1.5
sg19
F0.125
sg20
F0.9
sg21
F1.5
sg22
g23
(g27
S'\x00\x00\x00\x00\x00\x00.@'
p388
tp389
Rp390
sg33
I6
sg34
I-1
sg35
I512
sg36
F0.8
sg37
F0.18
sg38
I1024
sg39
F0.125
sg40
g23
(g27
S'\xb8\x1e\x85\xebQ\xb8\xbe?'
p391
tp392
Rp393
sg44
F0.25
sg45
I2
sg46
F0.99
sg47
F0.1
sg48
F0.99
sg49
I2
sg50
I12
sg51
g23
(g27
S'333333\xc3?'
p394
tp395
Rp396
sg55
F1.5
sg56
I1
sg57
g58
sg59
I10
sg60
F0.1225
sg61
I1
sg62
I6
sg63
g23
(g27
S'\x00\x00\x00\x00\x00\x00\x00\x00'
p397
tp398
Rp399
sg67
I1
sg68
F0.5
sg69
I0
sg70
g71
sg74
I15
sa(dp400
g4
I20
sg5
F0.3
sg6
F0.2
sg7
F0.05
sg8
F0.7
sg9
I16
sg10
I0
sg11
I16
sg12
F0.99
sg13
F0.4
sg14
I64
sg15
F0.18
sg16
I0
sg17
I2
sg18
F1.5
sg19
F0.125
sg20
F0.9
sg21
F1.5
sg22
g23
(g27
S'\x00\x00\x00\x00\x00\x000@'
p401
tp402
Rp403
sg33
I6
sg34
I-1
sg35
I512
sg36
F0.8
sg37
F0.18
sg38
I1024
sg39
F0.125
sg40
g23
(g27
S'\xb8\x1e\x85\xebQ\xb8\xae?'
p404
tp405
Rp406
sg44
F0.25
sg45
I2
sg46
F0.99
sg47
F0.1
sg48
F0.99
sg49
I2
sg50
I12
sg51
g23
(g27
S'\n\xd7\xa3p=\n\xb7?'
p407
tp408
Rp409
sg55
F1.5
sg56
I1
sg57
g58
sg59
I10
sg60
F0.1225
sg61
I1
sg62
I6
sg63
g23
(g27
S'\x00\x00\x00\x00\x00\x00\x00\x00'
p410
tp411
Rp412
sg67
I1
sg68
F0.5
sg69
I0
sg70
g71
sg74
I15
sa(dp413
g4
I20
sg5
F0.3
sg6
F0.2
sg7
F0.05
sg8
F0.7
sg9
I16
sg10
I0
sg11
I16
sg12
F0.99
sg13
F0.4
sg14
I64
sg15
F0.18
sg16
I0
sg17
I2
sg18
F1.5
sg19
F0.125
sg20
F0.9
sg21
F1.5
sg22
g23
(g27
S'\x00\x00\x00\x00\x00\x001@'
p414
tp415
Rp416
sg33
I6
sg34
I-1
sg35
I512
sg36
F0.8
sg37
F0.18
sg38
I1024
sg39
F0.125
sg40
g23
(g27
S'\xb8\x1e\x85\xebQ\xb8\xbe\xbf'
p417
tp418
Rp419
sg44
F0.25
sg45
I2
sg46
F0.99
sg47
F0.1
sg48
F0.99
sg49
I2
sg50
I12
sg51
g23
(g27
S'\xb8\x1e\x85\xebQ\xb8\xbe?'
p420
tp421
Rp422
sg55
F1.5
sg56
I1
sg57
g58
sg59
I10
sg60
F0.1225
sg61
I1
sg62
I6
sg63
g23
(g27
S'\x00\x00\x00\x00\x00\x00\x00\x00'
p423
tp424
Rp425
sg67
I1
sg68
F0.5
sg69
I0
sg70
g71
sg74
I15
sa(dp426
g4
I20
sg5
F0.3
sg6
F0.2
sg7
F0.05
sg8
F0.7
sg9
I16
sg10
I0
sg11
I16
sg12
F0.99
sg13
F0.4
sg14
I64
sg15
F0.18
sg16
I0
sg17
I2
sg18
F1.5
sg19
F0.125
sg20
F0.9
sg21
F1.5
sg22
g23
(g27
S'\x00\x00\x00\x00\x00\x002@'
p427
tp428
Rp429
sg33
I6
sg34
I-1
sg35
I512
sg36
F0.8
sg37
F0.18
sg38
I1024
sg39
F0.125
sg40
g23
(g27
S'333333\xc3?'
p430
tp431
Rp432
sg44
F0.25
sg45
I2
sg46
F0.99
sg47
F0.1
sg48
F0.99
sg49
I2
sg50
I12
sg51
g23
(g27
S'\n\xd7\xa3p=\n\xc7\xbf'
p433
tp434
Rp435
sg55
F1.5
sg56
I1
sg57
g58
sg59
I10
sg60
F0.1225
sg61
I1
sg62
I6
sg63
g23
(g27
S'\x00\x00\x00\x00\x00\x00\x00\x00'
p436
tp437
Rp438
sg67
I1
sg68
F0.5
sg69
I0
sg70
g71
sg74
I15
sa(dp439
g4
I20
sg5
F0.3
sg6
F0.2
sg7
F0.05
sg8
F0.7
sg9
I16
sg10
I0
sg11
I16
sg12
F0.99
sg13
F0.4
sg14
I64
sg15
F0.18
sg16
I0
sg17
I2
sg18
F1.5
sg19
F0.125
sg20
F0.9
sg21
F1.5
sg22
g23
(g27
S'\x00\x00\x00\x00\x00\x003@'
p440
tp441
Rp442
sg33
I6
sg34
I-1
sg35
I512
sg36
F0.8
sg37
F0.18
sg38
I1024
sg39
F0.125
sg40
g23
(g27
S'\xb8\x1e\x85\xebQ\xb8\xae\xbf'
p443
tp444
Rp445
sg44
F0.25
sg45
I2
sg46
F0.99
sg47
F0.1
sg48
F0.99
sg49
I2
sg50
I12
sg51
g23
(g27
S'\xb8\x1e\x85\xebQ\xb8\xbe?'
p446
tp447
Rp448
sg55
F1.5
sg56
I1
sg57
g58
sg59
I10
sg60
F0.1225
sg61
I1
sg62
I6
sg63
g23
(g27
S'\x00\x00\x00\x00\x00\x00\x00\x00'
p449
tp450
Rp451
sg67
I1
sg68
F0.5
sg69
I0
sg70
g71
sg74
I15
sa(dp452
g4
I20
sg5
F0.3
sg6
F0.2
sg7
F0.05
sg8
F0.7
sg9
I16
sg10
I0
sg11
I16
sg12
F0.99
sg13
F0.4
sg14
I64
sg15
F0.18
sg16
I0
sg17
I2
sg18
F1.5
sg19
F0.125
sg20
F0.9
sg21
F1.5
sg22
g23
(g27
S'\x00\x00\x00\x00\x00\x00\x00\x00'
p453
tp454
Rp455
sg33
I6
sg34
I-1
sg35
I512
sg36
F0.8
sg37
F0.18
sg38
I1024
sg39
F0.125
sg40
g23
(g27
S'333333\xc3\xbf'
p456
tp457
Rp458
sg44
F0.25
sg45
I2
sg46
F0.99
sg47
F0.1
sg48
F0.99
sg49
I2
sg50
I12
sg51
g23
(g27
S'\xb8\x1e\x85\xebQ\xb8\x9e\xbf'
p459
tp460
Rp461
sg55
F1.5
sg56
I1
sg57
g58
sg59
I10
sg60
F0.1225
sg61
I1
sg62
I6
sg63
g23
(g27
S'\x00\x00\x00\x00\x00 l@'
p462
tp463
Rp464
sg67
I1
sg68
F0.5
sg69
I0
sg70
g71
sg74
I15
sa(dp465
g4
I20
sg5
F0.3
sg6
F0.2
sg7
F0.05
sg8
F0.7
sg9
I16
sg10
I0
sg11
I16
sg12
F0.99
sg13
F0.4
sg14
I64
sg15
F0.18
sg16
I0
sg17
I2
sg18
F1.5
sg19
F0.125
sg20
F0.9
sg21
F1.5
sg22
g23
(g27
S'\x00\x00\x00\x00\x00\x00\xf0?'
p466
tp467
Rp468
sg33
I6
sg34
I-1
sg35
I512
sg36
F0.8
sg37
F0.18
sg38
I1024
sg39
F0.125
sg40
g23
(g27
S'\xb8\x1e\x85\xebQ\xb8\xae\xbf'
p469
tp470
Rp471
sg44
F0.25
sg45
I2
sg46
F0.99
sg47
F0.1
sg48
F0.99
sg49
I2
sg50
I12
sg51
g23
(g27
S'\xb8\x1e\x85\xebQ\xb8\xae\xbf'
p472
tp473
Rp474
sg55
F1.5
sg56
I1
sg57
g58
sg59
I10
sg60
F0.1225
sg61
I1
sg62
I6
sg63
g23
(g27
S'\x00\x00\x00\x00\x00 l@'
p475
tp476
Rp477
sg67
I1
sg68
F0.5
sg69
I0
sg70
g71
sg74
I15
sa(dp478
g4
I20
sg5
F0.3
sg6
F0.2
sg7
F0.05
sg8
F0.7
sg9
I16
sg10
I0
sg11
I16
sg12
F0.99
sg13
F0.4
sg14
I64
sg15
F0.18
sg16
I0
sg17
I2
sg18
F1.5
sg19
F0.125
sg20
F0.9
sg21
F1.5
sg22
g23
(g27
S'\x00\x00\x00\x00\x00\x00\x00@'
p479
tp480
Rp481
sg33
I6
sg34
I-1
sg35
I512
sg36
F0.8
sg37
F0.18
sg38
I1024
sg39
F0.125
sg40
g23
(g27
S'\n\xd7\xa3p=\n\xb7?'
p482
tp483
Rp484
sg44
F0.25
sg45
I2
sg46
F0.99
sg47
F0.1
sg48
F0.99
sg49
I2
sg50
I12
sg51
g23
(g27
S'\xb8\x1e\x85\xebQ\xb8\xae?'
p485
tp486
Rp487
sg55
F1.5
sg56
I1
sg57
g58
sg59
I10
sg60
F0.1225
sg61
I1
sg62
I6
sg63
g23
(g27
S'\x00\x00\x00\x00\x00 l@'
p488
tp489
Rp490
sg67
I1
sg68
F0.5
sg69
I0
sg70
g71
sg74
I15
sa(dp491
g4
I20
sg5
F0.3
sg6
F0.2
sg7
F0.05
sg8
F0.7
sg9
I16
sg10
I0
sg11
I16
sg12
F0.99
sg13
F0.4
sg14
I64
sg15
F0.18
sg16
I0
sg17
I2
sg18
F1.5
sg19
F0.125
sg20
F0.9
sg21
F1.5
sg22
g23
(g27
S'\x00\x00\x00\x00\x00\x00\x08@'
p492
tp493
Rp494
sg33
I6
sg34
I-1
sg35
I512
sg36
F0.8
sg37
F0.18
sg38
I1024
sg39
F0.125
sg40
g23
(g27
S'\n\xd7\xa3p=\n\xb7?'
p495
tp496
Rp497
sg44
F0.25
sg45
I2
sg46
F0.99
sg47
F0.1
sg48
F0.99
sg49
I2
sg50
I12
sg51
g23
(g27
S'\xb8\x1e\x85\xebQ\xb8\xae?'
p498
tp499
Rp500
sg55
F1.5
sg56
I1
sg57
g58
sg59
I10
sg60
F0.1225
sg61
I1
sg62
I6
sg63
g23
(g27
S'\x00\x00\x00\x00\x00 l@'
p501
tp502
Rp503
sg67
I1
sg68
F0.5
sg69
I0
sg70
g71
sg74
I15
sa(dp504
g4
I20
sg5
F0.3
sg6
F0.2
sg7
F0.05
sg8
F0.7
sg9
I16
sg10
I0
sg11
I16
sg12
F0.99
sg13
F0.4
sg14
I64
sg15
F0.18
sg16
I0
sg17
I2
sg18
F1.5
sg19
F0.125
sg20
F0.9
sg21
F1.5
sg22
g23
(g27
S'\x00\x00\x00\x00\x00\x00\x10@'
p505
tp506
Rp507
sg33
I6
sg34
I-1
sg35
I512
sg36
F0.8
sg37
F0.18
sg38
I1024
sg39
F0.125
sg40
g23
(g27
S'\n\xd7\xa3p=\n\xc7?'
p508
tp509
Rp510
sg44
F0.25
sg45
I2
sg46
F0.99
sg47
F0.1
sg48
F0.99
sg49
I2
sg50
I12
sg51
g23
(g27
S'\n\xd7\xa3p=\n\xb7\xbf'
p511
tp512
Rp513
sg55
F1.5
sg56
I1
sg57
g58
sg59
I10
sg60
F0.1225
sg61
I1
sg62
I6
sg63
g23
(g27
S'\x00\x00\x00\x00\x00 l@'
p514
tp515
Rp516
sg67
I1
sg68
F0.5
sg69
I0
sg70
g71
sg74
I15
sa(dp517
g4
I20
sg5
F0.3
sg6
F0.2
sg7
F0.05
sg8
F0.7
sg9
I16
sg10
I0
sg11
I16
sg12
F0.99
sg13
F0.4
sg14
I64
sg15
F0.18
sg16
I0
sg17
I2
sg18
F1.5
sg19
F0.125
sg20
F0.9
sg21
F1.5
sg22
g23
(g27
S'\x00\x00\x00\x00\x00\x00\x14@'
p518
tp519
Rp520
sg33
I6
sg34
I-1
sg35
I512
sg36
F0.8
sg37
F0.18
sg38
I1024
sg39
F0.125
sg40
g23
(g27
S'\xb8\x1e\x85\xebQ\xb8\x9e\xbf'
p521
tp522
Rp523
sg44
F0.25
sg45
I2
sg46
F0.99
sg47
F0.1
sg48
F0.99
sg49
I2
sg50
I12
sg51
g23
(g27
S'333333\xc3?'
p524
tp525
Rp526
sg55
F1.5
sg56
I1
sg57
g58
sg59
I10
sg60
F0.1225
sg61
I1
sg62
I6
sg63
g23
(g27
S'\x00\x00\x00\x00\x00 l@'
p527
tp528
Rp529
sg67
I1
sg68
F0.5
sg69
I0
sg70
g71
sg74
I15
sag517
asS'eventArray'
p530
(lp531
(lp532
S'trial 0 started at 5.70902705193'
p533
aS'trial 0 phase 1 started at 14.5468170643'
p534
aS'trial 0 event space at 14.5468268394'
p535
aS'trial 0 phase 2 started at 14.7861340046'
p536
aS'trial 0 phase 3 started at 15.3027758598'
p537
aa(lp538
S'trial 1 started at 16.0777390003'
p539
aS'trial 1 phase 1 started at 16.0777509212'
p540
aS'trial 1 phase 2 started at 16.3362259865'
p541
aS'trial 1 phase 3 started at 16.8528659344'
p542
aa(lp543
S'trial 2 started at 17.6201920509'
p544
aS'trial 2 phase 1 started at 17.6202058792'
p545
aS'trial 2 phase 2 started at 17.8864250183'
p546
aS'trial 2 phase 3 started at 18.4028069973'
p547
aa(lp548
S'trial 3 started at 19.1664559841'
p549
aS'trial 3 phase 1 started at 19.166467905'
p550
aS'trial 3 phase 2 started at 19.4194788933'
p551
aS'trial 3 phase 3 started at 19.9195549488'
p552
aa(lp553
S'trial 4 started at 20.6831409931'
p554
aS'trial 4 phase 1 started at 20.6831538677'
p555
aS'trial 4 phase 2 started at 20.9363069534'
p556
aS'trial 4 phase 3 started at 21.4528689384'
p557
aa(lp558
S'trial 5 started at 22.2203419209'
p559
aS'trial 5 phase 1 started at 22.2203660011'
p560
aS'trial 5 phase 2 started at 22.4862258434'
p561
aS'trial 5 phase 3 started at 22.9862699509'
p562
aa(lp563
S'trial 6 started at 23.7669000626'
p564
aS'trial 6 phase 1 started at 23.7669579983'
p565
aS'trial 6 phase 2 started at 24.0196528435'
p566
aS'trial 6 phase 3 started at 24.5361959934'
p567
aa(lp568
S'trial 7 started at 25.2997448444'
p569
aS'trial 7 phase 1 started at 25.2997620106'
p570
aS'trial 7 phase 2 started at 25.5529010296'
p571
aS'trial 7 phase 3 started at 26.0693759918'
p572
aa(lp573
S'trial 8 started at 26.8313589096'
p574
aS'trial 8 phase 1 started at 26.831371069'
p575
aS'trial 8 phase 2 started at 27.08624506'
p576
aS'trial 8 phase 3 started at 27.5863070488'
p577
aa(lp578
S'trial 9 started at 28.3515539169'
p579
aS'trial 9 phase 1 started at 28.35156703'
p580
aS'trial 9 phase 2 started at 28.6029238701'
p581
aS'trial 9 phase 3 started at 29.103055954'
p582
aa(lp583
S'trial 10 started at 29.8698420525'
p584
aS'trial 10 phase 1 started at 29.8698580265'
p585
aS'trial 10 phase 2 started at 30.1363070011'
p586
aS'trial 10 phase 3 started at 30.6529328823'
p587
aa(lp588
S'trial 11 started at 31.4192559719'
p589
aS'trial 11 phase 1 started at 31.4192700386'
p590
aS'trial 11 phase 2 started at 31.6695890427'
p591
aS'trial 11 phase 3 started at 32.1696488857'
p592
aa(lp593
S'trial 12 started at 32.9363498688'
p594
aS'trial 12 phase 1 started at 32.9363658428'
p595
aS'trial 12 phase 2 started at 33.2030220032'
p596
aS'trial 12 phase 3 started at 33.7030520439'
p597
aa(lp598
S'trial 13 started at 34.4689650536'
p599
aS'trial 13 phase 1 started at 34.4689788818'
p600
aS'trial 13 phase 2 started at 34.7197020054'
p601
aS'trial 13 phase 3 started at 35.236191988'
p602
aa(lp603
S'trial 14 started at 36.0014739037'
p604
aS'trial 14 phase 1 started at 36.0014920235'
p605
aS'trial 14 phase 2 started at 36.2532808781'
p606
aS'trial 14 phase 3 started at 36.7699780464'
p607
aa(lp608
S'trial 15 started at 37.5366668701'
p609
aS'trial 15 phase 1 started at 37.5366809368'
p610
aS'trial 15 phase 2 started at 37.8030948639'
p611
aS'trial 15 phase 3 started at 38.3032000065'
p612
aa(lp613
S'trial 16 started at 39.0712649822'
p614
aS'trial 16 phase 1 started at 39.0712790489'
p615
aS'trial 16 phase 2 started at 39.3363909721'
p616
aS'trial 16 phase 3 started at 39.8530960083'
p617
aa(lp618
S'trial 17 started at 40.6328890324'
p619
aS'trial 17 phase 1 started at 40.632901907'
p620
aS'trial 17 phase 2 started at 40.8864459991'
p621
aS'trial 17 phase 3 started at 41.4031369686'
p622
aa(lp623
S'trial 18 started at 42.1711330414'
p624
aS'trial 18 phase 1 started at 42.1711468697'
p625
aS'trial 18 phase 2 started at 42.4364049435'
p626
aS'trial 18 phase 3 started at 42.9364190102'
p627
aa(lp628
S'trial 19 started at 43.7002229691'
p629
aS'trial 19 phase 1 started at 43.7002358437'
p630
aS'trial 19 phase 2 started at 43.9530739784'
p631
aS'trial 19 phase 3 started at 44.4531078339'
p632
aa(lp633
S'trial 20 started at 45.2318229675'
p634
aS'trial 20 phase 1 started at 45.2318348885'
p635
aS'trial 20 phase 2 started at 45.4865338802'
p636
aS'trial 20 phase 3 started at 46.0031340122'
p637
aa(lp638
S'trial 21 started at 46.7682869434'
p639
aS'trial 21 phase 1 started at 46.7683088779'
p640
aS'trial 21 phase 2 started at 47.0197379589'
p641
aS'trial 21 phase 3 started at 47.519826889'
p642
aa(lp643
S'trial 22 started at 48.2997379303'
p644
aS'trial 22 phase 1 started at 48.2997510433'
p645
aS'trial 22 phase 2 started at 48.5531928539'
p646
aS'trial 22 phase 3 started at 49.0698809624'
p647
aa(lp648
S'trial 23 started at 49.8505189419'
p649
aS'trial 23 phase 1 started at 49.8506028652'
p650
aS'trial 23 phase 2 started at 50.1031420231'
p651
aS'trial 23 phase 3 started at 50.6199109554'
p652
aa(lp653
S'trial 24 started at 51.3842148781'
p654
aS'trial 24 phase 1 started at 51.3842298985'
p655
aS'trial 24 phase 2 started at 51.6365170479'
p656
aS'trial 24 phase 3 started at 52.1531648636'
p657
aa(lp658
S'trial 25 started at 52.9198579788'
p659
aS'trial 25 phase 1 started at 52.9198729992'
p660
aS'trial 25 phase 2 started at 53.1698930264'
p661
aS'trial 25 phase 3 started at 53.670156002'
p662
aa(lp663
S'trial 26 started at 54.4546089172'
p664
aS'trial 26 phase 1 started at 54.4546208382'
p665
aS'trial 26 phase 2 started at 54.719935894'
p666
aS'trial 26 phase 3 started at 55.2200438976'
p667
aa(lp668
S'trial 27 started at 55.9880399704'
p669
aS'trial 27 phase 1 started at 55.9880518913'
p670
aS'trial 27 phase 2 started at 56.2532148361'
p671
aS'trial 27 phase 3 started at 56.7534730434'
p672
aa(lp673
S'trial 28 started at 57.5331139565'
p674
aS'trial 28 phase 1 started at 57.5331308842'
p675
aS'trial 28 phase 2 started at 57.7866990566'
p676
aS'trial 28 phase 3 started at 58.3032400608'
p677
aa(lp678
S'trial 29 started at 59.0843930244'
p679
aS'trial 29 phase 1 started at 59.0844080448'
p680
aS'trial 29 phase 2 started at 59.336578846'
p681
aS'trial 29 phase 3 started at 59.8532528877'
p682
aa(lp683
S'trial 30 started at 60.6210730076'
p684
aS'trial 30 phase 1 started at 60.6210858822'
p685
aS'trial 30 phase 2 started at 60.8868968487'
p686
aS'trial 30 phase 3 started at 61.4032540321'
p687
aa(lp688
S'trial 31 started at 62.1661188602'
p689
aS'trial 31 phase 1 started at 62.1661429405'
p690
aS'trial 31 phase 2 started at 62.4199249744'
p691
aS'trial 31 phase 3 started at 62.9200069904'
p692
aa(lp693
S'trial 32 started at 63.693614006'
p694
aS'trial 32 phase 1 started at 63.693625927'
p695
aS'trial 32 phase 2 started at 63.9533920288'
p696
aS'trial 32 phase 3 started at 64.4700360298'
p697
aa(lp698
S'trial 33 started at 65.2513649464'
p699
aS'trial 33 phase 1 started at 65.2513790131'
p700
aS'trial 33 phase 2 started at 65.5032939911'
p701
aS'trial 33 phase 3 started at 66.0034918785'
p702
aa(lp703
S'trial 34 started at 66.7709898949'
p704
aS'trial 34 phase 1 started at 66.7710030079'
p705
aS'trial 34 phase 2 started at 67.0367689133'
p706
aS'trial 34 phase 3 started at 67.5532610416'
p707
aa(lp708
S'trial 35 started at 68.3175728321'
p709
aS'trial 35 phase 1 started at 68.3175878525'
p710
aS'trial 35 phase 2 started at 68.5699858665'
p711
aS'trial 35 phase 3 started at 69.0700080395'
p712
a(lp713
I-99
aF1.1550061702728271
aaS'trial 35 event escape at 69.472630024'
p714
aag708
as.