(dp0
S'parameterArray'
p1
(lp2
(dp3
Vprf_stim_barpass_duration
p4
I20
sVblobstim_fix_opacity
p5
F0.3
sVpixstim_fix_aperture_fraction
p6
F0.2
sVblobstim_fix_ecc_min
p7
F0.05
sVpost_fix_time
p8
F0.7
sVpixstim_bg_noise_n_textures
p9
I16
sVpixstim_fix_noise_n_textures
p10
I16
sVpixstim_bg_aperture_fraction
p11
F0.99
sVsize_fixation_deg
p12
F0.4
sVpixstim_fix_tex_size
p13
I64
sVfix_psychometric_curve_interval
p14
F0.18
sVin_scanner
p15
I0
sVblobstim_fix_nr_blobrows_per_ring
p16
I2
sVTR
p17
F1.5
sVblobstim_bg_opacity
p18
F0.125
sVblobstim_fix_spacing_factor
p19
F0.9
sVpixstim_fix_amplitude_exponent
p20
F1.5
sS'pos_in_bar_trajectory'
p21
cnumpy.core.multiarray
scalar
p22
(cnumpy
dtype
p23
(S'f8'
p24
I0
I1
tp25
Rp26
(I3
S'<'
p27
NNNI-1
I-1
I0
tp28
bS'\x00\x00\x00\x00\x00\x00\x00\x00'
p29
tp30
Rp31
sVfix_psychometric_curve_nr_steps_oneside
p32
I6
sS'answer'
p33
I-1
sVprf_checker_tex_nr_pix
p34
I512
sVblobstim_bg_spacing_factor
p35
F0.8
sVbg_psychometric_curve_interval
p36
F0.18
sVpixstim_bg_tex_size
p37
I1024
sVprf_checker_bar_width
p38
F0.125
sS'bg_trial_stimulus_value'
p39
g22
(g26
S'\n\xd7\xa3p=\n\xb7\xbf'
p40
tp41
Rp42
sVfix_time
p43
F0.25
sVprf_checker_cycles_in_bar
p44
I2
sVpixstim_bg_opacity
p45
F0.05
sVblobstim_bg_ecc_min
p46
F0.1
sVpixstim_fix_opacity
p47
F0.45
sVprf_checker_flicker_frequency
p48
I2
sVblobstim_bg_nr_blobrows_per_ring
p49
I12
sS'fix_trial_stimulus_value'
p50
g22
(g26
S'\xb8\x1e\x85\xebQ\xb8\xbe\xbf'
p51
tp52
Rp53
sVpixstim_bg_amplitude_exponent
p54
F1.5
sVwhich_stimulus_type
p55
I1
sVprf_stim_sequence_angles
p56
(lp57
I-1
aI0
aI225
aI-1
aI90
aI135
aI-1
aI180
aI45
aI-1
aI270
aI135
aI-1
asVprf_stim_blank_duration
p58
I10
sVaperture_stim_sd
p59
F0.1225
sVblobstim_bg_nr_rings
p60
I1
sVbg_psychometric_curve_nr_steps_oneside
p61
I6
sS'bar_orientation'
p62
g22
(g26
S'\x00\x00\x00\x00\x00\x00\xf0\xbf'
p63
tp64
Rp65
sVblobstim_fix_nr_ring
p66
I1
sVstim_time
p67
F0.5
sVcolor_balance
p68
I0
sVanswer_dictionary
p69
(dp70
Vj
p71
I1
sVf
p72
I0
ssVblobstim_bg_ecc_max
p73
I15
sa(dp74
g4
I20
sg5
F0.3
sg6
F0.2
sg7
F0.05
sg8
F0.7
sg9
I16
sg10
I16
sg11
F0.99
sg12
F0.4
sg13
I64
sg14
F0.18
sg15
I0
sg16
I2
sg17
F1.5
sg18
F0.125
sg19
F0.9
sg20
F1.5
sg21
g22
(g26
S'\x00\x00\x00\x00\x00\x00\xf0?'
p75
tp76
Rp77
sg32
I6
sg33
I-1
sg34
I512
sg35
F0.8
sg36
F0.18
sg37
I1024
sg38
F0.125
sg39
g22
(g26
S'333333\xc3?'
p78
tp79
Rp80
sg43
F0.25
sg44
I2
sg45
F0.05
sg46
F0.1
sg47
F0.45
sg48
I2
sg49
I12
sg50
g22
(g26
S'\n\xd7\xa3p=\n\xc7?'
p81
tp82
Rp83
sg54
F1.5
sg55
I1
sg56
g57
sg58
I10
sg59
F0.1225
sg60
I1
sg61
I6
sg62
g22
(g26
S'\x00\x00\x00\x00\x00\x00\xf0\xbf'
p84
tp85
Rp86
sg66
I1
sg67
F0.5
sg68
I0
sg69
g70
sg73
I15
sa(dp87
g4
I20
sg5
F0.3
sg6
F0.2
sg7
F0.05
sg8
F0.7
sg9
I16
sg10
I16
sg11
F0.99
sg12
F0.4
sg13
I64
sg14
F0.18
sg15
I0
sg16
I2
sg17
F1.5
sg18
F0.125
sg19
F0.9
sg20
F1.5
sg21
g22
(g26
S'\x00\x00\x00\x00\x00\x00\x00@'
p88
tp89
Rp90
sg32
I6
sg33
I-1
sg34
I512
sg35
F0.8
sg36
F0.18
sg37
I1024
sg38
F0.125
sg39
g22
(g26
S'\n\xd7\xa3p=\n\xb7\xbf'
p91
tp92
Rp93
sg43
F0.25
sg44
I2
sg45
F0.05
sg46
F0.1
sg47
F0.45
sg48
I2
sg49
I12
sg50
g22
(g26
S'333333\xc3\xbf'
p94
tp95
Rp96
sg54
F1.5
sg55
I1
sg56
g57
sg58
I10
sg59
F0.1225
sg60
I1
sg61
I6
sg62
g22
(g26
S'\x00\x00\x00\x00\x00\x00\xf0\xbf'
p97
tp98
Rp99
sg66
I1
sg67
F0.5
sg68
I0
sg69
g70
sg73
I15
sag87
asS'eventArray'
p100
(lp101
(lp102
S'trial 0 started at 5.24217987061'
p103
aS'trial 0 phase 1 started at 5.94965410233'
p104
aS'trial 0 event space at 5.94967007637'
p105
aS'trial 0 phase 2 started at 6.17082190514'
p106
aS'trial 0 phase 3 started at 6.67123794556'
p107
aa(lp108
S'trial 1 started at 7.46141886711'
p109
aS'trial 1 phase 1 started at 7.46143102646'
p110
aS'trial 1 phase 2 started at 7.72074890137'
p111
aS'trial 1 phase 3 started at 8.22079992294'
p112
aa(lp113
S'trial 2 started at 9.0074160099'
p114
aS'trial 2 phase 1 started at 9.0074338913'
p115
aS'trial 2 phase 2 started at 9.27074790001'
p116
aS'trial 2 phase 3 started at 9.77077698708'
p117
a(lp118
I-99
aF1.3336739540100098
aaS'trial 2 event escape at 10.3411560059'
p119
aag113
as.