(dp0
S'parameterArray'
p1
(lp2
(dp3
Vprf_stim_barpass_duration
p4
I20
sVblobstim_fix_opacity
p5
F0.3
sVpixstim_fix_aperture_fraction
p6
F0.2
sVblobstim_fix_ecc_min
p7
F0.05
sVpost_fix_time
p8
F0.7
sVpixstim_bg_noise_n_textures
p9
I16
sVflickerfuse
p10
I0
sVpixstim_fix_noise_n_textures
p11
I16
sVpixstim_bg_aperture_fraction
p12
F0.99
sVsize_fixation_deg
p13
F0.4
sVpixstim_fix_tex_size
p14
I64
sVfix_psychometric_curve_interval
p15
F0.18
sVin_scanner
p16
I0
sVblobstim_fix_nr_blobrows_per_ring
p17
I2
sVTR
p18
F1.5
sVblobstim_bg_opacity
p19
F0.125
sVblobstim_fix_spacing_factor
p20
F0.9
sVpixstim_fix_amplitude_exponent
p21
F1.5
sS'pos_in_bar_trajectory'
p22
cnumpy.core.multiarray
scalar
p23
(cnumpy
dtype
p24
(S'f8'
p25
I0
I1
tp26
Rp27
(I3
S'<'
p28
NNNI-1
I-1
I0
tp29
bS'\x00\x00\x00\x00\x00\x00\x00\x00'
p30
tp31
Rp32
sVfix_psychometric_curve_nr_steps_oneside
p33
I6
sS'answer'
p34
I-1
sVprf_checker_tex_nr_pix
p35
I512
sVblobstim_bg_spacing_factor
p36
F0.8
sVbg_psychometric_curve_interval
p37
F0.18
sVpixstim_bg_tex_size
p38
I1024
sVprf_checker_bar_width
p39
F0.125
sS'bg_trial_stimulus_value'
p40
g23
(g27
S'\xb8\x1e\x85\xebQ\xb8\x9e\xbf'
p41
tp42
Rp43
sVfix_time
p44
F0.25
sVprf_checker_cycles_in_bar
p45
I2
sVpixstim_bg_opacity
p46
F0.99
sVblobstim_bg_ecc_min
p47
F0.1
sVpixstim_fix_opacity
p48
F0.99
sVprf_checker_flicker_frequency
p49
I2
sVblobstim_bg_nr_blobrows_per_ring
p50
I12
sS'fix_trial_stimulus_value'
p51
g23
(g27
S'333333\xc3?'
p52
tp53
Rp54
sVpixstim_bg_amplitude_exponent
p55
F1.5
sVwhich_stimulus_type
p56
I1
sVprf_stim_sequence_angles
p57
(lp58
I-1
aI0
aI225
aI-1
aI90
aI135
aI-1
aI180
aI45
aI-1
aI270
aI135
aI-1
asVprf_stim_blank_duration
p59
I10
sVaperture_stim_sd
p60
F0.1225
sVblobstim_bg_nr_rings
p61
I1
sVbg_psychometric_curve_nr_steps_oneside
p62
I6
sS'bar_orientation'
p63
g23
(g27
S'\x00\x00\x00\x00\x00\x00\xf0\xbf'
p64
tp65
Rp66
sVblobstim_fix_nr_ring
p67
I1
sVstim_time
p68
F0.5
sVcolor_balance
p69
I0
sVanswer_dictionary
p70
(dp71
Vj
p72
I1
sVf
p73
I0
ssVblobstim_bg_ecc_max
p74
I15
sa(dp75
g4
I20
sg5
F0.3
sg6
F0.2
sg7
F0.05
sg8
F0.7
sg9
I16
sg10
I0
sg11
I16
sg12
F0.99
sg13
F0.4
sg14
I64
sg15
F0.18
sg16
I0
sg17
I2
sg18
F1.5
sg19
F0.125
sg20
F0.9
sg21
F1.5
sg22
g23
(g27
S'\x00\x00\x00\x00\x00\x00\xf0?'
p76
tp77
Rp78
sg33
I6
sg34
I-1
sg35
I512
sg36
F0.8
sg37
F0.18
sg38
I1024
sg39
F0.125
sg40
g23
(g27
S'\xb8\x1e\x85\xebQ\xb8\xbe?'
p79
tp80
Rp81
sg44
F0.25
sg45
I2
sg46
F0.99
sg47
F0.1
sg48
F0.99
sg49
I2
sg50
I12
sg51
g23
(g27
S'333333\xc3\xbf'
p82
tp83
Rp84
sg55
F1.5
sg56
I1
sg57
g58
sg59
I10
sg60
F0.1225
sg61
I1
sg62
I6
sg63
g23
(g27
S'\x00\x00\x00\x00\x00\x00\xf0\xbf'
p85
tp86
Rp87
sg67
I1
sg68
F0.5
sg69
I0
sg70
g71
sg74
I15
sa(dp88
g4
I20
sg5
F0.3
sg6
F0.2
sg7
F0.05
sg8
F0.7
sg9
I16
sg10
I0
sg11
I16
sg12
F0.99
sg13
F0.4
sg14
I64
sg15
F0.18
sg16
I0
sg17
I2
sg18
F1.5
sg19
F0.125
sg20
F0.9
sg21
F1.5
sg22
g23
(g27
S'\x00\x00\x00\x00\x00\x00\x00@'
p89
tp90
Rp91
sg33
I6
sg34
I-1
sg35
I512
sg36
F0.8
sg37
F0.18
sg38
I1024
sg39
F0.125
sg40
g23
(g27
S'\xb8\x1e\x85\xebQ\xb8\x9e\xbf'
p92
tp93
Rp94
sg44
F0.25
sg45
I2
sg46
F0.99
sg47
F0.1
sg48
F0.99
sg49
I2
sg50
I12
sg51
g23
(g27
S'\xb8\x1e\x85\xebQ\xb8\xbe?'
p95
tp96
Rp97
sg55
F1.5
sg56
I1
sg57
g58
sg59
I10
sg60
F0.1225
sg61
I1
sg62
I6
sg63
g23
(g27
S'\x00\x00\x00\x00\x00\x00\xf0\xbf'
p98
tp99
Rp100
sg67
I1
sg68
F0.5
sg69
I0
sg70
g71
sg74
I15
sa(dp101
g4
I20
sg5
F0.3
sg6
F0.2
sg7
F0.05
sg8
F0.7
sg9
I16
sg10
I0
sg11
I16
sg12
F0.99
sg13
F0.4
sg14
I64
sg15
F0.18
sg16
I0
sg17
I2
sg18
F1.5
sg19
F0.125
sg20
F0.9
sg21
F1.5
sg22
g23
(g27
S'\x00\x00\x00\x00\x00\x00\x08@'
p102
tp103
Rp104
sg33
I6
sg34
I-1
sg35
I512
sg36
F0.8
sg37
F0.18
sg38
I1024
sg39
F0.125
sg40
g23
(g27
S'\n\xd7\xa3p=\n\xc7?'
p105
tp106
Rp107
sg44
F0.25
sg45
I2
sg46
F0.99
sg47
F0.1
sg48
F0.99
sg49
I2
sg50
I12
sg51
g23
(g27
S'\n\xd7\xa3p=\n\xb7\xbf'
p108
tp109
Rp110
sg55
F1.5
sg56
I1
sg57
g58
sg59
I10
sg60
F0.1225
sg61
I1
sg62
I6
sg63
g23
(g27
S'\x00\x00\x00\x00\x00\x00\xf0\xbf'
p111
tp112
Rp113
sg67
I1
sg68
F0.5
sg69
I0
sg70
g71
sg74
I15
sa(dp114
g4
I20
sg5
F0.3
sg6
F0.2
sg7
F0.05
sg8
F0.7
sg9
I16
sg10
I0
sg11
I16
sg12
F0.99
sg13
F0.4
sg14
I64
sg15
F0.18
sg16
I0
sg17
I2
sg18
F1.5
sg19
F0.125
sg20
F0.9
sg21
F1.5
sg22
g23
(g27
S'\x00\x00\x00\x00\x00\x00\x10@'
p115
tp116
Rp117
sg33
I6
sg34
I-1
sg35
I512
sg36
F0.8
sg37
F0.18
sg38
I1024
sg39
F0.125
sg40
g23
(g27
S'333333\xc3\xbf'
p118
tp119
Rp120
sg44
F0.25
sg45
I2
sg46
F0.99
sg47
F0.1
sg48
F0.99
sg49
I2
sg50
I12
sg51
g23
(g27
S'\n\xd7\xa3p=\n\xc7\xbf'
p121
tp122
Rp123
sg55
F1.5
sg56
I1
sg57
g58
sg59
I10
sg60
F0.1225
sg61
I1
sg62
I6
sg63
g23
(g27
S'\x00\x00\x00\x00\x00\x00\xf0\xbf'
p124
tp125
Rp126
sg67
I1
sg68
F0.5
sg69
I0
sg70
g71
sg74
I15
sa(dp127
g4
I20
sg5
F0.3
sg6
F0.2
sg7
F0.05
sg8
F0.7
sg9
I16
sg10
I0
sg11
I16
sg12
F0.99
sg13
F0.4
sg14
I64
sg15
F0.18
sg16
I0
sg17
I2
sg18
F1.5
sg19
F0.125
sg20
F0.9
sg21
F1.5
sg22
g23
(g27
S'\x00\x00\x00\x00\x00\x00\x14@'
p128
tp129
Rp130
sg33
I6
sg34
I-1
sg35
I512
sg36
F0.8
sg37
F0.18
sg38
I1024
sg39
F0.125
sg40
g23
(g27
S'\n\xd7\xa3p=\n\xc7?'
p131
tp132
Rp133
sg44
F0.25
sg45
I2
sg46
F0.99
sg47
F0.1
sg48
F0.99
sg49
I2
sg50
I12
sg51
g23
(g27
S'\xb8\x1e\x85\xebQ\xb8\xbe\xbf'
p134
tp135
Rp136
sg55
F1.5
sg56
I1
sg57
g58
sg59
I10
sg60
F0.1225
sg61
I1
sg62
I6
sg63
g23
(g27
S'\x00\x00\x00\x00\x00\x00\xf0\xbf'
p137
tp138
Rp139
sg67
I1
sg68
F0.5
sg69
I0
sg70
g71
sg74
I15
sa(dp140
g4
I20
sg5
F0.3
sg6
F0.2
sg7
F0.05
sg8
F0.7
sg9
I16
sg10
I0
sg11
I16
sg12
F0.99
sg13
F0.4
sg14
I64
sg15
F0.18
sg16
I0
sg17
I2
sg18
F1.5
sg19
F0.125
sg20
F0.9
sg21
F1.5
sg22
g23
(g27
S'\x00\x00\x00\x00\x00\x00\x18@'
p141
tp142
Rp143
sg33
I6
sg34
I-1
sg35
I512
sg36
F0.8
sg37
F0.18
sg38
I1024
sg39
F0.125
sg40
g23
(g27
S'\n\xd7\xa3p=\n\xb7?'
p144
tp145
Rp146
sg44
F0.25
sg45
I2
sg46
F0.99
sg47
F0.1
sg48
F0.99
sg49
I2
sg50
I12
sg51
g23
(g27
S'333333\xc3\xbf'
p147
tp148
Rp149
sg55
F1.5
sg56
I1
sg57
g58
sg59
I10
sg60
F0.1225
sg61
I1
sg62
I6
sg63
g23
(g27
S'\x00\x00\x00\x00\x00\x00\xf0\xbf'
p150
tp151
Rp152
sg67
I1
sg68
F0.5
sg69
I0
sg70
g71
sg74
I15
sa(dp153
g4
I20
sg5
F0.3
sg6
F0.2
sg7
F0.05
sg8
F0.7
sg9
I16
sg10
I0
sg11
I16
sg12
F0.99
sg13
F0.4
sg14
I64
sg15
F0.18
sg16
I0
sg17
I2
sg18
F1.5
sg19
F0.125
sg20
F0.9
sg21
F1.5
sg22
g23
(g27
S'\x00\x00\x00\x00\x00\x00\x1c@'
p154
tp155
Rp156
sg33
I6
sg34
I-1
sg35
I512
sg36
F0.8
sg37
F0.18
sg38
I1024
sg39
F0.125
sg40
g23
(g27
S'\xb8\x1e\x85\xebQ\xb8\x9e?'
p157
tp158
Rp159
sg44
F0.25
sg45
I2
sg46
F0.99
sg47
F0.1
sg48
F0.99
sg49
I2
sg50
I12
sg51
g23
(g27
S'\xb8\x1e\x85\xebQ\xb8\xae\xbf'
p160
tp161
Rp162
sg55
F1.5
sg56
I1
sg57
g58
sg59
I10
sg60
F0.1225
sg61
I1
sg62
I6
sg63
g23
(g27
S'\x00\x00\x00\x00\x00\x00\xf0\xbf'
p163
tp164
Rp165
sg67
I1
sg68
F0.5
sg69
I0
sg70
g71
sg74
I15
sa(dp166
g4
I20
sg5
F0.3
sg6
F0.2
sg7
F0.05
sg8
F0.7
sg9
I16
sg10
I0
sg11
I16
sg12
F0.99
sg13
F0.4
sg14
I64
sg15
F0.18
sg16
I0
sg17
I2
sg18
F1.5
sg19
F0.125
sg20
F0.9
sg21
F1.5
sg22
g23
(g27
S'\x00\x00\x00\x00\x00\x00 @'
p167
tp168
Rp169
sg33
I6
sg34
I-1
sg35
I512
sg36
F0.8
sg37
F0.18
sg38
I1024
sg39
F0.125
sg40
g23
(g27
S'\xb8\x1e\x85\xebQ\xb8\x9e\xbf'
p170
tp171
Rp172
sg44
F0.25
sg45
I2
sg46
F0.99
sg47
F0.1
sg48
F0.99
sg49
I2
sg50
I12
sg51
g23
(g27
S'\xb8\x1e\x85\xebQ\xb8\x9e?'
p173
tp174
Rp175
sg55
F1.5
sg56
I1
sg57
g58
sg59
I10
sg60
F0.1225
sg61
I1
sg62
I6
sg63
g23
(g27
S'\x00\x00\x00\x00\x00\x00\xf0\xbf'
p176
tp177
Rp178
sg67
I1
sg68
F0.5
sg69
I0
sg70
g71
sg74
I15
sa(dp179
g4
I20
sg5
F0.3
sg6
F0.2
sg7
F0.05
sg8
F0.7
sg9
I16
sg10
I0
sg11
I16
sg12
F0.99
sg13
F0.4
sg14
I64
sg15
F0.18
sg16
I0
sg17
I2
sg18
F1.5
sg19
F0.125
sg20
F0.9
sg21
F1.5
sg22
g23
(g27
S'\x00\x00\x00\x00\x00\x00"@'
p180
tp181
Rp182
sg33
I6
sg34
I-1
sg35
I512
sg36
F0.8
sg37
F0.18
sg38
I1024
sg39
F0.125
sg40
g23
(g27
S'\n\xd7\xa3p=\n\xb7?'
p183
tp184
Rp185
sg44
F0.25
sg45
I2
sg46
F0.99
sg47
F0.1
sg48
F0.99
sg49
I2
sg50
I12
sg51
g23
(g27
S'\n\xd7\xa3p=\n\xb7\xbf'
p186
tp187
Rp188
sg55
F1.5
sg56
I1
sg57
g58
sg59
I10
sg60
F0.1225
sg61
I1
sg62
I6
sg63
g23
(g27
S'\x00\x00\x00\x00\x00\x00\xf0\xbf'
p189
tp190
Rp191
sg67
I1
sg68
F0.5
sg69
I0
sg70
g71
sg74
I15
sa(dp192
g4
I20
sg5
F0.3
sg6
F0.2
sg7
F0.05
sg8
F0.7
sg9
I16
sg10
I0
sg11
I16
sg12
F0.99
sg13
F0.4
sg14
I64
sg15
F0.18
sg16
I0
sg17
I2
sg18
F1.5
sg19
F0.125
sg20
F0.9
sg21
F1.5
sg22
g23
(g27
S'\x00\x00\x00\x00\x00\x00\x00\x00'
p193
tp194
Rp195
sg33
I6
sg34
I-1
sg35
I512
sg36
F0.8
sg37
F0.18
sg38
I1024
sg39
F0.125
sg40
g23
(g27
S'\n\xd7\xa3p=\n\xb7?'
p196
tp197
Rp198
sg44
F0.25
sg45
I2
sg46
F0.99
sg47
F0.1
sg48
F0.99
sg49
I2
sg50
I12
sg51
g23
(g27
S'\xb8\x1e\x85\xebQ\xb8\x9e\xbf'
p199
tp200
Rp201
sg55
F1.5
sg56
I1
sg57
g58
sg59
I10
sg60
F0.1225
sg61
I1
sg62
I6
sg63
g23
(g27
S'\x00\x00\x00\x00\x00\x00\x00\x00'
p202
tp203
Rp204
sg67
I1
sg68
F0.5
sg69
I0
sg70
g71
sg74
I15
sa(dp205
g4
I20
sg5
F0.3
sg6
F0.2
sg7
F0.05
sg8
F0.7
sg9
I16
sg10
I0
sg11
I16
sg12
F0.99
sg13
F0.4
sg14
I64
sg15
F0.18
sg16
I0
sg17
I2
sg18
F1.5
sg19
F0.125
sg20
F0.9
sg21
F1.5
sg22
g23
(g27
S'\x00\x00\x00\x00\x00\x00\xf0?'
p206
tp207
Rp208
sg33
I6
sg34
I-1
sg35
I512
sg36
F0.8
sg37
F0.18
sg38
I1024
sg39
F0.125
sg40
g23
(g27
S'\xb8\x1e\x85\xebQ\xb8\xae?'
p209
tp210
Rp211
sg44
F0.25
sg45
I2
sg46
F0.99
sg47
F0.1
sg48
F0.99
sg49
I2
sg50
I12
sg51
g23
(g27
S'333333\xc3?'
p212
tp213
Rp214
sg55
F1.5
sg56
I1
sg57
g58
sg59
I10
sg60
F0.1225
sg61
I1
sg62
I6
sg63
g23
(g27
S'\x00\x00\x00\x00\x00\x00\x00\x00'
p215
tp216
Rp217
sg67
I1
sg68
F0.5
sg69
I0
sg70
g71
sg74
I15
sa(dp218
g4
I20
sg5
F0.3
sg6
F0.2
sg7
F0.05
sg8
F0.7
sg9
I16
sg10
I0
sg11
I16
sg12
F0.99
sg13
F0.4
sg14
I64
sg15
F0.18
sg16
I0
sg17
I2
sg18
F1.5
sg19
F0.125
sg20
F0.9
sg21
F1.5
sg22
g23
(g27
S'\x00\x00\x00\x00\x00\x00\x00@'
p219
tp220
Rp221
sg33
I6
sg34
I-1
sg35
I512
sg36
F0.8
sg37
F0.18
sg38
I1024
sg39
F0.125
sg40
g23
(g27
S'\n\xd7\xa3p=\n\xb7\xbf'
p222
tp223
Rp224
sg44
F0.25
sg45
I2
sg46
F0.99
sg47
F0.1
sg48
F0.99
sg49
I2
sg50
I12
sg51
g23
(g27
S'333333\xc3\xbf'
p225
tp226
Rp227
sg55
F1.5
sg56
I1
sg57
g58
sg59
I10
sg60
F0.1225
sg61
I1
sg62
I6
sg63
g23
(g27
S'\x00\x00\x00\x00\x00\x00\x00\x00'
p228
tp229
Rp230
sg67
I1
sg68
F0.5
sg69
I0
sg70
g71
sg74
I15
sa(dp231
g4
I20
sg5
F0.3
sg6
F0.2
sg7
F0.05
sg8
F0.7
sg9
I16
sg10
I0
sg11
I16
sg12
F0.99
sg13
F0.4
sg14
I64
sg15
F0.18
sg16
I0
sg17
I2
sg18
F1.5
sg19
F0.125
sg20
F0.9
sg21
F1.5
sg22
g23
(g27
S'\x00\x00\x00\x00\x00\x00\x08@'
p232
tp233
Rp234
sg33
I6
sg34
I-1
sg35
I512
sg36
F0.8
sg37
F0.18
sg38
I1024
sg39
F0.125
sg40
g23
(g27
S'333333\xc3?'
p235
tp236
Rp237
sg44
F0.25
sg45
I2
sg46
F0.99
sg47
F0.1
sg48
F0.99
sg49
I2
sg50
I12
sg51
g23
(g27
S'\xb8\x1e\x85\xebQ\xb8\xae\xbf'
p238
tp239
Rp240
sg55
F1.5
sg56
I1
sg57
g58
sg59
I10
sg60
F0.1225
sg61
I1
sg62
I6
sg63
g23
(g27
S'\x00\x00\x00\x00\x00\x00\x00\x00'
p241
tp242
Rp243
sg67
I1
sg68
F0.5
sg69
I0
sg70
g71
sg74
I15
sa(dp244
g4
I20
sg5
F0.3
sg6
F0.2
sg7
F0.05
sg8
F0.7
sg9
I16
sg10
I0
sg11
I16
sg12
F0.99
sg13
F0.4
sg14
I64
sg15
F0.18
sg16
I0
sg17
I2
sg18
F1.5
sg19
F0.125
sg20
F0.9
sg21
F1.5
sg22
g23
(g27
S'\x00\x00\x00\x00\x00\x00\x10@'
p245
tp246
Rp247
sg33
I6
sg34
I-1
sg35
I512
sg36
F0.8
sg37
F0.18
sg38
I1024
sg39
F0.125
sg40
g23
(g27
S'\xb8\x1e\x85\xebQ\xb8\xbe\xbf'
p248
tp249
Rp250
sg44
F0.25
sg45
I2
sg46
F0.99
sg47
F0.1
sg48
F0.99
sg49
I2
sg50
I12
sg51
g23
(g27
S'\n\xd7\xa3p=\n\xb7\xbf'
p251
tp252
Rp253
sg55
F1.5
sg56
I1
sg57
g58
sg59
I10
sg60
F0.1225
sg61
I1
sg62
I6
sg63
g23
(g27
S'\x00\x00\x00\x00\x00\x00\x00\x00'
p254
tp255
Rp256
sg67
I1
sg68
F0.5
sg69
I0
sg70
g71
sg74
I15
sa(dp257
g4
I20
sg5
F0.3
sg6
F0.2
sg7
F0.05
sg8
F0.7
sg9
I16
sg10
I0
sg11
I16
sg12
F0.99
sg13
F0.4
sg14
I64
sg15
F0.18
sg16
I0
sg17
I2
sg18
F1.5
sg19
F0.125
sg20
F0.9
sg21
F1.5
sg22
g23
(g27
S'\x00\x00\x00\x00\x00\x00\x14@'
p258
tp259
Rp260
sg33
I6
sg34
I-1
sg35
I512
sg36
F0.8
sg37
F0.18
sg38
I1024
sg39
F0.125
sg40
g23
(g27
S'\xb8\x1e\x85\xebQ\xb8\xae\xbf'
p261
tp262
Rp263
sg44
F0.25
sg45
I2
sg46
F0.99
sg47
F0.1
sg48
F0.99
sg49
I2
sg50
I12
sg51
g23
(g27
S'\xb8\x1e\x85\xebQ\xb8\xbe\xbf'
p264
tp265
Rp266
sg55
F1.5
sg56
I1
sg57
g58
sg59
I10
sg60
F0.1225
sg61
I1
sg62
I6
sg63
g23
(g27
S'\x00\x00\x00\x00\x00\x00\x00\x00'
p267
tp268
Rp269
sg67
I1
sg68
F0.5
sg69
I0
sg70
g71
sg74
I15
sa(dp270
g4
I20
sg5
F0.3
sg6
F0.2
sg7
F0.05
sg8
F0.7
sg9
I16
sg10
I0
sg11
I16
sg12
F0.99
sg13
F0.4
sg14
I64
sg15
F0.18
sg16
I0
sg17
I2
sg18
F1.5
sg19
F0.125
sg20
F0.9
sg21
F1.5
sg22
g23
(g27
S'\x00\x00\x00\x00\x00\x00\x18@'
p271
tp272
Rp273
sg33
I6
sg34
I-1
sg35
I512
sg36
F0.8
sg37
F0.18
sg38
I1024
sg39
F0.125
sg40
g23
(g27
S'\n\xd7\xa3p=\n\xc7?'
p274
tp275
Rp276
sg44
F0.25
sg45
I2
sg46
F0.99
sg47
F0.1
sg48
F0.99
sg49
I2
sg50
I12
sg51
g23
(g27
S'333333\xc3?'
p277
tp278
Rp279
sg55
F1.5
sg56
I1
sg57
g58
sg59
I10
sg60
F0.1225
sg61
I1
sg62
I6
sg63
g23
(g27
S'\x00\x00\x00\x00\x00\x00\x00\x00'
p280
tp281
Rp282
sg67
I1
sg68
F0.5
sg69
I0
sg70
g71
sg74
I15
sa(dp283
g4
I20
sg5
F0.3
sg6
F0.2
sg7
F0.05
sg8
F0.7
sg9
I16
sg10
I0
sg11
I16
sg12
F0.99
sg13
F0.4
sg14
I64
sg15
F0.18
sg16
I0
sg17
I2
sg18
F1.5
sg19
F0.125
sg20
F0.9
sg21
F1.5
sg22
g23
(g27
S'\x00\x00\x00\x00\x00\x00\x1c@'
p284
tp285
Rp286
sg33
I6
sg34
I-1
sg35
I512
sg36
F0.8
sg37
F0.18
sg38
I1024
sg39
F0.125
sg40
g23
(g27
S'\xb8\x1e\x85\xebQ\xb8\xbe\xbf'
p287
tp288
Rp289
sg44
F0.25
sg45
I2
sg46
F0.99
sg47
F0.1
sg48
F0.99
sg49
I2
sg50
I12
sg51
g23
(g27
S'\xb8\x1e\x85\xebQ\xb8\xae\xbf'
p290
tp291
Rp292
sg55
F1.5
sg56
I1
sg57
g58
sg59
I10
sg60
F0.1225
sg61
I1
sg62
I6
sg63
g23
(g27
S'\x00\x00\x00\x00\x00\x00\x00\x00'
p293
tp294
Rp295
sg67
I1
sg68
F0.5
sg69
I0
sg70
g71
sg74
I15
sa(dp296
g4
I20
sg5
F0.3
sg6
F0.2
sg7
F0.05
sg8
F0.7
sg9
I16
sg10
I0
sg11
I16
sg12
F0.99
sg13
F0.4
sg14
I64
sg15
F0.18
sg16
I0
sg17
I2
sg18
F1.5
sg19
F0.125
sg20
F0.9
sg21
F1.5
sg22
g23
(g27
S'\x00\x00\x00\x00\x00\x00 @'
p297
tp298
Rp299
sg33
I6
sg34
I-1
sg35
I512
sg36
F0.8
sg37
F0.18
sg38
I1024
sg39
F0.125
sg40
g23
(g27
S'\n\xd7\xa3p=\n\xc7?'
p300
tp301
Rp302
sg44
F0.25
sg45
I2
sg46
F0.99
sg47
F0.1
sg48
F0.99
sg49
I2
sg50
I12
sg51
g23
(g27
S'\n\xd7\xa3p=\n\xc7?'
p303
tp304
Rp305
sg55
F1.5
sg56
I1
sg57
g58
sg59
I10
sg60
F0.1225
sg61
I1
sg62
I6
sg63
g23
(g27
S'\x00\x00\x00\x00\x00\x00\x00\x00'
p306
tp307
Rp308
sg67
I1
sg68
F0.5
sg69
I0
sg70
g71
sg74
I15
sa(dp309
g4
I20
sg5
F0.3
sg6
F0.2
sg7
F0.05
sg8
F0.7
sg9
I16
sg10
I0
sg11
I16
sg12
F0.99
sg13
F0.4
sg14
I64
sg15
F0.18
sg16
I0
sg17
I2
sg18
F1.5
sg19
F0.125
sg20
F0.9
sg21
F1.5
sg22
g23
(g27
S'\x00\x00\x00\x00\x00\x00"@'
p310
tp311
Rp312
sg33
I6
sg34
I-1
sg35
I512
sg36
F0.8
sg37
F0.18
sg38
I1024
sg39
F0.125
sg40
g23
(g27
S'\n\xd7\xa3p=\n\xb7\xbf'
p313
tp314
Rp315
sg44
F0.25
sg45
I2
sg46
F0.99
sg47
F0.1
sg48
F0.99
sg49
I2
sg50
I12
sg51
g23
(g27
S'\xb8\x1e\x85\xebQ\xb8\xae?'
p316
tp317
Rp318
sg55
F1.5
sg56
I1
sg57
g58
sg59
I10
sg60
F0.1225
sg61
I1
sg62
I6
sg63
g23
(g27
S'\x00\x00\x00\x00\x00\x00\x00\x00'
p319
tp320
Rp321
sg67
I1
sg68
F0.5
sg69
I0
sg70
g71
sg74
I15
sag309
asS'eventArray'
p322
(lp323
(lp324
S'trial 0 started at 5.54472184181'
p325
aS'trial 0 phase 1 started at 6.74621987343'
p326
aS'trial 0 event space at 6.74623084068'
p327
aS'trial 0 phase 2 started at 6.9862408638'
p328
aS'trial 0 phase 3 started at 7.48652982712'
p329
aa(lp330
S'trial 1 started at 8.27926778793'
p331
aS'trial 1 phase 1 started at 8.27927994728'
p332
aS'trial 1 phase 2 started at 8.53633284569'
p333
aS'trial 1 phase 3 started at 9.05303502083'
p334
aa(lp335
S'trial 2 started at 9.81932401657'
p336
aS'trial 2 phase 1 started at 9.81933689117'
p337
aS'trial 2 phase 2 started at 10.069786787'
p338
aS'trial 2 phase 3 started at 10.5699110031'
p339
aa(lp340
S'trial 3 started at 11.3462998867'
p341
aS'trial 3 phase 1 started at 11.3463129997'
p342
aS'trial 3 phase 2 started at 11.6030578613'
p343
aS'trial 3 phase 3 started at 12.1199359894'
p344
aa(lp345
S'trial 4 started at 12.9013979435'
p346
aS'trial 4 phase 1 started at 12.9014120102'
p347
aS'trial 4 phase 2 started at 13.1530900002'
p348
aS'trial 4 phase 3 started at 13.6533019543'
p349
aa(lp350
S'trial 5 started at 14.4331598282'
p351
aS'trial 5 phase 1 started at 14.4331729412'
p352
aS'trial 5 phase 2 started at 14.6863758564'
p353
aS'trial 5 phase 3 started at 15.2031159401'
p354
aa(lp355
S'trial 6 started at 15.9828248024'
p356
aS'trial 6 phase 1 started at 15.9828369617'
p357
aS'trial 6 phase 2 started at 16.2364728451'
p358
aS'trial 6 phase 3 started at 16.7367818356'
p359
aa(lp360
S'trial 7 started at 17.5192248821'
p361
aS'trial 7 phase 1 started at 17.5192389488'
p362
aS'trial 7 phase 2 started at 17.7697877884'
p363
aS'trial 7 phase 3 started at 18.2863638401'
p364
aa(lp365
S'trial 8 started at 19.0498299599'
p366
aS'trial 8 phase 1 started at 19.0498428345'
p367
aS'trial 8 phase 2 started at 19.3031589985'
p368
aS'trial 8 phase 3 started at 19.8198490143'
p369
aa(lp370
S'trial 9 started at 20.5874218941'
p371
aS'trial 9 phase 1 started at 20.5874829292'
p372
aS'trial 9 phase 2 started at 20.8530879021'
p373
aS'trial 9 phase 3 started at 21.3531239033'
p374
aa(lp375
S'trial 10 started at 22.1168529987'
p376
aS'trial 10 phase 1 started at 22.116866827'
p377
aS'trial 10 phase 2 started at 22.3698208332'
p378
aS'trial 10 phase 3 started at 22.8700950146'
p379
aa(lp380
S'trial 11 started at 23.6523938179'
p381
aS'trial 11 phase 1 started at 23.6524069309'
p382
aS'trial 11 phase 2 started at 23.9033248425'
p383
aS'trial 11 phase 3 started at 24.4033408165'
p384
aa(lp385
S'trial 12 started at 25.1706149578'
p386
aS'trial 12 phase 1 started at 25.1706290245'
p387
aS'trial 12 phase 2 started at 25.4364788532'
p388
aS'trial 12 phase 3 started at 25.953248024'
p389
aa(lp390
S'trial 13 started at 26.7334308624'
p391
aS'trial 13 phase 1 started at 26.7334439754'
p392
aS'trial 13 phase 2 started at 26.9864928722'
p393
aS'trial 13 phase 3 started at 27.4865148067'
p394
aa(lp395
S'trial 14 started at 28.2659218311'
p396
aS'trial 14 phase 1 started at 28.2659349442'
p397
aS'trial 14 phase 2 started at 28.5196938515'
p398
aS'trial 14 phase 3 started at 29.0199818611'
p399
aa(lp400
S'trial 15 started at 29.8008129597'
p401
aS'trial 15 phase 1 started at 29.8008248806'
p402
aS'trial 15 phase 2 started at 30.0532078743'
p403
aS'trial 15 phase 3 started at 30.5532228947'
p404
aa(lp405
S'trial 16 started at 31.3218758106'
p406
aS'trial 16 phase 1 started at 31.3218898773'
p407
aS'trial 16 phase 2 started at 31.5866270065'
p408
aS'trial 16 phase 3 started at 32.0868058205'
p409
aa(lp410
S'trial 17 started at 32.8591430187'
p411
aS'trial 17 phase 1 started at 32.8591558933'
p412
aS'trial 17 phase 2 started at 33.1198749542'
p413
aS'trial 17 phase 3 started at 33.6199178696'
p414
aa(lp415
S'trial 18 started at 34.3893928528'
p416
aS'trial 18 phase 1 started at 34.3894088268'
p417
aS'trial 18 phase 2 started at 34.653275013'
p418
aS'trial 18 phase 3 started at 35.1701397896'
p419
aa(lp420
S'trial 19 started at 35.9452979565'
p421
aS'trial 19 phase 1 started at 35.9453120232'
p422
a(lp423
I-99
aF0.17699193954467773
aaS'trial 19 event escape at 36.1223299503'
p424
aag420
as.