(dp0
S'parameterArray'
p1
(lp2
(dp3
Vprf_stim_barpass_duration
p4
I20
sVblobstim_fix_opacity
p5
F0.3
sVpixstim_fix_aperture_fraction
p6
F0.2
sVblobstim_fix_ecc_min
p7
F0.05
sVpost_fix_time
p8
F0.7
sVpixstim_bg_noise_n_textures
p9
I16
sVflickerfuse
p10
I1
sVpixstim_fix_noise_n_textures
p11
I16
sVpixstim_bg_aperture_fraction
p12
F0.99
sVsize_fixation_deg
p13
F0.4
sVpixstim_fix_tex_size
p14
I64
sVfix_psychometric_curve_interval
p15
F0.18
sVin_scanner
p16
I0
sVblobstim_fix_nr_blobrows_per_ring
p17
I2
sVTR
p18
F1.5
sVblobstim_bg_opacity
p19
F0.125
sVblobstim_fix_spacing_factor
p20
F0.9
sVpixstim_fix_amplitude_exponent
p21
F1.5
sS'pos_in_bar_trajectory'
p22
cnumpy.core.multiarray
scalar
p23
(cnumpy
dtype
p24
(S'f8'
p25
I0
I1
tp26
Rp27
(I3
S'<'
p28
NNNI-1
I-1
I0
tp29
bS'\x00\x00\x00\x00\x00\x00\x00\x00'
p30
tp31
Rp32
sVfix_psychometric_curve_nr_steps_oneside
p33
I6
sS'answer'
p34
I-1
sVprf_checker_tex_nr_pix
p35
I512
sVblobstim_bg_spacing_factor
p36
F0.8
sVbg_psychometric_curve_interval
p37
F0.18
sVpixstim_bg_tex_size
p38
I1024
sVprf_checker_bar_width
p39
F0.125
sS'bg_trial_stimulus_value'
p40
g23
(g27
S'\xb8\x1e\x85\xebQ\xb8\xbe\xbf'
p41
tp42
Rp43
sVfix_time
p44
F0.25
sVprf_checker_cycles_in_bar
p45
I2
sVpixstim_bg_opacity
p46
F0.99
sVblobstim_bg_ecc_min
p47
F0.1
sVpixstim_fix_opacity
p48
F0.99
sVprf_checker_flicker_frequency
p49
I2
sVblobstim_bg_nr_blobrows_per_ring
p50
I12
sS'fix_trial_stimulus_value'
p51
g23
(g27
S'\xb8\x1e\x85\xebQ\xb8\xbe?'
p52
tp53
Rp54
sVpixstim_bg_amplitude_exponent
p55
F1.5
sVwhich_stimulus_type
p56
I1
sVprf_stim_sequence_angles
p57
(lp58
I-1
aI0
aI225
aI-1
aI90
aI135
aI-1
aI180
aI45
aI-1
aI270
aI135
aI-1
asVprf_stim_blank_duration
p59
I10
sVaperture_stim_sd
p60
F0.1225
sVblobstim_bg_nr_rings
p61
I1
sVbg_psychometric_curve_nr_steps_oneside
p62
I6
sS'bar_orientation'
p63
g23
(g27
S'\x00\x00\x00\x00\x00\x00\xf0\xbf'
p64
tp65
Rp66
sVblobstim_fix_nr_ring
p67
I1
sVstim_time
p68
F0.5
sVcolor_balance
p69
I0
sVanswer_dictionary
p70
(dp71
Vj
p72
I1
sVf
p73
I0
ssVblobstim_bg_ecc_max
p74
I15
sa(dp75
g4
I20
sg5
F0.3
sg6
F0.2
sg7
F0.05
sg8
F0.7
sg9
I16
sg10
I1
sg11
I16
sg12
F0.99
sg13
F0.4
sg14
I64
sg15
F0.18
sg16
I0
sg17
I2
sg18
F1.5
sg19
F0.125
sg20
F0.9
sg21
F1.5
sg22
g23
(g27
S'\x00\x00\x00\x00\x00\x00\xf0?'
p76
tp77
Rp78
sg33
I6
sg34
I-1
sg35
I512
sg36
F0.8
sg37
F0.18
sg38
I1024
sg39
F0.125
sg40
g23
(g27
S'333333\xc3?'
p79
tp80
Rp81
sg44
F0.25
sg45
I2
sg46
F0.99
sg47
F0.1
sg48
F0.99
sg49
I2
sg50
I12
sg51
g23
(g27
S'\n\xd7\xa3p=\n\xb7?'
p82
tp83
Rp84
sg55
F1.5
sg56
I1
sg57
g58
sg59
I10
sg60
F0.1225
sg61
I1
sg62
I6
sg63
g23
(g27
S'\x00\x00\x00\x00\x00\x00\xf0\xbf'
p85
tp86
Rp87
sg67
I1
sg68
F0.5
sg69
I0
sg70
g71
sg74
I15
sa(dp88
g4
I20
sg5
F0.3
sg6
F0.2
sg7
F0.05
sg8
F0.7
sg9
I16
sg10
I1
sg11
I16
sg12
F0.99
sg13
F0.4
sg14
I64
sg15
F0.18
sg16
I0
sg17
I2
sg18
F1.5
sg19
F0.125
sg20
F0.9
sg21
F1.5
sg22
g23
(g27
S'\x00\x00\x00\x00\x00\x00\x00@'
p89
tp90
Rp91
sg33
I6
sg34
I-1
sg35
I512
sg36
F0.8
sg37
F0.18
sg38
I1024
sg39
F0.125
sg40
g23
(g27
S'\xb8\x1e\x85\xebQ\xb8\xae\xbf'
p92
tp93
Rp94
sg44
F0.25
sg45
I2
sg46
F0.99
sg47
F0.1
sg48
F0.99
sg49
I2
sg50
I12
sg51
g23
(g27
S'333333\xc3\xbf'
p95
tp96
Rp97
sg55
F1.5
sg56
I1
sg57
g58
sg59
I10
sg60
F0.1225
sg61
I1
sg62
I6
sg63
g23
(g27
S'\x00\x00\x00\x00\x00\x00\xf0\xbf'
p98
tp99
Rp100
sg67
I1
sg68
F0.5
sg69
I0
sg70
g71
sg74
I15
sa(dp101
g4
I20
sg5
F0.3
sg6
F0.2
sg7
F0.05
sg8
F0.7
sg9
I16
sg10
I1
sg11
I16
sg12
F0.99
sg13
F0.4
sg14
I64
sg15
F0.18
sg16
I0
sg17
I2
sg18
F1.5
sg19
F0.125
sg20
F0.9
sg21
F1.5
sg22
g23
(g27
S'\x00\x00\x00\x00\x00\x00\x08@'
p102
tp103
Rp104
sg33
I6
sg34
I-1
sg35
I512
sg36
F0.8
sg37
F0.18
sg38
I1024
sg39
F0.125
sg40
g23
(g27
S'333333\xc3?'
p105
tp106
Rp107
sg44
F0.25
sg45
I2
sg46
F0.99
sg47
F0.1
sg48
F0.99
sg49
I2
sg50
I12
sg51
g23
(g27
S'\xb8\x1e\x85\xebQ\xb8\xbe\xbf'
p108
tp109
Rp110
sg55
F1.5
sg56
I1
sg57
g58
sg59
I10
sg60
F0.1225
sg61
I1
sg62
I6
sg63
g23
(g27
S'\x00\x00\x00\x00\x00\x00\xf0\xbf'
p111
tp112
Rp113
sg67
I1
sg68
F0.5
sg69
I0
sg70
g71
sg74
I15
sa(dp114
g4
I20
sg5
F0.3
sg6
F0.2
sg7
F0.05
sg8
F0.7
sg9
I16
sg10
I1
sg11
I16
sg12
F0.99
sg13
F0.4
sg14
I64
sg15
F0.18
sg16
I0
sg17
I2
sg18
F1.5
sg19
F0.125
sg20
F0.9
sg21
F1.5
sg22
g23
(g27
S'\x00\x00\x00\x00\x00\x00\x10@'
p115
tp116
Rp117
sg33
I6
sg34
I-1
sg35
I512
sg36
F0.8
sg37
F0.18
sg38
I1024
sg39
F0.125
sg40
g23
(g27
S'333333\xc3\xbf'
p118
tp119
Rp120
sg44
F0.25
sg45
I2
sg46
F0.99
sg47
F0.1
sg48
F0.99
sg49
I2
sg50
I12
sg51
g23
(g27
S'\n\xd7\xa3p=\n\xc7\xbf'
p121
tp122
Rp123
sg55
F1.5
sg56
I1
sg57
g58
sg59
I10
sg60
F0.1225
sg61
I1
sg62
I6
sg63
g23
(g27
S'\x00\x00\x00\x00\x00\x00\xf0\xbf'
p124
tp125
Rp126
sg67
I1
sg68
F0.5
sg69
I0
sg70
g71
sg74
I15
sag114
asS'eventArray'
p127
(lp128
(lp129
S'trial 0 started at 5.2679901123'
p130
aS'trial 0 phase 1 started at 7.38888812065'
p131
aS'trial 0 event space at 7.3889131546'
p132
aS'trial 0 phase 2 started at 7.62228608131'
p133
aS'trial 0 phase 3 started at 8.12231111526'
p134
aa(lp135
S'trial 1 started at 8.89289307594'
p136
aS'trial 1 phase 1 started at 8.89291095734'
p137
aS'trial 1 phase 2 started at 9.15594410896'
p138
aS'trial 1 phase 3 started at 9.65625'
p139
aa(lp140
S'trial 2 started at 10.4350690842'
p141
aS'trial 2 phase 1 started at 10.435090065'
p142
aS'trial 2 phase 2 started at 10.6892399788'
p143
aS'trial 2 phase 3 started at 11.2056560516'
p144
aa(lp145
S'trial 3 started at 11.9917049408'
p146
aS'trial 3 phase 1 started at 11.991724968'
p147
aS'trial 3 phase 2 started at 12.2560300827'
p148
aS'trial 3 phase 3 started at 12.7721400261'
p149
aa(lp150
S'trial 4 started at 13.5358059406'
p151
aS'trial 4 phase 1 started at 13.5358290672'
p152
aS'trial 4 phase 2 started at 13.7890620232'
p153
aS'trial 4 phase 3 started at 14.3054389954'
p154
a(lp155
I-99
aF0.8732302188873291
aaS'trial 4 event escape at 14.4090869427'
p156
aag150
as.