(dp0
S'parameterArray'
p1
(lp2
(dp3
Vprf_stim_barpass_duration
p4
I20
sVblobstim_fix_opacity
p5
F0.3
sVpixstim_fix_aperture_fraction
p6
F0.2
sVblobstim_fix_ecc_min
p7
F0.05
sVpost_fix_time
p8
F0.7
sVpixstim_bg_noise_n_textures
p9
I8
sVpixstim_fix_noise_n_textures
p10
I8
sVpixstim_bg_aperture_fraction
p11
F0.99
sVsize_fixation_deg
p12
F0.4
sVpixstim_fix_tex_size
p13
I64
sVfix_psychometric_curve_interval
p14
F0.18
sVin_scanner
p15
I0
sVblobstim_fix_nr_blobrows_per_ring
p16
I2
sVTR
p17
F1.5
sVblobstim_bg_opacity
p18
F0.125
sVblobstim_fix_spacing_factor
p19
F0.9
sVpixstim_fix_amplitude_exponent
p20
F1.5
sS'pos_in_bar_trajectory'
p21
cnumpy.core.multiarray
scalar
p22
(cnumpy
dtype
p23
(S'f8'
p24
I0
I1
tp25
Rp26
(I3
S'<'
p27
NNNI-1
I-1
I0
tp28
bS'\x00\x00\x00\x00\x00\x00\x00\x00'
p29
tp30
Rp31
sVfix_psychometric_curve_nr_steps_oneside
p32
I12
sS'answer'
p33
I-1
sVprf_checker_tex_nr_pix
p34
I512
sVblobstim_bg_spacing_factor
p35
F0.8
sVbg_psychometric_curve_interval
p36
F0.18
sVpixstim_bg_tex_size
p37
I1024
sVprf_checker_bar_width
p38
F0.125
sS'bg_trial_stimulus_value'
p39
g22
(g26
S'\n\xd7\xa3p=\n\xa7\xbf'
p40
tp41
Rp42
sVfix_time
p43
F0.25
sVprf_checker_cycles_in_bar
p44
I2
sVpixstim_bg_opacity
p45
F0.1
sVblobstim_bg_ecc_min
p46
F0.1
sVpixstim_fix_opacity
p47
F0.6
sVprf_checker_flicker_frequency
p48
I2
sVblobstim_bg_nr_blobrows_per_ring
p49
I12
sS'fix_trial_stimulus_value'
p50
g22
(g26
S'\xb7\x1e\x85\xebQ\xb8\xbe?'
p51
tp52
Rp53
sVpixstim_bg_amplitude_exponent
p54
F1.5
sVwhich_stimulus_type
p55
I1
sVprf_stim_sequence_angles
p56
(lp57
I-1
aI0
aI225
aI-1
aI90
aI135
aI-1
aI180
aI45
aI-1
aI270
aI135
aI-1
asVprf_stim_blank_duration
p58
I10
sVaperture_stim_sd
p59
F0.1225
sVblobstim_bg_nr_rings
p60
I1
sVbg_psychometric_curve_nr_steps_oneside
p61
I12
sS'bar_orientation'
p62
g22
(g26
S'\x00\x00\x00\x00\x00\x00\xf0\xbf'
p63
tp64
Rp65
sVblobstim_fix_nr_ring
p66
I1
sVstim_time
p67
F0.5
sVanswer_dictionary
p68
(dp69
Vy
p70
I1
sVb
p71
I0
ssVblobstim_bg_ecc_max
p72
I15
sa(dp73
g4
I20
sg5
F0.3
sg6
F0.2
sg7
F0.05
sg8
F0.7
sg9
I8
sg10
I8
sg11
F0.99
sg12
F0.4
sg13
I64
sg14
F0.18
sg15
I0
sg16
I2
sg17
F1.5
sg18
F0.125
sg19
F0.9
sg20
F1.5
sg21
g22
(g26
S'\x00\x00\x00\x00\x00\x00\xf0?'
p74
tp75
Rp76
sg32
I12
sg33
I-1
sg34
I512
sg35
F0.8
sg36
F0.18
sg37
I1024
sg38
F0.125
sg39
g22
(g26
S'\xb8\x1e\x85\xebQ\xb8\x8e?'
p77
tp78
Rp79
sg43
F0.25
sg44
I2
sg45
F0.1
sg46
F0.1
sg47
F0.6
sg48
I2
sg49
I12
sg50
g22
(g26
S'\x1e\x85\xebQ\xb8\x1e\xc5\xbf'
p80
tp81
Rp82
sg54
F1.5
sg55
I1
sg56
g57
sg58
I10
sg59
F0.1225
sg60
I1
sg61
I12
sg62
g22
(g26
S'\x00\x00\x00\x00\x00\x00\xf0\xbf'
p83
tp84
Rp85
sg66
I1
sg67
F0.5
sg68
g69
sg72
I15
sa(dp86
g4
I20
sg5
F0.3
sg6
F0.2
sg7
F0.05
sg8
F0.7
sg9
I8
sg10
I8
sg11
F0.99
sg12
F0.4
sg13
I64
sg14
F0.18
sg15
I0
sg16
I2
sg17
F1.5
sg18
F0.125
sg19
F0.9
sg20
F1.5
sg21
g22
(g26
S'\x00\x00\x00\x00\x00\x00\x00@'
p87
tp88
Rp89
sg32
I12
sg33
I-1
sg34
I512
sg35
F0.8
sg36
F0.18
sg37
I1024
sg38
F0.125
sg39
g22
(g26
S'233333\xc3?'
p90
tp91
Rp92
sg43
F0.25
sg44
I2
sg45
F0.1
sg46
F0.1
sg47
F0.6
sg48
I2
sg49
I12
sg50
g22
(g26
S'\xb8\x1e\x85\xebQ\xb8\x9e\xbf'
p93
tp94
Rp95
sg54
F1.5
sg55
I1
sg56
g57
sg58
I10
sg59
F0.1225
sg60
I1
sg61
I12
sg62
g22
(g26
S'\x00\x00\x00\x00\x00\x00\xf0\xbf'
p96
tp97
Rp98
sg66
I1
sg67
F0.5
sg68
g69
sg72
I15
sa(dp99
g4
I20
sg5
F0.3
sg6
F0.2
sg7
F0.05
sg8
F0.7
sg9
I8
sg10
I8
sg11
F0.99
sg12
F0.4
sg13
I64
sg14
F0.18
sg15
I0
sg16
I2
sg17
F1.5
sg18
F0.125
sg19
F0.9
sg20
F1.5
sg21
g22
(g26
S'\x00\x00\x00\x00\x00\x00\x08@'
p100
tp101
Rp102
sg32
I12
sg33
I-1
sg34
I512
sg35
F0.8
sg36
F0.18
sg37
I1024
sg38
F0.125
sg39
g22
(g26
S'\x1e\x85\xebQ\xb8\x1e\xc5?'
p103
tp104
Rp105
sg43
F0.25
sg44
I2
sg45
F0.1
sg46
F0.1
sg47
F0.6
sg48
I2
sg49
I12
sg50
g22
(g26
S'233333\xb3?'
p106
tp107
Rp108
sg54
F1.5
sg55
I1
sg56
g57
sg58
I10
sg59
F0.1225
sg60
I1
sg61
I12
sg62
g22
(g26
S'\x00\x00\x00\x00\x00\x00\xf0\xbf'
p109
tp110
Rp111
sg66
I1
sg67
F0.5
sg68
g69
sg72
I15
sa(dp112
g4
I20
sg5
F0.3
sg6
F0.2
sg7
F0.05
sg8
F0.7
sg9
I8
sg10
I8
sg11
F0.99
sg12
F0.4
sg13
I64
sg14
F0.18
sg15
I0
sg16
I2
sg17
F1.5
sg18
F0.125
sg19
F0.9
sg20
F1.5
sg21
g22
(g26
S'\x00\x00\x00\x00\x00\x00\x10@'
p113
tp114
Rp115
sg32
I12
sg33
I-1
sg34
I512
sg35
F0.8
sg36
F0.18
sg37
I1024
sg38
F0.125
sg39
g22
(g26
S'233333\xb3\xbf'
p116
tp117
Rp118
sg43
F0.25
sg44
I2
sg45
F0.1
sg46
F0.1
sg47
F0.6
sg48
I2
sg49
I12
sg50
g22
(g26
S'\t\xd7\xa3p=\n\xb7\xbf'
p119
tp120
Rp121
sg54
F1.5
sg55
I1
sg56
g57
sg58
I10
sg59
F0.1225
sg60
I1
sg61
I12
sg62
g22
(g26
S'\x00\x00\x00\x00\x00\x00\xf0\xbf'
p122
tp123
Rp124
sg66
I1
sg67
F0.5
sg68
g69
sg72
I15
sa(dp125
g4
I20
sg5
F0.3
sg6
F0.2
sg7
F0.05
sg8
F0.7
sg9
I8
sg10
I8
sg11
F0.99
sg12
F0.4
sg13
I64
sg14
F0.18
sg15
I0
sg16
I2
sg17
F1.5
sg18
F0.125
sg19
F0.9
sg20
F1.5
sg21
g22
(g26
S'\x00\x00\x00\x00\x00\x00\x14@'
p126
tp127
Rp128
sg32
I12
sg33
I-1
sg34
I512
sg35
F0.8
sg36
F0.18
sg37
I1024
sg38
F0.125
sg39
g22
(g26
S'233333\xc3\xbf'
p129
tp130
Rp131
sg43
F0.25
sg44
I2
sg45
F0.1
sg46
F0.1
sg47
F0.6
sg48
I2
sg49
I12
sg50
g22
(g26
S'\t\xd7\xa3p=\n\xb7\xbf'
p132
tp133
Rp134
sg54
F1.5
sg55
I1
sg56
g57
sg58
I10
sg59
F0.1225
sg60
I1
sg61
I12
sg62
g22
(g26
S'\x00\x00\x00\x00\x00\x00\xf0\xbf'
p135
tp136
Rp137
sg66
I1
sg67
F0.5
sg68
g69
sg72
I15
sa(dp138
g4
I20
sg5
F0.3
sg6
F0.2
sg7
F0.05
sg8
F0.7
sg9
I8
sg10
I8
sg11
F0.99
sg12
F0.4
sg13
I64
sg14
F0.18
sg15
I0
sg16
I2
sg17
F1.5
sg18
F0.125
sg19
F0.9
sg20
F1.5
sg21
g22
(g26
S'\x00\x00\x00\x00\x00\x00\x18@'
p139
tp140
Rp141
sg32
I12
sg33
I-1
sg34
I512
sg35
F0.8
sg36
F0.18
sg37
I1024
sg38
F0.125
sg39
g22
(g26
S'\xb7\x1e\x85\xebQ\xb8\xbe?'
p142
tp143
Rp144
sg43
F0.25
sg44
I2
sg45
F0.1
sg46
F0.1
sg47
F0.6
sg48
I2
sg49
I12
sg50
g22
(g26
S'\xe0z\x14\xaeG\xe1\xba\xbf'
p145
tp146
Rp147
sg54
F1.5
sg55
I1
sg56
g57
sg58
I10
sg59
F0.1225
sg60
I1
sg61
I12
sg62
g22
(g26
S'\x00\x00\x00\x00\x00\x00\xf0\xbf'
p148
tp149
Rp150
sg66
I1
sg67
F0.5
sg68
g69
sg72
I15
sa(dp151
g4
I20
sg5
F0.3
sg6
F0.2
sg7
F0.05
sg8
F0.7
sg9
I8
sg10
I8
sg11
F0.99
sg12
F0.4
sg13
I64
sg14
F0.18
sg15
I0
sg16
I2
sg17
F1.5
sg18
F0.125
sg19
F0.9
sg20
F1.5
sg21
g22
(g26
S'\x00\x00\x00\x00\x00\x00\x1c@'
p152
tp153
Rp154
sg32
I12
sg33
I-1
sg34
I512
sg35
F0.8
sg36
F0.18
sg37
I1024
sg38
F0.125
sg39
g22
(g26
S'\xb7\x1e\x85\xebQ\xb8\xae?'
p155
tp156
Rp157
sg43
F0.25
sg44
I2
sg45
F0.1
sg46
F0.1
sg47
F0.6
sg48
I2
sg49
I12
sg50
g22
(g26
S'\xb8\x1e\x85\xebQ\xb8\x8e?'
p158
tp159
Rp160
sg54
F1.5
sg55
I1
sg56
g57
sg58
I10
sg59
F0.1225
sg60
I1
sg61
I12
sg62
g22
(g26
S'\x00\x00\x00\x00\x00\x00\xf0\xbf'
p161
tp162
Rp163
sg66
I1
sg67
F0.5
sg68
g69
sg72
I15
sa(dp164
g4
I20
sg5
F0.3
sg6
F0.2
sg7
F0.05
sg8
F0.7
sg9
I8
sg10
I8
sg11
F0.99
sg12
F0.4
sg13
I64
sg14
F0.18
sg15
I0
sg16
I2
sg17
F1.5
sg18
F0.125
sg19
F0.9
sg20
F1.5
sg21
g22
(g26
S'\x00\x00\x00\x00\x00\x00 @'
p165
tp166
Rp167
sg32
I12
sg33
I-1
sg34
I512
sg35
F0.8
sg36
F0.18
sg37
I1024
sg38
F0.125
sg39
g22
(g26
S'\n\xd7\xa3p=\n\xc7?'
p168
tp169
Rp170
sg43
F0.25
sg44
I2
sg45
F0.1
sg46
F0.1
sg47
F0.6
sg48
I2
sg49
I12
sg50
g22
(g26
S'\xb7\x1e\x85\xebQ\xb8\xbe?'
p171
tp172
Rp173
sg54
F1.5
sg55
I1
sg56
g57
sg58
I10
sg59
F0.1225
sg60
I1
sg61
I12
sg62
g22
(g26
S'\x00\x00\x00\x00\x00\x00\xf0\xbf'
p174
tp175
Rp176
sg66
I1
sg67
F0.5
sg68
g69
sg72
I15
sa(dp177
g4
I20
sg5
F0.3
sg6
F0.2
sg7
F0.05
sg8
F0.7
sg9
I8
sg10
I8
sg11
F0.99
sg12
F0.4
sg13
I64
sg14
F0.18
sg15
I0
sg16
I2
sg17
F1.5
sg18
F0.125
sg19
F0.9
sg20
F1.5
sg21
g22
(g26
S'\x00\x00\x00\x00\x00\x00"@'
p178
tp179
Rp180
sg32
I12
sg33
I-1
sg34
I512
sg35
F0.8
sg36
F0.18
sg37
I1024
sg38
F0.125
sg39
g22
(g26
S'\n\xd7\xa3p=\n\xc7?'
p181
tp182
Rp183
sg43
F0.25
sg44
I2
sg45
F0.1
sg46
F0.1
sg47
F0.6
sg48
I2
sg49
I12
sg50
g22
(g26
S'G\xe1z\x14\xaeG\xc1?'
p184
tp185
Rp186
sg54
F1.5
sg55
I1
sg56
g57
sg58
I10
sg59
F0.1225
sg60
I1
sg61
I12
sg62
g22
(g26
S'\x00\x00\x00\x00\x00\x00\xf0\xbf'
p187
tp188
Rp189
sg66
I1
sg67
F0.5
sg68
g69
sg72
I15
sa(dp190
g4
I20
sg5
F0.3
sg6
F0.2
sg7
F0.05
sg8
F0.7
sg9
I8
sg10
I8
sg11
F0.99
sg12
F0.4
sg13
I64
sg14
F0.18
sg15
I0
sg16
I2
sg17
F1.5
sg18
F0.125
sg19
F0.9
sg20
F1.5
sg21
g22
(g26
S'\x00\x00\x00\x00\x00\x00\x00\x00'
p191
tp192
Rp193
sg32
I12
sg33
I-1
sg34
I512
sg35
F0.8
sg36
F0.18
sg37
I1024
sg38
F0.125
sg39
g22
(g26
S'\x1e\x85\xebQ\xb8\x1e\xc5\xbf'
p194
tp195
Rp196
sg43
F0.25
sg44
I2
sg45
F0.1
sg46
F0.1
sg47
F0.6
sg48
I2
sg49
I12
sg50
g22
(g26
S'\t\xd7\xa3p=\n\xb7?'
p197
tp198
Rp199
sg54
F1.5
sg55
I1
sg56
g57
sg58
I10
sg59
F0.1225
sg60
I1
sg61
I12
sg62
g22
(g26
S'\x00\x00\x00\x00\x00\x00\x00\x00'
p200
tp201
Rp202
sg66
I1
sg67
F0.5
sg68
g69
sg72
I15
sa(dp203
g4
I20
sg5
F0.3
sg6
F0.2
sg7
F0.05
sg8
F0.7
sg9
I8
sg10
I8
sg11
F0.99
sg12
F0.4
sg13
I64
sg14
F0.18
sg15
I0
sg16
I2
sg17
F1.5
sg18
F0.125
sg19
F0.9
sg20
F1.5
sg21
g22
(g26
S'\x00\x00\x00\x00\x00\x00\xf0?'
p204
tp205
Rp206
sg32
I12
sg33
I-1
sg34
I512
sg35
F0.8
sg36
F0.18
sg37
I1024
sg38
F0.125
sg39
g22
(g26
S'\xb7\x1e\x85\xebQ\xb8\xbe\xbf'
p207
tp208
Rp209
sg43
F0.25
sg44
I2
sg45
F0.1
sg46
F0.1
sg47
F0.6
sg48
I2
sg49
I12
sg50
g22
(g26
S'233333\xb3\xbf'
p210
tp211
Rp212
sg54
F1.5
sg55
I1
sg56
g57
sg58
I10
sg59
F0.1225
sg60
I1
sg61
I12
sg62
g22
(g26
S'\x00\x00\x00\x00\x00\x00\x00\x00'
p213
tp214
Rp215
sg66
I1
sg67
F0.5
sg68
g69
sg72
I15
sa(dp216
g4
I20
sg5
F0.3
sg6
F0.2
sg7
F0.05
sg8
F0.7
sg9
I8
sg10
I8
sg11
F0.99
sg12
F0.4
sg13
I64
sg14
F0.18
sg15
I0
sg16
I2
sg17
F1.5
sg18
F0.125
sg19
F0.9
sg20
F1.5
sg21
g22
(g26
S'\x00\x00\x00\x00\x00\x00\x00@'
p217
tp218
Rp219
sg32
I12
sg33
I-1
sg34
I512
sg35
F0.8
sg36
F0.18
sg37
I1024
sg38
F0.125
sg39
g22
(g26
S'\x1e\x85\xebQ\xb8\x1e\xc5\xbf'
p220
tp221
Rp222
sg43
F0.25
sg44
I2
sg45
F0.1
sg46
F0.1
sg47
F0.6
sg48
I2
sg49
I12
sg50
g22
(g26
S'G\xe1z\x14\xaeG\xc1\xbf'
p223
tp224
Rp225
sg54
F1.5
sg55
I1
sg56
g57
sg58
I10
sg59
F0.1225
sg60
I1
sg61
I12
sg62
g22
(g26
S'\x00\x00\x00\x00\x00\x00\x00\x00'
p226
tp227
Rp228
sg66
I1
sg67
F0.5
sg68
g69
sg72
I15
sa(dp229
g4
I20
sg5
F0.3
sg6
F0.2
sg7
F0.05
sg8
F0.7
sg9
I8
sg10
I8
sg11
F0.99
sg12
F0.4
sg13
I64
sg14
F0.18
sg15
I0
sg16
I2
sg17
F1.5
sg18
F0.125
sg19
F0.9
sg20
F1.5
sg21
g22
(g26
S'\x00\x00\x00\x00\x00\x00\x08@'
p230
tp231
Rp232
sg32
I12
sg33
I-1
sg34
I512
sg35
F0.8
sg36
F0.18
sg37
I1024
sg38
F0.125
sg39
g22
(g26
S'\n\xd7\xa3p=\n\xc7?'
p233
tp234
Rp235
sg43
F0.25
sg44
I2
sg45
F0.1
sg46
F0.1
sg47
F0.6
sg48
I2
sg49
I12
sg50
g22
(g26
S'233333\xb3?'
p236
tp237
Rp238
sg54
F1.5
sg55
I1
sg56
g57
sg58
I10
sg59
F0.1225
sg60
I1
sg61
I12
sg62
g22
(g26
S'\x00\x00\x00\x00\x00\x00\x00\x00'
p239
tp240
Rp241
sg66
I1
sg67
F0.5
sg68
g69
sg72
I15
sa(dp242
g4
I20
sg5
F0.3
sg6
F0.2
sg7
F0.05
sg8
F0.7
sg9
I8
sg10
I8
sg11
F0.99
sg12
F0.4
sg13
I64
sg14
F0.18
sg15
I0
sg16
I2
sg17
F1.5
sg18
F0.125
sg19
F0.9
sg20
F1.5
sg21
g22
(g26
S'\x00\x00\x00\x00\x00\x00\x10@'
p243
tp244
Rp245
sg32
I12
sg33
I-1
sg34
I512
sg35
F0.8
sg36
F0.18
sg37
I1024
sg38
F0.125
sg39
g22
(g26
S'G\xe1z\x14\xaeG\xc1?'
p246
tp247
Rp248
sg43
F0.25
sg44
I2
sg45
F0.1
sg46
F0.1
sg47
F0.6
sg48
I2
sg49
I12
sg50
g22
(g26
S'\xb7\x1e\x85\xebQ\xb8\xbe\xbf'
p249
tp250
Rp251
sg54
F1.5
sg55
I1
sg56
g57
sg58
I10
sg59
F0.1225
sg60
I1
sg61
I12
sg62
g22
(g26
S'\x00\x00\x00\x00\x00\x00\x00\x00'
p252
tp253
Rp254
sg66
I1
sg67
F0.5
sg68
g69
sg72
I15
sa(dp255
g4
I20
sg5
F0.3
sg6
F0.2
sg7
F0.05
sg8
F0.7
sg9
I8
sg10
I8
sg11
F0.99
sg12
F0.4
sg13
I64
sg14
F0.18
sg15
I0
sg16
I2
sg17
F1.5
sg18
F0.125
sg19
F0.9
sg20
F1.5
sg21
g22
(g26
S'\x00\x00\x00\x00\x00\x00\x14@'
p256
tp257
Rp258
sg32
I12
sg33
I-1
sg34
I512
sg35
F0.8
sg36
F0.18
sg37
I1024
sg38
F0.125
sg39
g22
(g26
S'233333\xc3\xbf'
p259
tp260
Rp261
sg43
F0.25
sg44
I2
sg45
F0.1
sg46
F0.1
sg47
F0.6
sg48
I2
sg49
I12
sg50
g22
(g26
S'\t\xd7\xa3p=\n\xb7?'
p262
tp263
Rp264
sg54
F1.5
sg55
I1
sg56
g57
sg58
I10
sg59
F0.1225
sg60
I1
sg61
I12
sg62
g22
(g26
S'\x00\x00\x00\x00\x00\x00\x00\x00'
p265
tp266
Rp267
sg66
I1
sg67
F0.5
sg68
g69
sg72
I15
sa(dp268
g4
I20
sg5
F0.3
sg6
F0.2
sg7
F0.05
sg8
F0.7
sg9
I8
sg10
I8
sg11
F0.99
sg12
F0.4
sg13
I64
sg14
F0.18
sg15
I0
sg16
I2
sg17
F1.5
sg18
F0.125
sg19
F0.9
sg20
F1.5
sg21
g22
(g26
S'\x00\x00\x00\x00\x00\x00\x18@'
p269
tp270
Rp271
sg32
I12
sg33
I-1
sg34
I512
sg35
F0.8
sg36
F0.18
sg37
I1024
sg38
F0.125
sg39
g22
(g26
S'\xb7\x1e\x85\xebQ\xb8\xbe\xbf'
p272
tp273
Rp274
sg43
F0.25
sg44
I2
sg45
F0.1
sg46
F0.1
sg47
F0.6
sg48
I2
sg49
I12
sg50
g22
(g26
S'\xb7\x1e\x85\xebQ\xb8\xbe?'
p275
tp276
Rp277
sg54
F1.5
sg55
I1
sg56
g57
sg58
I10
sg59
F0.1225
sg60
I1
sg61
I12
sg62
g22
(g26
S'\x00\x00\x00\x00\x00\x00\x00\x00'
p278
tp279
Rp280
sg66
I1
sg67
F0.5
sg68
g69
sg72
I15
sa(dp281
g4
I20
sg5
F0.3
sg6
F0.2
sg7
F0.05
sg8
F0.7
sg9
I8
sg10
I8
sg11
F0.99
sg12
F0.4
sg13
I64
sg14
F0.18
sg15
I0
sg16
I2
sg17
F1.5
sg18
F0.125
sg19
F0.9
sg20
F1.5
sg21
g22
(g26
S'\x00\x00\x00\x00\x00\x00\x1c@'
p282
tp283
Rp284
sg32
I12
sg33
I-1
sg34
I512
sg35
F0.8
sg36
F0.18
sg37
I1024
sg38
F0.125
sg39
g22
(g26
S'\xb7\x1e\x85\xebQ\xb8\xae\xbf'
p285
tp286
Rp287
sg43
F0.25
sg44
I2
sg45
F0.1
sg46
F0.1
sg47
F0.6
sg48
I2
sg49
I12
sg50
g22
(g26
S'\n\xd7\xa3p=\n\xc7?'
p288
tp289
Rp290
sg54
F1.5
sg55
I1
sg56
g57
sg58
I10
sg59
F0.1225
sg60
I1
sg61
I12
sg62
g22
(g26
S'\x00\x00\x00\x00\x00\x00\x00\x00'
p291
tp292
Rp293
sg66
I1
sg67
F0.5
sg68
g69
sg72
I15
sa(dp294
g4
I20
sg5
F0.3
sg6
F0.2
sg7
F0.05
sg8
F0.7
sg9
I8
sg10
I8
sg11
F0.99
sg12
F0.4
sg13
I64
sg14
F0.18
sg15
I0
sg16
I2
sg17
F1.5
sg18
F0.125
sg19
F0.9
sg20
F1.5
sg21
g22
(g26
S'\x00\x00\x00\x00\x00\x00 @'
p295
tp296
Rp297
sg32
I12
sg33
I-1
sg34
I512
sg35
F0.8
sg36
F0.18
sg37
I1024
sg38
F0.125
sg39
g22
(g26
S'G\xe1z\x14\xaeG\xc1?'
p298
tp299
Rp300
sg43
F0.25
sg44
I2
sg45
F0.1
sg46
F0.1
sg47
F0.6
sg48
I2
sg49
I12
sg50
g22
(g26
S'\xb8\x1e\x85\xebQ\xb8\x8e?'
p301
tp302
Rp303
sg54
F1.5
sg55
I1
sg56
g57
sg58
I10
sg59
F0.1225
sg60
I1
sg61
I12
sg62
g22
(g26
S'\x00\x00\x00\x00\x00\x00\x00\x00'
p304
tp305
Rp306
sg66
I1
sg67
F0.5
sg68
g69
sg72
I15
sa(dp307
g4
I20
sg5
F0.3
sg6
F0.2
sg7
F0.05
sg8
F0.7
sg9
I8
sg10
I8
sg11
F0.99
sg12
F0.4
sg13
I64
sg14
F0.18
sg15
I0
sg16
I2
sg17
F1.5
sg18
F0.125
sg19
F0.9
sg20
F1.5
sg21
g22
(g26
S'\x00\x00\x00\x00\x00\x00"@'
p308
tp309
Rp310
sg32
I12
sg33
I-1
sg34
I512
sg35
F0.8
sg36
F0.18
sg37
I1024
sg38
F0.125
sg39
g22
(g26
S'233333\xc3?'
p311
tp312
Rp313
sg43
F0.25
sg44
I2
sg45
F0.1
sg46
F0.1
sg47
F0.6
sg48
I2
sg49
I12
sg50
g22
(g26
S'\n\xd7\xa3p=\n\xc7?'
p314
tp315
Rp316
sg54
F1.5
sg55
I1
sg56
g57
sg58
I10
sg59
F0.1225
sg60
I1
sg61
I12
sg62
g22
(g26
S'\x00\x00\x00\x00\x00\x00\x00\x00'
p317
tp318
Rp319
sg66
I1
sg67
F0.5
sg68
g69
sg72
I15
sa(dp320
g4
I20
sg5
F0.3
sg6
F0.2
sg7
F0.05
sg8
F0.7
sg9
I8
sg10
I8
sg11
F0.99
sg12
F0.4
sg13
I64
sg14
F0.18
sg15
I0
sg16
I2
sg17
F1.5
sg18
F0.125
sg19
F0.9
sg20
F1.5
sg21
g22
(g26
S'\x00\x00\x00\x00\x00\x00$@'
p321
tp322
Rp323
sg32
I12
sg33
I-1
sg34
I512
sg35
F0.8
sg36
F0.18
sg37
I1024
sg38
F0.125
sg39
g22
(g26
S'233333\xb3\xbf'
p324
tp325
Rp326
sg43
F0.25
sg44
I2
sg45
F0.1
sg46
F0.1
sg47
F0.6
sg48
I2
sg49
I12
sg50
g22
(g26
S'\xb8\x1e\x85\xebQ\xb8\x8e\xbf'
p327
tp328
Rp329
sg54
F1.5
sg55
I1
sg56
g57
sg58
I10
sg59
F0.1225
sg60
I1
sg61
I12
sg62
g22
(g26
S'\x00\x00\x00\x00\x00\x00\x00\x00'
p330
tp331
Rp332
sg66
I1
sg67
F0.5
sg68
g69
sg72
I15
sa(dp333
g4
I20
sg5
F0.3
sg6
F0.2
sg7
F0.05
sg8
F0.7
sg9
I8
sg10
I8
sg11
F0.99
sg12
F0.4
sg13
I64
sg14
F0.18
sg15
I0
sg16
I2
sg17
F1.5
sg18
F0.125
sg19
F0.9
sg20
F1.5
sg21
g22
(g26
S'\x00\x00\x00\x00\x00\x00&@'
p334
tp335
Rp336
sg32
I12
sg33
I-1
sg34
I512
sg35
F0.8
sg36
F0.18
sg37
I1024
sg38
F0.125
sg39
g22
(g26
S'\n\xd7\xa3p=\n\xc7?'
p337
tp338
Rp339
sg43
F0.25
sg44
I2
sg45
F0.1
sg46
F0.1
sg47
F0.6
sg48
I2
sg49
I12
sg50
g22
(g26
S'233333\xb3\xbf'
p340
tp341
Rp342
sg54
F1.5
sg55
I1
sg56
g57
sg58
I10
sg59
F0.1225
sg60
I1
sg61
I12
sg62
g22
(g26
S'\x00\x00\x00\x00\x00\x00\x00\x00'
p343
tp344
Rp345
sg66
I1
sg67
F0.5
sg68
g69
sg72
I15
sa(dp346
g4
I20
sg5
F0.3
sg6
F0.2
sg7
F0.05
sg8
F0.7
sg9
I8
sg10
I8
sg11
F0.99
sg12
F0.4
sg13
I64
sg14
F0.18
sg15
I0
sg16
I2
sg17
F1.5
sg18
F0.125
sg19
F0.9
sg20
F1.5
sg21
g22
(g26
S'\x00\x00\x00\x00\x00\x00(@'
p347
tp348
Rp349
sg32
I12
sg33
I-1
sg34
I512
sg35
F0.8
sg36
F0.18
sg37
I1024
sg38
F0.125
sg39
g22
(g26
S'\xb7\x1e\x85\xebQ\xb8\xbe\xbf'
p350
tp351
Rp352
sg43
F0.25
sg44
I2
sg45
F0.1
sg46
F0.1
sg47
F0.6
sg48
I2
sg49
I12
sg50
g22
(g26
S'\xb7\x1e\x85\xebQ\xb8\xae?'
p353
tp354
Rp355
sg54
F1.5
sg55
I1
sg56
g57
sg58
I10
sg59
F0.1225
sg60
I1
sg61
I12
sg62
g22
(g26
S'\x00\x00\x00\x00\x00\x00\x00\x00'
p356
tp357
Rp358
sg66
I1
sg67
F0.5
sg68
g69
sg72
I15
sa(dp359
g4
I20
sg5
F0.3
sg6
F0.2
sg7
F0.05
sg8
F0.7
sg9
I8
sg10
I8
sg11
F0.99
sg12
F0.4
sg13
I64
sg14
F0.18
sg15
I0
sg16
I2
sg17
F1.5
sg18
F0.125
sg19
F0.9
sg20
F1.5
sg21
g22
(g26
S'\x00\x00\x00\x00\x00\x00*@'
p360
tp361
Rp362
sg32
I12
sg33
I-1
sg34
I512
sg35
F0.8
sg36
F0.18
sg37
I1024
sg38
F0.125
sg39
g22
(g26
S'G\xe1z\x14\xaeG\xc1?'
p363
tp364
Rp365
sg43
F0.25
sg44
I2
sg45
F0.1
sg46
F0.1
sg47
F0.6
sg48
I2
sg49
I12
sg50
g22
(g26
S'233333\xb3\xbf'
p366
tp367
Rp368
sg54
F1.5
sg55
I1
sg56
g57
sg58
I10
sg59
F0.1225
sg60
I1
sg61
I12
sg62
g22
(g26
S'\x00\x00\x00\x00\x00\x00\x00\x00'
p369
tp370
Rp371
sg66
I1
sg67
F0.5
sg68
g69
sg72
I15
sag359
asS'eventArray'
p372
(lp373
(lp374
S'trial 0 started at 3.77618789673'
p375
aS'trial 0 phase 1 started at 7.27881097794'
p376
aS'trial 0 event space at 7.27882695198'
p377
aS'trial 0 phase 2 started at 7.49944090843'
p378
aS'trial 0 phase 3 started at 8.01578807831'
p379
aa(lp380
S'trial 1 started at 8.78828501701'
p381
aS'trial 1 phase 1 started at 8.78829598427'
p382
aS'trial 1 phase 2 started at 9.04912805557'
p383
aS'trial 1 phase 3 started at 9.54951190948'
p384
aa(lp385
S'trial 2 started at 10.3317129612'
p386
aS'trial 2 phase 1 started at 10.3317239285'
p387
aS'trial 2 phase 2 started at 10.5823431015'
p388
aS'trial 2 phase 3 started at 11.0985970497'
p389
aa(lp390
S'trial 3 started at 11.8648509979'
p391
aS'trial 3 phase 1 started at 11.8648629189'
p392
aS'trial 3 phase 2 started at 12.1164879799'
p393
aS'trial 3 phase 3 started at 12.6318380833'
p394
aa(lp395
S'trial 4 started at 13.3978989124'
p396
aS'trial 4 phase 1 started at 13.3979098797'
p397
aS'trial 4 phase 2 started at 13.6487300396'
p398
aS'trial 4 phase 3 started at 14.1648230553'
p399
aa(lp400
S'trial 5 started at 14.9276020527'
p401
aS'trial 5 phase 1 started at 14.9276139736'
p402
aS'trial 5 phase 2 started at 15.1816809177'
p403
aS'trial 5 phase 3 started at 15.6981680393'
p404
aa(lp405
S'trial 6 started at 16.4815239906'
p406
aS'trial 6 phase 1 started at 16.4815349579'
p407
aS'trial 6 phase 2 started at 16.7484409809'
p408
aS'trial 6 phase 3 started at 17.2646789551'
p409
aa(lp410
S'trial 7 started at 18.0478610992'
p411
aS'trial 7 phase 1 started at 18.0478730202'
p412
aS'trial 7 phase 2 started at 18.2980089188'
p413
aS'trial 7 phase 3 started at 18.7982919216'
p414
aa(lp415
S'trial 8 started at 19.5805180073'
p416
aS'trial 8 phase 1 started at 19.5805289745'
p417
aS'trial 8 phase 2 started at 19.8313970566'
p418
aS'trial 8 phase 3 started at 20.3318390846'
p419
aa(lp420
S'trial 9 started at 21.1135599613'
p421
aS'trial 9 phase 1 started at 21.1135718822'
p422
aS'trial 9 phase 2 started at 21.3642420769'
p423
aS'trial 9 phase 3 started at 21.8804030418'
p424
aa(lp425
S'trial 10 started at 22.6464459896'
p426
aS'trial 10 phase 1 started at 22.6464569569'
p427
aS'trial 10 phase 2 started at 22.8978440762'
p428
aS'trial 10 phase 3 started at 23.4146718979'
p429
aa(lp430
S'trial 11 started at 24.1964581013'
p431
aS'trial 11 phase 1 started at 24.1964690685'
p432
aS'trial 11 phase 2 started at 24.4480450153'
p433
aS'trial 11 phase 3 started at 24.9639680386'
p434
aa(lp435
S'trial 12 started at 25.7505919933'
p436
aS'trial 12 phase 1 started at 25.7506048679'
p437
aS'trial 12 phase 2 started at 26.0138459206'
p438
aS'trial 12 phase 3 started at 26.5304639339'
p439
aa(lp440
S'trial 13 started at 27.2961969376'
p441
aS'trial 13 phase 1 started at 27.2962090969'
p442
aS'trial 13 phase 2 started at 27.5474429131'
p443
aS'trial 13 phase 3 started at 28.0640490055'
p444
aa(lp445
S'trial 14 started at 28.8444690704'
p446
aS'trial 14 phase 1 started at 28.8444800377'
p447
aS'trial 14 phase 2 started at 29.0972719193'
p448
aS'trial 14 phase 3 started at 29.6134779453'
p449
aa(lp450
S'trial 15 started at 30.3812439442'
p451
aS'trial 15 phase 1 started at 30.3812549114'
p452
aS'trial 15 phase 2 started at 30.647012949'
p453
aS'trial 15 phase 3 started at 31.1633269787'
p454
aa(lp455
S'trial 16 started at 31.9458799362'
p456
aS'trial 16 phase 1 started at 31.9458920956'
p457
aS'trial 16 phase 2 started at 32.1969249249'
p458
aS'trial 16 phase 3 started at 32.7131209373'
p459
aa(lp460
S'trial 17 started at 33.4774899483'
p461
aS'trial 17 phase 1 started at 33.4775009155'
p462
aS'trial 17 phase 2 started at 33.7293710709'
p463
aS'trial 17 phase 3 started at 34.2298998833'
p464
aa(lp465
S'trial 18 started at 35.0102069378'
p466
aS'trial 18 phase 1 started at 35.010217905'
p467
aS'trial 18 phase 2 started at 35.263117075'
p468
aS'trial 18 phase 3 started at 35.7794408798'
p469
aa(lp470
S'trial 19 started at 36.543022871'
p471
aS'trial 19 phase 1 started at 36.5430350304'
p472
aS'trial 19 phase 2 started at 36.7960848808'
p473
aS'trial 19 phase 3 started at 37.3126990795'
p474
aa(lp475
S'trial 20 started at 38.0788528919'
p476
aS'trial 20 phase 1 started at 38.0788640976'
p477
aS'trial 20 phase 2 started at 38.3292980194'
p478
aS'trial 20 phase 3 started at 38.8464660645'
p479
aa(lp480
S'trial 21 started at 39.63032794'
p481
aS'trial 21 phase 1 started at 39.6303400993'
p482
aS'trial 21 phase 2 started at 39.896283865'
p483
aS'trial 21 phase 3 started at 40.4125850201'
p484
aa(lp485
S'trial 22 started at 41.1963748932'
p486
aS'trial 22 phase 1 started at 41.1963880062'
p487
aS'trial 22 phase 2 started at 41.4625849724'
p488
aS'trial 22 phase 3 started at 41.9789500237'
p489
aa(lp490
S'trial 23 started at 42.7646069527'
p491
aS'trial 23 phase 1 started at 42.7646229267'
p492
a(lp493
I-99
aF0.11735010147094727
aaS'trial 23 event escape at 42.8820059299'
p494
aag490
as.