(dp0
S'parameterArray'
p1
(lp2
(dp3
Vprf_stim_barpass_duration
p4
I20
sVblobstim_fix_opacity
p5
F0.3
sVpixstim_fix_aperture_fraction
p6
F0.2
sVblobstim_fix_ecc_min
p7
F0.05
sVpost_fix_time
p8
F0.4
sVpixstim_bg_noise_n_textures
p9
I8
sVpixstim_fix_noise_n_textures
p10
I8
sVpixstim_bg_aperture_fraction
p11
F0.95
sVpsychometric_curve_nr_steps_oneside
p12
I6
sVsize_fixation_deg
p13
F0.4
sVpixstim_fix_tex_size
p14
I64
sVpsychometric_curve_interval
p15
F0.15
sVin_scanner
p16
I0
sVblobstim_fix_nr_blobrows_per_ring
p17
I2
sVTR
p18
F1.2
sVblobstim_bg_opacity
p19
F0.125
sVblobstim_fix_spacing_factor
p20
F0.9
sVpixstim_fix_amplitude_exponent
p21
I1
sS'pos_in_bar_trajectory'
p22
I0
sS'answer'
p23
I-1
sVprf_checker_tex_nr_pix
p24
I512
sVblobstim_bg_spacing_factor
p25
F0.8
sVpixstim_bg_tex_size
p26
I1024
sVprf_checker_bar_width
p27
F0.125
sS'bg_trial_stimulus_value'
p28
cnumpy.core.multiarray
scalar
p29
(cnumpy
dtype
p30
(S'f8'
p31
I0
I1
tp32
Rp33
(I3
S'<'
p34
NNNI-1
I-1
I0
tp35
bS'\xb8\x1e\x85\xebQ\xb8\xae?'
p36
tp37
Rp38
sVfix_time
p39
F0.5
sVprf_checker_cycles_in_bar
p40
I2
sVpixstim_bg_opacity
p41
F0.1
sVblobstim_bg_ecc_min
p42
F0.1
sVpixstim_fix_opacity
p43
F0.4
sVprf_checker_flicker_frequency
p44
I6
sVblobstim_bg_nr_blobrows_per_ring
p45
I12
sS'fix_trial_stimulus_value'
p46
g29
(g33
S'\xb8\x1e\x85\xebQ\xb8\xae?'
p47
tp48
Rp49
sVpixstim_bg_amplitude_exponent
p50
I1
sVwhich_stimulus_type
p51
I1
sVprf_stim_sequence_angles
p52
(lp53
I-1
aI0
aI225
aI-1
aI90
aI135
aI-1
aI180
aI45
aI-1
aI270
aI135
aI-1
asVprf_stim_blank_duration
p54
I10
sVaperture_stim_sd
p55
F0.1225
sVblobstim_bg_nr_rings
p56
I1
sS'bar_orientation'
p57
I-1
sVblobstim_fix_nr_ring
p58
I1
sVstim_time
p59
F0.2
sVanswer_dictionary
p60
(dp61
Vy
p62
I1
sVb
p63
I0
ssVblobstim_bg_ecc_max
p64
I15
sa(dp65
g4
I20
sg5
F0.3
sg6
F0.2
sg7
F0.05
sg8
F0.4
sg9
I8
sg10
I8
sg11
F0.95
sg12
I6
sg13
F0.4
sg14
I64
sg15
F0.15
sg16
I0
sg17
I2
sg18
F1.2
sg19
F0.125
sg20
F0.9
sg21
I1
sg22
I1
sg23
I-1
sg24
I512
sg25
F0.8
sg26
I1024
sg27
F0.125
sg28
g29
(g33
S'\xb8\x1e\x85\xebQ\xb8\x9e\xbf'
p66
tp67
Rp68
sg39
F0.5
sg40
I2
sg41
F0.1
sg42
F0.1
sg43
F0.4
sg44
I6
sg45
I12
sg46
g29
(g33
S'\xb8\x1e\x85\xebQ\xb8\x9e?'
p69
tp70
Rp71
sg50
I1
sg51
I1
sg52
g53
sg54
I10
sg55
F0.1225
sg56
I1
sg57
I-1
sg58
I1
sg59
F0.2
sg60
g61
sg64
I15
sa(dp72
g4
I20
sg5
F0.3
sg6
F0.2
sg7
F0.05
sg8
F0.4
sg9
I8
sg10
I8
sg11
F0.95
sg12
I6
sg13
F0.4
sg14
I64
sg15
F0.15
sg16
I0
sg17
I2
sg18
F1.2
sg19
F0.125
sg20
F0.9
sg21
I1
sg22
I2
sg23
I-1
sg24
I512
sg25
F0.8
sg26
I1024
sg27
F0.125
sg28
g29
(g33
S'\n\xd7\xa3p=\n\xb7?'
p73
tp74
Rp75
sg39
F0.5
sg40
I2
sg41
F0.1
sg42
F0.1
sg43
F0.4
sg44
I6
sg45
I12
sg46
g29
(g33
S'\xb8\x1e\x85\xebQ\xb8\xbe\xbf'
p76
tp77
Rp78
sg50
I1
sg51
I1
sg52
g53
sg54
I10
sg55
F0.1225
sg56
I1
sg57
I-1
sg58
I1
sg59
F0.2
sg60
g61
sg64
I15
sa(dp79
g4
I20
sg5
F0.3
sg6
F0.2
sg7
F0.05
sg8
F0.4
sg9
I8
sg10
I8
sg11
F0.95
sg12
I6
sg13
F0.4
sg14
I64
sg15
F0.15
sg16
I0
sg17
I2
sg18
F1.2
sg19
F0.125
sg20
F0.9
sg21
I1
sg22
I3
sg23
I-1
sg24
I512
sg25
F0.8
sg26
I1024
sg27
F0.125
sg28
g29
(g33
S'\n\xd7\xa3p=\n\xb7?'
p80
tp81
Rp82
sg39
F0.5
sg40
I2
sg41
F0.1
sg42
F0.1
sg43
F0.4
sg44
I6
sg45
I12
sg46
g29
(g33
S'\n\xd7\xa3p=\n\xb7?'
p83
tp84
Rp85
sg50
I1
sg51
I1
sg52
g53
sg54
I10
sg55
F0.1225
sg56
I1
sg57
I-1
sg58
I1
sg59
F0.2
sg60
g61
sg64
I15
sa(dp86
g4
I20
sg5
F0.3
sg6
F0.2
sg7
F0.05
sg8
F0.4
sg9
I8
sg10
I8
sg11
F0.95
sg12
I6
sg13
F0.4
sg14
I64
sg15
F0.15
sg16
I0
sg17
I2
sg18
F1.2
sg19
F0.125
sg20
F0.9
sg21
I1
sg22
I4
sg23
I-1
sg24
I512
sg25
F0.8
sg26
I1024
sg27
F0.125
sg28
g29
(g33
S'333333\xc3\xbf'
p87
tp88
Rp89
sg39
F0.5
sg40
I2
sg41
F0.1
sg42
F0.1
sg43
F0.4
sg44
I6
sg45
I12
sg46
g29
(g33
S'\xb8\x1e\x85\xebQ\xb8\xae?'
p90
tp91
Rp92
sg50
I1
sg51
I1
sg52
g53
sg54
I10
sg55
F0.1225
sg56
I1
sg57
I-1
sg58
I1
sg59
F0.2
sg60
g61
sg64
I15
sa(dp93
g4
I20
sg5
F0.3
sg6
F0.2
sg7
F0.05
sg8
F0.4
sg9
I8
sg10
I8
sg11
F0.95
sg12
I6
sg13
F0.4
sg14
I64
sg15
F0.15
sg16
I0
sg17
I2
sg18
F1.2
sg19
F0.125
sg20
F0.9
sg21
I1
sg22
I5
sg23
I-1
sg24
I512
sg25
F0.8
sg26
I1024
sg27
F0.125
sg28
g29
(g33
S'333333\xc3\xbf'
p94
tp95
Rp96
sg39
F0.5
sg40
I2
sg41
F0.1
sg42
F0.1
sg43
F0.4
sg44
I6
sg45
I12
sg46
g29
(g33
S'\n\xd7\xa3p=\n\xb7\xbf'
p97
tp98
Rp99
sg50
I1
sg51
I1
sg52
g53
sg54
I10
sg55
F0.1225
sg56
I1
sg57
I-1
sg58
I1
sg59
F0.2
sg60
g61
sg64
I15
sa(dp100
g4
I20
sg5
F0.3
sg6
F0.2
sg7
F0.05
sg8
F0.4
sg9
I8
sg10
I8
sg11
F0.95
sg12
I6
sg13
F0.4
sg14
I64
sg15
F0.15
sg16
I0
sg17
I2
sg18
F1.2
sg19
F0.125
sg20
F0.9
sg21
I1
sg22
I6
sg23
I-1
sg24
I512
sg25
F0.8
sg26
I1024
sg27
F0.125
sg28
g29
(g33
S'\xb8\x1e\x85\xebQ\xb8\xbe?'
p101
tp102
Rp103
sg39
F0.5
sg40
I2
sg41
F0.1
sg42
F0.1
sg43
F0.4
sg44
I6
sg45
I12
sg46
g29
(g33
S'\n\xd7\xa3p=\n\xb7?'
p104
tp105
Rp106
sg50
I1
sg51
I1
sg52
g53
sg54
I10
sg55
F0.1225
sg56
I1
sg57
I-1
sg58
I1
sg59
F0.2
sg60
g61
sg64
I15
sa(dp107
g4
I20
sg5
F0.3
sg6
F0.2
sg7
F0.05
sg8
F0.4
sg9
I8
sg10
I8
sg11
F0.95
sg12
I6
sg13
F0.4
sg14
I64
sg15
F0.15
sg16
I0
sg17
I2
sg18
F1.2
sg19
F0.125
sg20
F0.9
sg21
I1
sg22
I7
sg23
I-1
sg24
I512
sg25
F0.8
sg26
I1024
sg27
F0.125
sg28
g29
(g33
S'\xb8\x1e\x85\xebQ\xb8\x9e\xbf'
p108
tp109
Rp110
sg39
F0.5
sg40
I2
sg41
F0.1
sg42
F0.1
sg43
F0.4
sg44
I6
sg45
I12
sg46
g29
(g33
S'\xb8\x1e\x85\xebQ\xb8\xbe?'
p111
tp112
Rp113
sg50
I1
sg51
I1
sg52
g53
sg54
I10
sg55
F0.1225
sg56
I1
sg57
I-1
sg58
I1
sg59
F0.2
sg60
g61
sg64
I15
sa(dp114
g4
I20
sg5
F0.3
sg6
F0.2
sg7
F0.05
sg8
F0.4
sg9
I8
sg10
I8
sg11
F0.95
sg12
I6
sg13
F0.4
sg14
I64
sg15
F0.15
sg16
I0
sg17
I2
sg18
F1.2
sg19
F0.125
sg20
F0.9
sg21
I1
sg22
I8
sg23
I-1
sg24
I512
sg25
F0.8
sg26
I1024
sg27
F0.125
sg28
g29
(g33
S'333333\xc3\xbf'
p115
tp116
Rp117
sg39
F0.5
sg40
I2
sg41
F0.1
sg42
F0.1
sg43
F0.4
sg44
I6
sg45
I12
sg46
g29
(g33
S'\xb8\x1e\x85\xebQ\xb8\xae?'
p118
tp119
Rp120
sg50
I1
sg51
I1
sg52
g53
sg54
I10
sg55
F0.1225
sg56
I1
sg57
I-1
sg58
I1
sg59
F0.2
sg60
g61
sg64
I15
sa(dp121
g4
I20
sg5
F0.3
sg6
F0.2
sg7
F0.05
sg8
F0.4
sg9
I8
sg10
I8
sg11
F0.95
sg12
I6
sg13
F0.4
sg14
I64
sg15
F0.15
sg16
I0
sg17
I2
sg18
F1.2
sg19
F0.125
sg20
F0.9
sg21
I1
sg22
I9
sg23
I-1
sg24
I512
sg25
F0.8
sg26
I1024
sg27
F0.125
sg28
g29
(g33
S'\xb8\x1e\x85\xebQ\xb8\xbe\xbf'
p122
tp123
Rp124
sg39
F0.5
sg40
I2
sg41
F0.1
sg42
F0.1
sg43
F0.4
sg44
I6
sg45
I12
sg46
g29
(g33
S'\xb8\x1e\x85\xebQ\xb8\x9e?'
p125
tp126
Rp127
sg50
I1
sg51
I1
sg52
g53
sg54
I10
sg55
F0.1225
sg56
I1
sg57
I-1
sg58
I1
sg59
F0.2
sg60
g61
sg64
I15
sa(dp128
g4
I20
sg5
F0.3
sg6
F0.2
sg7
F0.05
sg8
F0.4
sg9
I8
sg10
I8
sg11
F0.95
sg12
I6
sg13
F0.4
sg14
I64
sg15
F0.15
sg16
I0
sg17
I2
sg18
F1.2
sg19
F0.125
sg20
F0.9
sg21
I1
sg22
I10
sg23
I-1
sg24
I512
sg25
F0.8
sg26
I1024
sg27
F0.125
sg28
g29
(g33
S'\x00\x00\x00\x00\x00\x00\x00\x00'
p129
tp130
Rp131
sg39
F0.5
sg40
I2
sg41
F0.1
sg42
F0.1
sg43
F0.4
sg44
I6
sg45
I12
sg46
g29
(g33
S'\x00\x00\x00\x00\x00\x00\x00\x00'
p132
tp133
Rp134
sg50
I1
sg51
I1
sg52
g53
sg54
I10
sg55
F0.1225
sg56
I1
sg57
I-1
sg58
I1
sg59
F0.2
sg60
g61
sg64
I15
sa(dp135
g4
I20
sg5
F0.3
sg6
F0.2
sg7
F0.05
sg8
F0.4
sg9
I8
sg10
I8
sg11
F0.95
sg12
I6
sg13
F0.4
sg14
I64
sg15
F0.15
sg16
I0
sg17
I2
sg18
F1.2
sg19
F0.125
sg20
F0.9
sg21
I1
sg22
I11
sg23
I-1
sg24
I512
sg25
F0.8
sg26
I1024
sg27
F0.125
sg28
g29
(g33
S'\n\xd7\xa3p=\n\xb7?'
p136
tp137
Rp138
sg39
F0.5
sg40
I2
sg41
F0.1
sg42
F0.1
sg43
F0.4
sg44
I6
sg45
I12
sg46
g29
(g33
S'\xb8\x1e\x85\xebQ\xb8\xae?'
p139
tp140
Rp141
sg50
I1
sg51
I1
sg52
g53
sg54
I10
sg55
F0.1225
sg56
I1
sg57
I-1
sg58
I1
sg59
F0.2
sg60
g61
sg64
I15
sa(dp142
g4
I20
sg5
F0.3
sg6
F0.2
sg7
F0.05
sg8
F0.4
sg9
I8
sg10
I8
sg11
F0.95
sg12
I6
sg13
F0.4
sg14
I64
sg15
F0.15
sg16
I0
sg17
I2
sg18
F1.2
sg19
F0.125
sg20
F0.9
sg21
I1
sg22
I12
sg23
I-1
sg24
I512
sg25
F0.8
sg26
I1024
sg27
F0.125
sg28
g29
(g33
S'\n\xd7\xa3p=\n\xb7?'
p143
tp144
Rp145
sg39
F0.5
sg40
I2
sg41
F0.1
sg42
F0.1
sg43
F0.4
sg44
I6
sg45
I12
sg46
g29
(g33
S'\xb8\x1e\x85\xebQ\xb8\xae\xbf'
p146
tp147
Rp148
sg50
I1
sg51
I1
sg52
g53
sg54
I10
sg55
F0.1225
sg56
I1
sg57
I-1
sg58
I1
sg59
F0.2
sg60
g61
sg64
I15
sa(dp149
g4
I20
sg5
F0.3
sg6
F0.2
sg7
F0.05
sg8
F0.4
sg9
I8
sg10
I8
sg11
F0.95
sg12
I6
sg13
F0.4
sg14
I64
sg15
F0.15
sg16
I0
sg17
I2
sg18
F1.2
sg19
F0.125
sg20
F0.9
sg21
I1
sg22
I13
sg23
I-1
sg24
I512
sg25
F0.8
sg26
I1024
sg27
F0.125
sg28
g29
(g33
S'\xb8\x1e\x85\xebQ\xb8\xae\xbf'
p150
tp151
Rp152
sg39
F0.5
sg40
I2
sg41
F0.1
sg42
F0.1
sg43
F0.4
sg44
I6
sg45
I12
sg46
g29
(g33
S'\xb8\x1e\x85\xebQ\xb8\xbe?'
p153
tp154
Rp155
sg50
I1
sg51
I1
sg52
g53
sg54
I10
sg55
F0.1225
sg56
I1
sg57
I-1
sg58
I1
sg59
F0.2
sg60
g61
sg64
I15
sa(dp156
g4
I20
sg5
F0.3
sg6
F0.2
sg7
F0.05
sg8
F0.4
sg9
I8
sg10
I8
sg11
F0.95
sg12
I6
sg13
F0.4
sg14
I64
sg15
F0.15
sg16
I0
sg17
I2
sg18
F1.2
sg19
F0.125
sg20
F0.9
sg21
I1
sg22
I14
sg23
I-1
sg24
I512
sg25
F0.8
sg26
I1024
sg27
F0.125
sg28
g29
(g33
S'\xb8\x1e\x85\xebQ\xb8\x9e?'
p157
tp158
Rp159
sg39
F0.5
sg40
I2
sg41
F0.1
sg42
F0.1
sg43
F0.4
sg44
I6
sg45
I12
sg46
g29
(g33
S'333333\xc3?'
p160
tp161
Rp162
sg50
I1
sg51
I1
sg52
g53
sg54
I10
sg55
F0.1225
sg56
I1
sg57
I-1
sg58
I1
sg59
F0.2
sg60
g61
sg64
I15
sa(dp163
g4
I20
sg5
F0.3
sg6
F0.2
sg7
F0.05
sg8
F0.4
sg9
I8
sg10
I8
sg11
F0.95
sg12
I6
sg13
F0.4
sg14
I64
sg15
F0.15
sg16
I0
sg17
I2
sg18
F1.2
sg19
F0.125
sg20
F0.9
sg21
I1
sg22
I15
sg23
I-1
sg24
I512
sg25
F0.8
sg26
I1024
sg27
F0.125
sg28
g29
(g33
S'\xb8\x1e\x85\xebQ\xb8\xae\xbf'
p164
tp165
Rp166
sg39
F0.5
sg40
I2
sg41
F0.1
sg42
F0.1
sg43
F0.4
sg44
I6
sg45
I12
sg46
g29
(g33
S'\xb8\x1e\x85\xebQ\xb8\x9e?'
p167
tp168
Rp169
sg50
I1
sg51
I1
sg52
g53
sg54
I10
sg55
F0.1225
sg56
I1
sg57
I-1
sg58
I1
sg59
F0.2
sg60
g61
sg64
I15
sa(dp170
g4
I20
sg5
F0.3
sg6
F0.2
sg7
F0.05
sg8
F0.4
sg9
I8
sg10
I8
sg11
F0.95
sg12
I6
sg13
F0.4
sg14
I64
sg15
F0.15
sg16
I0
sg17
I2
sg18
F1.2
sg19
F0.125
sg20
F0.9
sg21
I1
sg22
I16
sg23
I-1
sg24
I512
sg25
F0.8
sg26
I1024
sg27
F0.125
sg28
g29
(g33
S'\xb8\x1e\x85\xebQ\xb8\xae\xbf'
p171
tp172
Rp173
sg39
F0.5
sg40
I2
sg41
F0.1
sg42
F0.1
sg43
F0.4
sg44
I6
sg45
I12
sg46
g29
(g33
S'\xb8\x1e\x85\xebQ\xb8\x9e?'
p174
tp175
Rp176
sg50
I1
sg51
I1
sg52
g53
sg54
I10
sg55
F0.1225
sg56
I1
sg57
I-1
sg58
I1
sg59
F0.2
sg60
g61
sg64
I15
sa(dp177
g4
I20
sg5
F0.3
sg6
F0.2
sg7
F0.05
sg8
F0.4
sg9
I8
sg10
I8
sg11
F0.95
sg12
I6
sg13
F0.4
sg14
I64
sg15
F0.15
sg16
I0
sg17
I2
sg18
F1.2
sg19
F0.125
sg20
F0.9
sg21
I1
sg22
I17
sg23
I-1
sg24
I512
sg25
F0.8
sg26
I1024
sg27
F0.125
sg28
g29
(g33
S'\xb8\x1e\x85\xebQ\xb8\x9e?'
p178
tp179
Rp180
sg39
F0.5
sg40
I2
sg41
F0.1
sg42
F0.1
sg43
F0.4
sg44
I6
sg45
I12
sg46
g29
(g33
S'\xb8\x1e\x85\xebQ\xb8\xbe?'
p181
tp182
Rp183
sg50
I1
sg51
I1
sg52
g53
sg54
I10
sg55
F0.1225
sg56
I1
sg57
I-1
sg58
I1
sg59
F0.2
sg60
g61
sg64
I15
sa(dp184
g4
I20
sg5
F0.3
sg6
F0.2
sg7
F0.05
sg8
F0.4
sg9
I8
sg10
I8
sg11
F0.95
sg12
I6
sg13
F0.4
sg14
I64
sg15
F0.15
sg16
I0
sg17
I2
sg18
F1.2
sg19
F0.125
sg20
F0.9
sg21
I1
sg22
I18
sg23
I-1
sg24
I512
sg25
F0.8
sg26
I1024
sg27
F0.125
sg28
g29
(g33
S'\xb8\x1e\x85\xebQ\xb8\x9e?'
p185
tp186
Rp187
sg39
F0.5
sg40
I2
sg41
F0.1
sg42
F0.1
sg43
F0.4
sg44
I6
sg45
I12
sg46
g29
(g33
S'\xb8\x1e\x85\xebQ\xb8\x9e\xbf'
p188
tp189
Rp190
sg50
I1
sg51
I1
sg52
g53
sg54
I10
sg55
F0.1225
sg56
I1
sg57
I-1
sg58
I1
sg59
F0.2
sg60
g61
sg64
I15
sa(dp191
g4
I20
sg5
F0.3
sg6
F0.2
sg7
F0.05
sg8
F0.4
sg9
I8
sg10
I8
sg11
F0.95
sg12
I6
sg13
F0.4
sg14
I64
sg15
F0.15
sg16
I0
sg17
I2
sg18
F1.2
sg19
F0.125
sg20
F0.9
sg21
I1
sg22
I19
sg23
I-1
sg24
I512
sg25
F0.8
sg26
I1024
sg27
F0.125
sg28
g29
(g33
S'\xb8\x1e\x85\xebQ\xb8\xae?'
p192
tp193
Rp194
sg39
F0.5
sg40
I2
sg41
F0.1
sg42
F0.1
sg43
F0.4
sg44
I6
sg45
I12
sg46
g29
(g33
S'\xb8\x1e\x85\xebQ\xb8\xbe\xbf'
p195
tp196
Rp197
sg50
I1
sg51
I1
sg52
g53
sg54
I10
sg55
F0.1225
sg56
I1
sg57
I-1
sg58
I1
sg59
F0.2
sg60
g61
sg64
I15
sa(dp198
g4
I20
sg5
F0.3
sg6
F0.2
sg7
F0.05
sg8
F0.4
sg9
I8
sg10
I8
sg11
F0.95
sg12
I6
sg13
F0.4
sg14
I64
sg15
F0.15
sg16
I0
sg17
I2
sg18
F1.2
sg19
F0.125
sg20
F0.9
sg21
I1
sg22
I0
sg23
I-1
sg24
I512
sg25
F0.8
sg26
I1024
sg27
F0.125
sg28
g29
(g33
S'\xb8\x1e\x85\xebQ\xb8\xbe\xbf'
p199
tp200
Rp201
sg39
F0.5
sg40
I2
sg41
F0.1
sg42
F0.1
sg43
F0.4
sg44
I6
sg45
I12
sg46
g29
(g33
S'\x00\x00\x00\x00\x00\x00\x00\x00'
p202
tp203
Rp204
sg50
I1
sg51
I1
sg52
g53
sg54
I10
sg55
F0.1225
sg56
I1
sg57
I0
sg58
I1
sg59
F0.2
sg60
g61
sg64
I15
sa(dp205
g4
I20
sg5
F0.3
sg6
F0.2
sg7
F0.05
sg8
F0.4
sg9
I8
sg10
I8
sg11
F0.95
sg12
I6
sg13
F0.4
sg14
I64
sg15
F0.15
sg16
I0
sg17
I2
sg18
F1.2
sg19
F0.125
sg20
F0.9
sg21
I1
sg22
I1
sg23
I-1
sg24
I512
sg25
F0.8
sg26
I1024
sg27
F0.125
sg28
g29
(g33
S'\xb8\x1e\x85\xebQ\xb8\x9e\xbf'
p206
tp207
Rp208
sg39
F0.5
sg40
I2
sg41
F0.1
sg42
F0.1
sg43
F0.4
sg44
I6
sg45
I12
sg46
g29
(g33
S'333333\xc3?'
p209
tp210
Rp211
sg50
I1
sg51
I1
sg52
g53
sg54
I10
sg55
F0.1225
sg56
I1
sg57
I0
sg58
I1
sg59
F0.2
sg60
g61
sg64
I15
sa(dp212
g4
I20
sg5
F0.3
sg6
F0.2
sg7
F0.05
sg8
F0.4
sg9
I8
sg10
I8
sg11
F0.95
sg12
I6
sg13
F0.4
sg14
I64
sg15
F0.15
sg16
I0
sg17
I2
sg18
F1.2
sg19
F0.125
sg20
F0.9
sg21
I1
sg22
I2
sg23
I-1
sg24
I512
sg25
F0.8
sg26
I1024
sg27
F0.125
sg28
g29
(g33
S'\xb8\x1e\x85\xebQ\xb8\xae?'
p213
tp214
Rp215
sg39
F0.5
sg40
I2
sg41
F0.1
sg42
F0.1
sg43
F0.4
sg44
I6
sg45
I12
sg46
g29
(g33
S'\xb8\x1e\x85\xebQ\xb8\xae\xbf'
p216
tp217
Rp218
sg50
I1
sg51
I1
sg52
g53
sg54
I10
sg55
F0.1225
sg56
I1
sg57
I0
sg58
I1
sg59
F0.2
sg60
g61
sg64
I15
sa(dp219
g4
I20
sg5
F0.3
sg6
F0.2
sg7
F0.05
sg8
F0.4
sg9
I8
sg10
I8
sg11
F0.95
sg12
I6
sg13
F0.4
sg14
I64
sg15
F0.15
sg16
I0
sg17
I2
sg18
F1.2
sg19
F0.125
sg20
F0.9
sg21
I1
sg22
I3
sg23
I-1
sg24
I512
sg25
F0.8
sg26
I1024
sg27
F0.125
sg28
g29
(g33
S'\x00\x00\x00\x00\x00\x00\x00\x00'
p220
tp221
Rp222
sg39
F0.5
sg40
I2
sg41
F0.1
sg42
F0.1
sg43
F0.4
sg44
I6
sg45
I12
sg46
g29
(g33
S'\n\xd7\xa3p=\n\xb7?'
p223
tp224
Rp225
sg50
I1
sg51
I1
sg52
g53
sg54
I10
sg55
F0.1225
sg56
I1
sg57
I0
sg58
I1
sg59
F0.2
sg60
g61
sg64
I15
sa(dp226
g4
I20
sg5
F0.3
sg6
F0.2
sg7
F0.05
sg8
F0.4
sg9
I8
sg10
I8
sg11
F0.95
sg12
I6
sg13
F0.4
sg14
I64
sg15
F0.15
sg16
I0
sg17
I2
sg18
F1.2
sg19
F0.125
sg20
F0.9
sg21
I1
sg22
I4
sg23
I-1
sg24
I512
sg25
F0.8
sg26
I1024
sg27
F0.125
sg28
g29
(g33
S'\x00\x00\x00\x00\x00\x00\x00\x00'
p227
tp228
Rp229
sg39
F0.5
sg40
I2
sg41
F0.1
sg42
F0.1
sg43
F0.4
sg44
I6
sg45
I12
sg46
g29
(g33
S'\n\xd7\xa3p=\n\xb7?'
p230
tp231
Rp232
sg50
I1
sg51
I1
sg52
g53
sg54
I10
sg55
F0.1225
sg56
I1
sg57
I0
sg58
I1
sg59
F0.2
sg60
g61
sg64
I15
sa(dp233
g4
I20
sg5
F0.3
sg6
F0.2
sg7
F0.05
sg8
F0.4
sg9
I8
sg10
I8
sg11
F0.95
sg12
I6
sg13
F0.4
sg14
I64
sg15
F0.15
sg16
I0
sg17
I2
sg18
F1.2
sg19
F0.125
sg20
F0.9
sg21
I1
sg22
I5
sg23
I-1
sg24
I512
sg25
F0.8
sg26
I1024
sg27
F0.125
sg28
g29
(g33
S'333333\xc3?'
p234
tp235
Rp236
sg39
F0.5
sg40
I2
sg41
F0.1
sg42
F0.1
sg43
F0.4
sg44
I6
sg45
I12
sg46
g29
(g33
S'\n\xd7\xa3p=\n\xb7\xbf'
p237
tp238
Rp239
sg50
I1
sg51
I1
sg52
g53
sg54
I10
sg55
F0.1225
sg56
I1
sg57
I0
sg58
I1
sg59
F0.2
sg60
g61
sg64
I15
sa(dp240
g4
I20
sg5
F0.3
sg6
F0.2
sg7
F0.05
sg8
F0.4
sg9
I8
sg10
I8
sg11
F0.95
sg12
I6
sg13
F0.4
sg14
I64
sg15
F0.15
sg16
I0
sg17
I2
sg18
F1.2
sg19
F0.125
sg20
F0.9
sg21
I1
sg22
I6
sg23
I-1
sg24
I512
sg25
F0.8
sg26
I1024
sg27
F0.125
sg28
g29
(g33
S'\xb8\x1e\x85\xebQ\xb8\xbe?'
p241
tp242
Rp243
sg39
F0.5
sg40
I2
sg41
F0.1
sg42
F0.1
sg43
F0.4
sg44
I6
sg45
I12
sg46
g29
(g33
S'\xb8\x1e\x85\xebQ\xb8\xae?'
p244
tp245
Rp246
sg50
I1
sg51
I1
sg52
g53
sg54
I10
sg55
F0.1225
sg56
I1
sg57
I0
sg58
I1
sg59
F0.2
sg60
g61
sg64
I15
sa(dp247
g4
I20
sg5
F0.3
sg6
F0.2
sg7
F0.05
sg8
F0.4
sg9
I8
sg10
I8
sg11
F0.95
sg12
I6
sg13
F0.4
sg14
I64
sg15
F0.15
sg16
I0
sg17
I2
sg18
F1.2
sg19
F0.125
sg20
F0.9
sg21
I1
sg22
I7
sg23
I-1
sg24
I512
sg25
F0.8
sg26
I1024
sg27
F0.125
sg28
g29
(g33
S'333333\xc3\xbf'
p248
tp249
Rp250
sg39
F0.5
sg40
I2
sg41
F0.1
sg42
F0.1
sg43
F0.4
sg44
I6
sg45
I12
sg46
g29
(g33
S'\xb8\x1e\x85\xebQ\xb8\x9e\xbf'
p251
tp252
Rp253
sg50
I1
sg51
I1
sg52
g53
sg54
I10
sg55
F0.1225
sg56
I1
sg57
I0
sg58
I1
sg59
F0.2
sg60
g61
sg64
I15
sa(dp254
g4
I20
sg5
F0.3
sg6
F0.2
sg7
F0.05
sg8
F0.4
sg9
I8
sg10
I8
sg11
F0.95
sg12
I6
sg13
F0.4
sg14
I64
sg15
F0.15
sg16
I0
sg17
I2
sg18
F1.2
sg19
F0.125
sg20
F0.9
sg21
I1
sg22
I8
sg23
I-1
sg24
I512
sg25
F0.8
sg26
I1024
sg27
F0.125
sg28
g29
(g33
S'\xb8\x1e\x85\xebQ\xb8\xbe\xbf'
p255
tp256
Rp257
sg39
F0.5
sg40
I2
sg41
F0.1
sg42
F0.1
sg43
F0.4
sg44
I6
sg45
I12
sg46
g29
(g33
S'\n\xd7\xa3p=\n\xb7\xbf'
p258
tp259
Rp260
sg50
I1
sg51
I1
sg52
g53
sg54
I10
sg55
F0.1225
sg56
I1
sg57
I0
sg58
I1
sg59
F0.2
sg60
g61
sg64
I15
sa(dp261
g4
I20
sg5
F0.3
sg6
F0.2
sg7
F0.05
sg8
F0.4
sg9
I8
sg10
I8
sg11
F0.95
sg12
I6
sg13
F0.4
sg14
I64
sg15
F0.15
sg16
I0
sg17
I2
sg18
F1.2
sg19
F0.125
sg20
F0.9
sg21
I1
sg22
I9
sg23
I-1
sg24
I512
sg25
F0.8
sg26
I1024
sg27
F0.125
sg28
g29
(g33
S'333333\xc3?'
p262
tp263
Rp264
sg39
F0.5
sg40
I2
sg41
F0.1
sg42
F0.1
sg43
F0.4
sg44
I6
sg45
I12
sg46
g29
(g33
S'\n\xd7\xa3p=\n\xb7?'
p265
tp266
Rp267
sg50
I1
sg51
I1
sg52
g53
sg54
I10
sg55
F0.1225
sg56
I1
sg57
I0
sg58
I1
sg59
F0.2
sg60
g61
sg64
I15
sa(dp268
g4
I20
sg5
F0.3
sg6
F0.2
sg7
F0.05
sg8
F0.4
sg9
I8
sg10
I8
sg11
F0.95
sg12
I6
sg13
F0.4
sg14
I64
sg15
F0.15
sg16
I0
sg17
I2
sg18
F1.2
sg19
F0.125
sg20
F0.9
sg21
I1
sg22
I10
sg23
I-1
sg24
I512
sg25
F0.8
sg26
I1024
sg27
F0.125
sg28
g29
(g33
S'\xb8\x1e\x85\xebQ\xb8\xae\xbf'
p269
tp270
Rp271
sg39
F0.5
sg40
I2
sg41
F0.1
sg42
F0.1
sg43
F0.4
sg44
I6
sg45
I12
sg46
g29
(g33
S'\xb8\x1e\x85\xebQ\xb8\xae\xbf'
p272
tp273
Rp274
sg50
I1
sg51
I1
sg52
g53
sg54
I10
sg55
F0.1225
sg56
I1
sg57
I0
sg58
I1
sg59
F0.2
sg60
g61
sg64
I15
sa(dp275
g4
I20
sg5
F0.3
sg6
F0.2
sg7
F0.05
sg8
F0.4
sg9
I8
sg10
I8
sg11
F0.95
sg12
I6
sg13
F0.4
sg14
I64
sg15
F0.15
sg16
I0
sg17
I2
sg18
F1.2
sg19
F0.125
sg20
F0.9
sg21
I1
sg22
I11
sg23
I-1
sg24
I512
sg25
F0.8
sg26
I1024
sg27
F0.125
sg28
g29
(g33
S'333333\xc3?'
p276
tp277
Rp278
sg39
F0.5
sg40
I2
sg41
F0.1
sg42
F0.1
sg43
F0.4
sg44
I6
sg45
I12
sg46
g29
(g33
S'333333\xc3?'
p279
tp280
Rp281
sg50
I1
sg51
I1
sg52
g53
sg54
I10
sg55
F0.1225
sg56
I1
sg57
I0
sg58
I1
sg59
F0.2
sg60
g61
sg64
I15
sa(dp282
g4
I20
sg5
F0.3
sg6
F0.2
sg7
F0.05
sg8
F0.4
sg9
I8
sg10
I8
sg11
F0.95
sg12
I6
sg13
F0.4
sg14
I64
sg15
F0.15
sg16
I0
sg17
I2
sg18
F1.2
sg19
F0.125
sg20
F0.9
sg21
I1
sg22
I12
sg23
I-1
sg24
I512
sg25
F0.8
sg26
I1024
sg27
F0.125
sg28
g29
(g33
S'\xb8\x1e\x85\xebQ\xb8\xae?'
p283
tp284
Rp285
sg39
F0.5
sg40
I2
sg41
F0.1
sg42
F0.1
sg43
F0.4
sg44
I6
sg45
I12
sg46
g29
(g33
S'\xb8\x1e\x85\xebQ\xb8\x9e?'
p286
tp287
Rp288
sg50
I1
sg51
I1
sg52
g53
sg54
I10
sg55
F0.1225
sg56
I1
sg57
I0
sg58
I1
sg59
F0.2
sg60
g61
sg64
I15
sa(dp289
g4
I20
sg5
F0.3
sg6
F0.2
sg7
F0.05
sg8
F0.4
sg9
I8
sg10
I8
sg11
F0.95
sg12
I6
sg13
F0.4
sg14
I64
sg15
F0.15
sg16
I0
sg17
I2
sg18
F1.2
sg19
F0.125
sg20
F0.9
sg21
I1
sg22
I13
sg23
I-1
sg24
I512
sg25
F0.8
sg26
I1024
sg27
F0.125
sg28
g29
(g33
S'\xb8\x1e\x85\xebQ\xb8\x9e\xbf'
p290
tp291
Rp292
sg39
F0.5
sg40
I2
sg41
F0.1
sg42
F0.1
sg43
F0.4
sg44
I6
sg45
I12
sg46
g29
(g33
S'\x00\x00\x00\x00\x00\x00\x00\x00'
p293
tp294
Rp295
sg50
I1
sg51
I1
sg52
g53
sg54
I10
sg55
F0.1225
sg56
I1
sg57
I0
sg58
I1
sg59
F0.2
sg60
g61
sg64
I15
sa(dp296
g4
I20
sg5
F0.3
sg6
F0.2
sg7
F0.05
sg8
F0.4
sg9
I8
sg10
I8
sg11
F0.95
sg12
I6
sg13
F0.4
sg14
I64
sg15
F0.15
sg16
I0
sg17
I2
sg18
F1.2
sg19
F0.125
sg20
F0.9
sg21
I1
sg22
I14
sg23
I-1
sg24
I512
sg25
F0.8
sg26
I1024
sg27
F0.125
sg28
g29
(g33
S'\xb8\x1e\x85\xebQ\xb8\xae\xbf'
p297
tp298
Rp299
sg39
F0.5
sg40
I2
sg41
F0.1
sg42
F0.1
sg43
F0.4
sg44
I6
sg45
I12
sg46
g29
(g33
S'\xb8\x1e\x85\xebQ\xb8\xae?'
p300
tp301
Rp302
sg50
I1
sg51
I1
sg52
g53
sg54
I10
sg55
F0.1225
sg56
I1
sg57
I0
sg58
I1
sg59
F0.2
sg60
g61
sg64
I15
sa(dp303
g4
I20
sg5
F0.3
sg6
F0.2
sg7
F0.05
sg8
F0.4
sg9
I8
sg10
I8
sg11
F0.95
sg12
I6
sg13
F0.4
sg14
I64
sg15
F0.15
sg16
I0
sg17
I2
sg18
F1.2
sg19
F0.125
sg20
F0.9
sg21
I1
sg22
I15
sg23
I-1
sg24
I512
sg25
F0.8
sg26
I1024
sg27
F0.125
sg28
g29
(g33
S'333333\xc3\xbf'
p304
tp305
Rp306
sg39
F0.5
sg40
I2
sg41
F0.1
sg42
F0.1
sg43
F0.4
sg44
I6
sg45
I12
sg46
g29
(g33
S'333333\xc3?'
p307
tp308
Rp309
sg50
I1
sg51
I1
sg52
g53
sg54
I10
sg55
F0.1225
sg56
I1
sg57
I0
sg58
I1
sg59
F0.2
sg60
g61
sg64
I15
sa(dp310
g4
I20
sg5
F0.3
sg6
F0.2
sg7
F0.05
sg8
F0.4
sg9
I8
sg10
I8
sg11
F0.95
sg12
I6
sg13
F0.4
sg14
I64
sg15
F0.15
sg16
I0
sg17
I2
sg18
F1.2
sg19
F0.125
sg20
F0.9
sg21
I1
sg22
I16
sg23
I-1
sg24
I512
sg25
F0.8
sg26
I1024
sg27
F0.125
sg28
g29
(g33
S'\xb8\x1e\x85\xebQ\xb8\xbe\xbf'
p311
tp312
Rp313
sg39
F0.5
sg40
I2
sg41
F0.1
sg42
F0.1
sg43
F0.4
sg44
I6
sg45
I12
sg46
g29
(g33
S'333333\xc3\xbf'
p314
tp315
Rp316
sg50
I1
sg51
I1
sg52
g53
sg54
I10
sg55
F0.1225
sg56
I1
sg57
I0
sg58
I1
sg59
F0.2
sg60
g61
sg64
I15
sa(dp317
g4
I20
sg5
F0.3
sg6
F0.2
sg7
F0.05
sg8
F0.4
sg9
I8
sg10
I8
sg11
F0.95
sg12
I6
sg13
F0.4
sg14
I64
sg15
F0.15
sg16
I0
sg17
I2
sg18
F1.2
sg19
F0.125
sg20
F0.9
sg21
I1
sg22
I17
sg23
I-1
sg24
I512
sg25
F0.8
sg26
I1024
sg27
F0.125
sg28
g29
(g33
S'\n\xd7\xa3p=\n\xb7\xbf'
p318
tp319
Rp320
sg39
F0.5
sg40
I2
sg41
F0.1
sg42
F0.1
sg43
F0.4
sg44
I6
sg45
I12
sg46
g29
(g33
S'\xb8\x1e\x85\xebQ\xb8\xae\xbf'
p321
tp322
Rp323
sg50
I1
sg51
I1
sg52
g53
sg54
I10
sg55
F0.1225
sg56
I1
sg57
I0
sg58
I1
sg59
F0.2
sg60
g61
sg64
I15
sa(dp324
g4
I20
sg5
F0.3
sg6
F0.2
sg7
F0.05
sg8
F0.4
sg9
I8
sg10
I8
sg11
F0.95
sg12
I6
sg13
F0.4
sg14
I64
sg15
F0.15
sg16
I0
sg17
I2
sg18
F1.2
sg19
F0.125
sg20
F0.9
sg21
I1
sg22
I18
sg23
I-1
sg24
I512
sg25
F0.8
sg26
I1024
sg27
F0.125
sg28
g29
(g33
S'\xb8\x1e\x85\xebQ\xb8\xbe?'
p325
tp326
Rp327
sg39
F0.5
sg40
I2
sg41
F0.1
sg42
F0.1
sg43
F0.4
sg44
I6
sg45
I12
sg46
g29
(g33
S'\xb8\x1e\x85\xebQ\xb8\xbe?'
p328
tp329
Rp330
sg50
I1
sg51
I1
sg52
g53
sg54
I10
sg55
F0.1225
sg56
I1
sg57
I0
sg58
I1
sg59
F0.2
sg60
g61
sg64
I15
sa(dp331
g4
I20
sg5
F0.3
sg6
F0.2
sg7
F0.05
sg8
F0.4
sg9
I8
sg10
I8
sg11
F0.95
sg12
I6
sg13
F0.4
sg14
I64
sg15
F0.15
sg16
I0
sg17
I2
sg18
F1.2
sg19
F0.125
sg20
F0.9
sg21
I1
sg22
I19
sg23
I-1
sg24
I512
sg25
F0.8
sg26
I1024
sg27
F0.125
sg28
g29
(g33
S'\xb8\x1e\x85\xebQ\xb8\xbe?'
p332
tp333
Rp334
sg39
F0.5
sg40
I2
sg41
F0.1
sg42
F0.1
sg43
F0.4
sg44
I6
sg45
I12
sg46
g29
(g33
S'\xb8\x1e\x85\xebQ\xb8\x9e\xbf'
p335
tp336
Rp337
sg50
I1
sg51
I1
sg52
g53
sg54
I10
sg55
F0.1225
sg56
I1
sg57
I0
sg58
I1
sg59
F0.2
sg60
g61
sg64
I15
sa(dp338
g4
I20
sg5
F0.3
sg6
F0.2
sg7
F0.05
sg8
F0.4
sg9
I8
sg10
I8
sg11
F0.95
sg12
I6
sg13
F0.4
sg14
I64
sg15
F0.15
sg16
I0
sg17
I2
sg18
F1.2
sg19
F0.125
sg20
F0.9
sg21
I1
sg22
I0
sg23
I-1
sg24
I512
sg25
F0.8
sg26
I1024
sg27
F0.125
sg28
g29
(g33
S'333333\xc3?'
p339
tp340
Rp341
sg39
F0.5
sg40
I2
sg41
F0.1
sg42
F0.1
sg43
F0.4
sg44
I6
sg45
I12
sg46
g29
(g33
S'\x00\x00\x00\x00\x00\x00\x00\x00'
p342
tp343
Rp344
sg50
I1
sg51
I1
sg52
g53
sg54
I10
sg55
F0.1225
sg56
I1
sg57
I225
sg58
I1
sg59
F0.2
sg60
g61
sg64
I15
sa(dp345
g4
I20
sg5
F0.3
sg6
F0.2
sg7
F0.05
sg8
F0.4
sg9
I8
sg10
I8
sg11
F0.95
sg12
I6
sg13
F0.4
sg14
I64
sg15
F0.15
sg16
I0
sg17
I2
sg18
F1.2
sg19
F0.125
sg20
F0.9
sg21
I1
sg22
I1
sg23
I-1
sg24
I512
sg25
F0.8
sg26
I1024
sg27
F0.125
sg28
g29
(g33
S'333333\xc3\xbf'
p346
tp347
Rp348
sg39
F0.5
sg40
I2
sg41
F0.1
sg42
F0.1
sg43
F0.4
sg44
I6
sg45
I12
sg46
g29
(g33
S'\xb8\x1e\x85\xebQ\xb8\xbe?'
p349
tp350
Rp351
sg50
I1
sg51
I1
sg52
g53
sg54
I10
sg55
F0.1225
sg56
I1
sg57
I225
sg58
I1
sg59
F0.2
sg60
g61
sg64
I15
sa(dp352
g4
I20
sg5
F0.3
sg6
F0.2
sg7
F0.05
sg8
F0.4
sg9
I8
sg10
I8
sg11
F0.95
sg12
I6
sg13
F0.4
sg14
I64
sg15
F0.15
sg16
I0
sg17
I2
sg18
F1.2
sg19
F0.125
sg20
F0.9
sg21
I1
sg22
I2
sg23
I-1
sg24
I512
sg25
F0.8
sg26
I1024
sg27
F0.125
sg28
g29
(g33
S'\xb8\x1e\x85\xebQ\xb8\xae\xbf'
p353
tp354
Rp355
sg39
F0.5
sg40
I2
sg41
F0.1
sg42
F0.1
sg43
F0.4
sg44
I6
sg45
I12
sg46
g29
(g33
S'\xb8\x1e\x85\xebQ\xb8\x9e?'
p356
tp357
Rp358
sg50
I1
sg51
I1
sg52
g53
sg54
I10
sg55
F0.1225
sg56
I1
sg57
I225
sg58
I1
sg59
F0.2
sg60
g61
sg64
I15
sa(dp359
g4
I20
sg5
F0.3
sg6
F0.2
sg7
F0.05
sg8
F0.4
sg9
I8
sg10
I8
sg11
F0.95
sg12
I6
sg13
F0.4
sg14
I64
sg15
F0.15
sg16
I0
sg17
I2
sg18
F1.2
sg19
F0.125
sg20
F0.9
sg21
I1
sg22
I3
sg23
I-1
sg24
I512
sg25
F0.8
sg26
I1024
sg27
F0.125
sg28
g29
(g33
S'\xb8\x1e\x85\xebQ\xb8\xae?'
p360
tp361
Rp362
sg39
F0.5
sg40
I2
sg41
F0.1
sg42
F0.1
sg43
F0.4
sg44
I6
sg45
I12
sg46
g29
(g33
S'\n\xd7\xa3p=\n\xb7\xbf'
p363
tp364
Rp365
sg50
I1
sg51
I1
sg52
g53
sg54
I10
sg55
F0.1225
sg56
I1
sg57
I225
sg58
I1
sg59
F0.2
sg60
g61
sg64
I15
sa(dp366
g4
I20
sg5
F0.3
sg6
F0.2
sg7
F0.05
sg8
F0.4
sg9
I8
sg10
I8
sg11
F0.95
sg12
I6
sg13
F0.4
sg14
I64
sg15
F0.15
sg16
I0
sg17
I2
sg18
F1.2
sg19
F0.125
sg20
F0.9
sg21
I1
sg22
I4
sg23
I-1
sg24
I512
sg25
F0.8
sg26
I1024
sg27
F0.125
sg28
g29
(g33
S'333333\xc3?'
p367
tp368
Rp369
sg39
F0.5
sg40
I2
sg41
F0.1
sg42
F0.1
sg43
F0.4
sg44
I6
sg45
I12
sg46
g29
(g33
S'333333\xc3?'
p370
tp371
Rp372
sg50
I1
sg51
I1
sg52
g53
sg54
I10
sg55
F0.1225
sg56
I1
sg57
I225
sg58
I1
sg59
F0.2
sg60
g61
sg64
I15
sa(dp373
g4
I20
sg5
F0.3
sg6
F0.2
sg7
F0.05
sg8
F0.4
sg9
I8
sg10
I8
sg11
F0.95
sg12
I6
sg13
F0.4
sg14
I64
sg15
F0.15
sg16
I0
sg17
I2
sg18
F1.2
sg19
F0.125
sg20
F0.9
sg21
I1
sg22
I5
sg23
I-1
sg24
I512
sg25
F0.8
sg26
I1024
sg27
F0.125
sg28
g29
(g33
S'\xb8\x1e\x85\xebQ\xb8\x9e\xbf'
p374
tp375
Rp376
sg39
F0.5
sg40
I2
sg41
F0.1
sg42
F0.1
sg43
F0.4
sg44
I6
sg45
I12
sg46
g29
(g33
S'\xb8\x1e\x85\xebQ\xb8\x9e?'
p377
tp378
Rp379
sg50
I1
sg51
I1
sg52
g53
sg54
I10
sg55
F0.1225
sg56
I1
sg57
I225
sg58
I1
sg59
F0.2
sg60
g61
sg64
I15
sa(dp380
g4
I20
sg5
F0.3
sg6
F0.2
sg7
F0.05
sg8
F0.4
sg9
I8
sg10
I8
sg11
F0.95
sg12
I6
sg13
F0.4
sg14
I64
sg15
F0.15
sg16
I0
sg17
I2
sg18
F1.2
sg19
F0.125
sg20
F0.9
sg21
I1
sg22
I6
sg23
I-1
sg24
I512
sg25
F0.8
sg26
I1024
sg27
F0.125
sg28
g29
(g33
S'\xb8\x1e\x85\xebQ\xb8\xae\xbf'
p381
tp382
Rp383
sg39
F0.5
sg40
I2
sg41
F0.1
sg42
F0.1
sg43
F0.4
sg44
I6
sg45
I12
sg46
g29
(g33
S'333333\xc3?'
p384
tp385
Rp386
sg50
I1
sg51
I1
sg52
g53
sg54
I10
sg55
F0.1225
sg56
I1
sg57
I225
sg58
I1
sg59
F0.2
sg60
g61
sg64
I15
sa(dp387
g4
I20
sg5
F0.3
sg6
F0.2
sg7
F0.05
sg8
F0.4
sg9
I8
sg10
I8
sg11
F0.95
sg12
I6
sg13
F0.4
sg14
I64
sg15
F0.15
sg16
I0
sg17
I2
sg18
F1.2
sg19
F0.125
sg20
F0.9
sg21
I1
sg22
I7
sg23
I-1
sg24
I512
sg25
F0.8
sg26
I1024
sg27
F0.125
sg28
g29
(g33
S'333333\xc3\xbf'
p388
tp389
Rp390
sg39
F0.5
sg40
I2
sg41
F0.1
sg42
F0.1
sg43
F0.4
sg44
I6
sg45
I12
sg46
g29
(g33
S'\xb8\x1e\x85\xebQ\xb8\x9e\xbf'
p391
tp392
Rp393
sg50
I1
sg51
I1
sg52
g53
sg54
I10
sg55
F0.1225
sg56
I1
sg57
I225
sg58
I1
sg59
F0.2
sg60
g61
sg64
I15
sa(dp394
g4
I20
sg5
F0.3
sg6
F0.2
sg7
F0.05
sg8
F0.4
sg9
I8
sg10
I8
sg11
F0.95
sg12
I6
sg13
F0.4
sg14
I64
sg15
F0.15
sg16
I0
sg17
I2
sg18
F1.2
sg19
F0.125
sg20
F0.9
sg21
I1
sg22
I8
sg23
I-1
sg24
I512
sg25
F0.8
sg26
I1024
sg27
F0.125
sg28
g29
(g33
S'\n\xd7\xa3p=\n\xb7?'
p395
tp396
Rp397
sg39
F0.5
sg40
I2
sg41
F0.1
sg42
F0.1
sg43
F0.4
sg44
I6
sg45
I12
sg46
g29
(g33
S'333333\xc3?'
p398
tp399
Rp400
sg50
I1
sg51
I1
sg52
g53
sg54
I10
sg55
F0.1225
sg56
I1
sg57
I225
sg58
I1
sg59
F0.2
sg60
g61
sg64
I15
sa(dp401
g4
I20
sg5
F0.3
sg6
F0.2
sg7
F0.05
sg8
F0.4
sg9
I8
sg10
I8
sg11
F0.95
sg12
I6
sg13
F0.4
sg14
I64
sg15
F0.15
sg16
I0
sg17
I2
sg18
F1.2
sg19
F0.125
sg20
F0.9
sg21
I1
sg22
I9
sg23
I-1
sg24
I512
sg25
F0.8
sg26
I1024
sg27
F0.125
sg28
g29
(g33
S'\xb8\x1e\x85\xebQ\xb8\xbe\xbf'
p402
tp403
Rp404
sg39
F0.5
sg40
I2
sg41
F0.1
sg42
F0.1
sg43
F0.4
sg44
I6
sg45
I12
sg46
g29
(g33
S'\n\xd7\xa3p=\n\xb7\xbf'
p405
tp406
Rp407
sg50
I1
sg51
I1
sg52
g53
sg54
I10
sg55
F0.1225
sg56
I1
sg57
I225
sg58
I1
sg59
F0.2
sg60
g61
sg64
I15
sa(dp408
g4
I20
sg5
F0.3
sg6
F0.2
sg7
F0.05
sg8
F0.4
sg9
I8
sg10
I8
sg11
F0.95
sg12
I6
sg13
F0.4
sg14
I64
sg15
F0.15
sg16
I0
sg17
I2
sg18
F1.2
sg19
F0.125
sg20
F0.9
sg21
I1
sg22
I10
sg23
I-1
sg24
I512
sg25
F0.8
sg26
I1024
sg27
F0.125
sg28
g29
(g33
S'\xb8\x1e\x85\xebQ\xb8\xbe?'
p409
tp410
Rp411
sg39
F0.5
sg40
I2
sg41
F0.1
sg42
F0.1
sg43
F0.4
sg44
I6
sg45
I12
sg46
g29
(g33
S'\xb8\x1e\x85\xebQ\xb8\x9e\xbf'
p412
tp413
Rp414
sg50
I1
sg51
I1
sg52
g53
sg54
I10
sg55
F0.1225
sg56
I1
sg57
I225
sg58
I1
sg59
F0.2
sg60
g61
sg64
I15
sa(dp415
g4
I20
sg5
F0.3
sg6
F0.2
sg7
F0.05
sg8
F0.4
sg9
I8
sg10
I8
sg11
F0.95
sg12
I6
sg13
F0.4
sg14
I64
sg15
F0.15
sg16
I0
sg17
I2
sg18
F1.2
sg19
F0.125
sg20
F0.9
sg21
I1
sg22
I11
sg23
I-1
sg24
I512
sg25
F0.8
sg26
I1024
sg27
F0.125
sg28
g29
(g33
S'\xb8\x1e\x85\xebQ\xb8\xae?'
p416
tp417
Rp418
sg39
F0.5
sg40
I2
sg41
F0.1
sg42
F0.1
sg43
F0.4
sg44
I6
sg45
I12
sg46
g29
(g33
S'333333\xc3\xbf'
p419
tp420
Rp421
sg50
I1
sg51
I1
sg52
g53
sg54
I10
sg55
F0.1225
sg56
I1
sg57
I225
sg58
I1
sg59
F0.2
sg60
g61
sg64
I15
sa(dp422
g4
I20
sg5
F0.3
sg6
F0.2
sg7
F0.05
sg8
F0.4
sg9
I8
sg10
I8
sg11
F0.95
sg12
I6
sg13
F0.4
sg14
I64
sg15
F0.15
sg16
I0
sg17
I2
sg18
F1.2
sg19
F0.125
sg20
F0.9
sg21
I1
sg22
I12
sg23
I-1
sg24
I512
sg25
F0.8
sg26
I1024
sg27
F0.125
sg28
g29
(g33
S'\xb8\x1e\x85\xebQ\xb8\xbe?'
p423
tp424
Rp425
sg39
F0.5
sg40
I2
sg41
F0.1
sg42
F0.1
sg43
F0.4
sg44
I6
sg45
I12
sg46
g29
(g33
S'\x00\x00\x00\x00\x00\x00\x00\x00'
p426
tp427
Rp428
sg50
I1
sg51
I1
sg52
g53
sg54
I10
sg55
F0.1225
sg56
I1
sg57
I225
sg58
I1
sg59
F0.2
sg60
g61
sg64
I15
sa(dp429
g4
I20
sg5
F0.3
sg6
F0.2
sg7
F0.05
sg8
F0.4
sg9
I8
sg10
I8
sg11
F0.95
sg12
I6
sg13
F0.4
sg14
I64
sg15
F0.15
sg16
I0
sg17
I2
sg18
F1.2
sg19
F0.125
sg20
F0.9
sg21
I1
sg22
I13
sg23
I-1
sg24
I512
sg25
F0.8
sg26
I1024
sg27
F0.125
sg28
g29
(g33
S'333333\xc3?'
p430
tp431
Rp432
sg39
F0.5
sg40
I2
sg41
F0.1
sg42
F0.1
sg43
F0.4
sg44
I6
sg45
I12
sg46
g29
(g33
S'\xb8\x1e\x85\xebQ\xb8\x9e\xbf'
p433
tp434
Rp435
sg50
I1
sg51
I1
sg52
g53
sg54
I10
sg55
F0.1225
sg56
I1
sg57
I225
sg58
I1
sg59
F0.2
sg60
g61
sg64
I15
sa(dp436
g4
I20
sg5
F0.3
sg6
F0.2
sg7
F0.05
sg8
F0.4
sg9
I8
sg10
I8
sg11
F0.95
sg12
I6
sg13
F0.4
sg14
I64
sg15
F0.15
sg16
I0
sg17
I2
sg18
F1.2
sg19
F0.125
sg20
F0.9
sg21
I1
sg22
I14
sg23
I-1
sg24
I512
sg25
F0.8
sg26
I1024
sg27
F0.125
sg28
g29
(g33
S'\xb8\x1e\x85\xebQ\xb8\xae\xbf'
p437
tp438
Rp439
sg39
F0.5
sg40
I2
sg41
F0.1
sg42
F0.1
sg43
F0.4
sg44
I6
sg45
I12
sg46
g29
(g33
S'\xb8\x1e\x85\xebQ\xb8\x9e\xbf'
p440
tp441
Rp442
sg50
I1
sg51
I1
sg52
g53
sg54
I10
sg55
F0.1225
sg56
I1
sg57
I225
sg58
I1
sg59
F0.2
sg60
g61
sg64
I15
sa(dp443
g4
I20
sg5
F0.3
sg6
F0.2
sg7
F0.05
sg8
F0.4
sg9
I8
sg10
I8
sg11
F0.95
sg12
I6
sg13
F0.4
sg14
I64
sg15
F0.15
sg16
I0
sg17
I2
sg18
F1.2
sg19
F0.125
sg20
F0.9
sg21
I1
sg22
I15
sg23
I-1
sg24
I512
sg25
F0.8
sg26
I1024
sg27
F0.125
sg28
g29
(g33
S'\xb8\x1e\x85\xebQ\xb8\xbe\xbf'
p444
tp445
Rp446
sg39
F0.5
sg40
I2
sg41
F0.1
sg42
F0.1
sg43
F0.4
sg44
I6
sg45
I12
sg46
g29
(g33
S'\n\xd7\xa3p=\n\xb7\xbf'
p447
tp448
Rp449
sg50
I1
sg51
I1
sg52
g53
sg54
I10
sg55
F0.1225
sg56
I1
sg57
I225
sg58
I1
sg59
F0.2
sg60
g61
sg64
I15
sa(dp450
g4
I20
sg5
F0.3
sg6
F0.2
sg7
F0.05
sg8
F0.4
sg9
I8
sg10
I8
sg11
F0.95
sg12
I6
sg13
F0.4
sg14
I64
sg15
F0.15
sg16
I0
sg17
I2
sg18
F1.2
sg19
F0.125
sg20
F0.9
sg21
I1
sg22
I16
sg23
I-1
sg24
I512
sg25
F0.8
sg26
I1024
sg27
F0.125
sg28
g29
(g33
S'\xb8\x1e\x85\xebQ\xb8\xbe?'
p451
tp452
Rp453
sg39
F0.5
sg40
I2
sg41
F0.1
sg42
F0.1
sg43
F0.4
sg44
I6
sg45
I12
sg46
g29
(g33
S'\xb8\x1e\x85\xebQ\xb8\x9e\xbf'
p454
tp455
Rp456
sg50
I1
sg51
I1
sg52
g53
sg54
I10
sg55
F0.1225
sg56
I1
sg57
I225
sg58
I1
sg59
F0.2
sg60
g61
sg64
I15
sa(dp457
g4
I20
sg5
F0.3
sg6
F0.2
sg7
F0.05
sg8
F0.4
sg9
I8
sg10
I8
sg11
F0.95
sg12
I6
sg13
F0.4
sg14
I64
sg15
F0.15
sg16
I0
sg17
I2
sg18
F1.2
sg19
F0.125
sg20
F0.9
sg21
I1
sg22
I17
sg23
I-1
sg24
I512
sg25
F0.8
sg26
I1024
sg27
F0.125
sg28
g29
(g33
S'\xb8\x1e\x85\xebQ\xb8\x9e\xbf'
p458
tp459
Rp460
sg39
F0.5
sg40
I2
sg41
F0.1
sg42
F0.1
sg43
F0.4
sg44
I6
sg45
I12
sg46
g29
(g33
S'\n\xd7\xa3p=\n\xb7?'
p461
tp462
Rp463
sg50
I1
sg51
I1
sg52
g53
sg54
I10
sg55
F0.1225
sg56
I1
sg57
I225
sg58
I1
sg59
F0.2
sg60
g61
sg64
I15
sa(dp464
g4
I20
sg5
F0.3
sg6
F0.2
sg7
F0.05
sg8
F0.4
sg9
I8
sg10
I8
sg11
F0.95
sg12
I6
sg13
F0.4
sg14
I64
sg15
F0.15
sg16
I0
sg17
I2
sg18
F1.2
sg19
F0.125
sg20
F0.9
sg21
I1
sg22
I18
sg23
I-1
sg24
I512
sg25
F0.8
sg26
I1024
sg27
F0.125
sg28
g29
(g33
S'\x00\x00\x00\x00\x00\x00\x00\x00'
p465
tp466
Rp467
sg39
F0.5
sg40
I2
sg41
F0.1
sg42
F0.1
sg43
F0.4
sg44
I6
sg45
I12
sg46
g29
(g33
S'\n\xd7\xa3p=\n\xb7?'
p468
tp469
Rp470
sg50
I1
sg51
I1
sg52
g53
sg54
I10
sg55
F0.1225
sg56
I1
sg57
I225
sg58
I1
sg59
F0.2
sg60
g61
sg64
I15
sa(dp471
g4
I20
sg5
F0.3
sg6
F0.2
sg7
F0.05
sg8
F0.4
sg9
I8
sg10
I8
sg11
F0.95
sg12
I6
sg13
F0.4
sg14
I64
sg15
F0.15
sg16
I0
sg17
I2
sg18
F1.2
sg19
F0.125
sg20
F0.9
sg21
I1
sg22
I19
sg23
I-1
sg24
I512
sg25
F0.8
sg26
I1024
sg27
F0.125
sg28
g29
(g33
S'\xb8\x1e\x85\xebQ\xb8\xae\xbf'
p472
tp473
Rp474
sg39
F0.5
sg40
I2
sg41
F0.1
sg42
F0.1
sg43
F0.4
sg44
I6
sg45
I12
sg46
g29
(g33
S'\xb8\x1e\x85\xebQ\xb8\xbe\xbf'
p475
tp476
Rp477
sg50
I1
sg51
I1
sg52
g53
sg54
I10
sg55
F0.1225
sg56
I1
sg57
I225
sg58
I1
sg59
F0.2
sg60
g61
sg64
I15
sa(dp478
g4
I20
sg5
F0.3
sg6
F0.2
sg7
F0.05
sg8
F0.4
sg9
I8
sg10
I8
sg11
F0.95
sg12
I6
sg13
F0.4
sg14
I64
sg15
F0.15
sg16
I0
sg17
I2
sg18
F1.2
sg19
F0.125
sg20
F0.9
sg21
I1
sg22
I0
sg23
I-1
sg24
I512
sg25
F0.8
sg26
I1024
sg27
F0.125
sg28
g29
(g33
S'\xb8\x1e\x85\xebQ\xb8\x9e?'
p479
tp480
Rp481
sg39
F0.5
sg40
I2
sg41
F0.1
sg42
F0.1
sg43
F0.4
sg44
I6
sg45
I12
sg46
g29
(g33
S'\xb8\x1e\x85\xebQ\xb8\x9e\xbf'
p482
tp483
Rp484
sg50
I1
sg51
I1
sg52
g53
sg54
I10
sg55
F0.1225
sg56
I1
sg57
I-1
sg58
I1
sg59
F0.2
sg60
g61
sg64
I15
sa(dp485
g4
I20
sg5
F0.3
sg6
F0.2
sg7
F0.05
sg8
F0.4
sg9
I8
sg10
I8
sg11
F0.95
sg12
I6
sg13
F0.4
sg14
I64
sg15
F0.15
sg16
I0
sg17
I2
sg18
F1.2
sg19
F0.125
sg20
F0.9
sg21
I1
sg22
I1
sg23
I-1
sg24
I512
sg25
F0.8
sg26
I1024
sg27
F0.125
sg28
g29
(g33
S'\xb8\x1e\x85\xebQ\xb8\xbe?'
p486
tp487
Rp488
sg39
F0.5
sg40
I2
sg41
F0.1
sg42
F0.1
sg43
F0.4
sg44
I6
sg45
I12
sg46
g29
(g33
S'333333\xc3?'
p489
tp490
Rp491
sg50
I1
sg51
I1
sg52
g53
sg54
I10
sg55
F0.1225
sg56
I1
sg57
I-1
sg58
I1
sg59
F0.2
sg60
g61
sg64
I15
sa(dp492
g4
I20
sg5
F0.3
sg6
F0.2
sg7
F0.05
sg8
F0.4
sg9
I8
sg10
I8
sg11
F0.95
sg12
I6
sg13
F0.4
sg14
I64
sg15
F0.15
sg16
I0
sg17
I2
sg18
F1.2
sg19
F0.125
sg20
F0.9
sg21
I1
sg22
I2
sg23
I-1
sg24
I512
sg25
F0.8
sg26
I1024
sg27
F0.125
sg28
g29
(g33
S'\n\xd7\xa3p=\n\xb7\xbf'
p493
tp494
Rp495
sg39
F0.5
sg40
I2
sg41
F0.1
sg42
F0.1
sg43
F0.4
sg44
I6
sg45
I12
sg46
g29
(g33
S'333333\xc3?'
p496
tp497
Rp498
sg50
I1
sg51
I1
sg52
g53
sg54
I10
sg55
F0.1225
sg56
I1
sg57
I-1
sg58
I1
sg59
F0.2
sg60
g61
sg64
I15
sa(dp499
g4
I20
sg5
F0.3
sg6
F0.2
sg7
F0.05
sg8
F0.4
sg9
I8
sg10
I8
sg11
F0.95
sg12
I6
sg13
F0.4
sg14
I64
sg15
F0.15
sg16
I0
sg17
I2
sg18
F1.2
sg19
F0.125
sg20
F0.9
sg21
I1
sg22
I3
sg23
I-1
sg24
I512
sg25
F0.8
sg26
I1024
sg27
F0.125
sg28
g29
(g33
S'\n\xd7\xa3p=\n\xb7\xbf'
p500
tp501
Rp502
sg39
F0.5
sg40
I2
sg41
F0.1
sg42
F0.1
sg43
F0.4
sg44
I6
sg45
I12
sg46
g29
(g33
S'\x00\x00\x00\x00\x00\x00\x00\x00'
p503
tp504
Rp505
sg50
I1
sg51
I1
sg52
g53
sg54
I10
sg55
F0.1225
sg56
I1
sg57
I-1
sg58
I1
sg59
F0.2
sg60
g61
sg64
I15
sa(dp506
g4
I20
sg5
F0.3
sg6
F0.2
sg7
F0.05
sg8
F0.4
sg9
I8
sg10
I8
sg11
F0.95
sg12
I6
sg13
F0.4
sg14
I64
sg15
F0.15
sg16
I0
sg17
I2
sg18
F1.2
sg19
F0.125
sg20
F0.9
sg21
I1
sg22
I4
sg23
I-1
sg24
I512
sg25
F0.8
sg26
I1024
sg27
F0.125
sg28
g29
(g33
S'\n\xd7\xa3p=\n\xb7\xbf'
p507
tp508
Rp509
sg39
F0.5
sg40
I2
sg41
F0.1
sg42
F0.1
sg43
F0.4
sg44
I6
sg45
I12
sg46
g29
(g33
S'\n\xd7\xa3p=\n\xb7?'
p510
tp511
Rp512
sg50
I1
sg51
I1
sg52
g53
sg54
I10
sg55
F0.1225
sg56
I1
sg57
I-1
sg58
I1
sg59
F0.2
sg60
g61
sg64
I15
sa(dp513
g4
I20
sg5
F0.3
sg6
F0.2
sg7
F0.05
sg8
F0.4
sg9
I8
sg10
I8
sg11
F0.95
sg12
I6
sg13
F0.4
sg14
I64
sg15
F0.15
sg16
I0
sg17
I2
sg18
F1.2
sg19
F0.125
sg20
F0.9
sg21
I1
sg22
I5
sg23
I-1
sg24
I512
sg25
F0.8
sg26
I1024
sg27
F0.125
sg28
g29
(g33
S'\x00\x00\x00\x00\x00\x00\x00\x00'
p514
tp515
Rp516
sg39
F0.5
sg40
I2
sg41
F0.1
sg42
F0.1
sg43
F0.4
sg44
I6
sg45
I12
sg46
g29
(g33
S'\x00\x00\x00\x00\x00\x00\x00\x00'
p517
tp518
Rp519
sg50
I1
sg51
I1
sg52
g53
sg54
I10
sg55
F0.1225
sg56
I1
sg57
I-1
sg58
I1
sg59
F0.2
sg60
g61
sg64
I15
sa(dp520
g4
I20
sg5
F0.3
sg6
F0.2
sg7
F0.05
sg8
F0.4
sg9
I8
sg10
I8
sg11
F0.95
sg12
I6
sg13
F0.4
sg14
I64
sg15
F0.15
sg16
I0
sg17
I2
sg18
F1.2
sg19
F0.125
sg20
F0.9
sg21
I1
sg22
I6
sg23
I-1
sg24
I512
sg25
F0.8
sg26
I1024
sg27
F0.125
sg28
g29
(g33
S'\xb8\x1e\x85\xebQ\xb8\xae\xbf'
p521
tp522
Rp523
sg39
F0.5
sg40
I2
sg41
F0.1
sg42
F0.1
sg43
F0.4
sg44
I6
sg45
I12
sg46
g29
(g33
S'333333\xc3?'
p524
tp525
Rp526
sg50
I1
sg51
I1
sg52
g53
sg54
I10
sg55
F0.1225
sg56
I1
sg57
I-1
sg58
I1
sg59
F0.2
sg60
g61
sg64
I15
sa(dp527
g4
I20
sg5
F0.3
sg6
F0.2
sg7
F0.05
sg8
F0.4
sg9
I8
sg10
I8
sg11
F0.95
sg12
I6
sg13
F0.4
sg14
I64
sg15
F0.15
sg16
I0
sg17
I2
sg18
F1.2
sg19
F0.125
sg20
F0.9
sg21
I1
sg22
I7
sg23
I-1
sg24
I512
sg25
F0.8
sg26
I1024
sg27
F0.125
sg28
g29
(g33
S'\n\xd7\xa3p=\n\xb7\xbf'
p528
tp529
Rp530
sg39
F0.5
sg40
I2
sg41
F0.1
sg42
F0.1
sg43
F0.4
sg44
I6
sg45
I12
sg46
g29
(g33
S'\x00\x00\x00\x00\x00\x00\x00\x00'
p531
tp532
Rp533
sg50
I1
sg51
I1
sg52
g53
sg54
I10
sg55
F0.1225
sg56
I1
sg57
I-1
sg58
I1
sg59
F0.2
sg60
g61
sg64
I15
sa(dp534
g4
I20
sg5
F0.3
sg6
F0.2
sg7
F0.05
sg8
F0.4
sg9
I8
sg10
I8
sg11
F0.95
sg12
I6
sg13
F0.4
sg14
I64
sg15
F0.15
sg16
I0
sg17
I2
sg18
F1.2
sg19
F0.125
sg20
F0.9
sg21
I1
sg22
I8
sg23
I-1
sg24
I512
sg25
F0.8
sg26
I1024
sg27
F0.125
sg28
g29
(g33
S'\xb8\x1e\x85\xebQ\xb8\xae?'
p535
tp536
Rp537
sg39
F0.5
sg40
I2
sg41
F0.1
sg42
F0.1
sg43
F0.4
sg44
I6
sg45
I12
sg46
g29
(g33
S'\xb8\x1e\x85\xebQ\xb8\xbe?'
p538
tp539
Rp540
sg50
I1
sg51
I1
sg52
g53
sg54
I10
sg55
F0.1225
sg56
I1
sg57
I-1
sg58
I1
sg59
F0.2
sg60
g61
sg64
I15
sa(dp541
g4
I20
sg5
F0.3
sg6
F0.2
sg7
F0.05
sg8
F0.4
sg9
I8
sg10
I8
sg11
F0.95
sg12
I6
sg13
F0.4
sg14
I64
sg15
F0.15
sg16
I0
sg17
I2
sg18
F1.2
sg19
F0.125
sg20
F0.9
sg21
I1
sg22
I9
sg23
I-1
sg24
I512
sg25
F0.8
sg26
I1024
sg27
F0.125
sg28
g29
(g33
S'\n\xd7\xa3p=\n\xb7\xbf'
p542
tp543
Rp544
sg39
F0.5
sg40
I2
sg41
F0.1
sg42
F0.1
sg43
F0.4
sg44
I6
sg45
I12
sg46
g29
(g33
S'\xb8\x1e\x85\xebQ\xb8\xbe?'
p545
tp546
Rp547
sg50
I1
sg51
I1
sg52
g53
sg54
I10
sg55
F0.1225
sg56
I1
sg57
I-1
sg58
I1
sg59
F0.2
sg60
g61
sg64
I15
sa(dp548
g4
I20
sg5
F0.3
sg6
F0.2
sg7
F0.05
sg8
F0.4
sg9
I8
sg10
I8
sg11
F0.95
sg12
I6
sg13
F0.4
sg14
I64
sg15
F0.15
sg16
I0
sg17
I2
sg18
F1.2
sg19
F0.125
sg20
F0.9
sg21
I1
sg22
I10
sg23
I-1
sg24
I512
sg25
F0.8
sg26
I1024
sg27
F0.125
sg28
g29
(g33
S'333333\xc3\xbf'
p549
tp550
Rp551
sg39
F0.5
sg40
I2
sg41
F0.1
sg42
F0.1
sg43
F0.4
sg44
I6
sg45
I12
sg46
g29
(g33
S'\n\xd7\xa3p=\n\xb7?'
p552
tp553
Rp554
sg50
I1
sg51
I1
sg52
g53
sg54
I10
sg55
F0.1225
sg56
I1
sg57
I-1
sg58
I1
sg59
F0.2
sg60
g61
sg64
I15
sa(dp555
g4
I20
sg5
F0.3
sg6
F0.2
sg7
F0.05
sg8
F0.4
sg9
I8
sg10
I8
sg11
F0.95
sg12
I6
sg13
F0.4
sg14
I64
sg15
F0.15
sg16
I0
sg17
I2
sg18
F1.2
sg19
F0.125
sg20
F0.9
sg21
I1
sg22
I11
sg23
I-1
sg24
I512
sg25
F0.8
sg26
I1024
sg27
F0.125
sg28
g29
(g33
S'\xb8\x1e\x85\xebQ\xb8\xae\xbf'
p556
tp557
Rp558
sg39
F0.5
sg40
I2
sg41
F0.1
sg42
F0.1
sg43
F0.4
sg44
I6
sg45
I12
sg46
g29
(g33
S'\xb8\x1e\x85\xebQ\xb8\x9e\xbf'
p559
tp560
Rp561
sg50
I1
sg51
I1
sg52
g53
sg54
I10
sg55
F0.1225
sg56
I1
sg57
I-1
sg58
I1
sg59
F0.2
sg60
g61
sg64
I15
sa(dp562
g4
I20
sg5
F0.3
sg6
F0.2
sg7
F0.05
sg8
F0.4
sg9
I8
sg10
I8
sg11
F0.95
sg12
I6
sg13
F0.4
sg14
I64
sg15
F0.15
sg16
I0
sg17
I2
sg18
F1.2
sg19
F0.125
sg20
F0.9
sg21
I1
sg22
I12
sg23
I-1
sg24
I512
sg25
F0.8
sg26
I1024
sg27
F0.125
sg28
g29
(g33
S'\x00\x00\x00\x00\x00\x00\x00\x00'
p563
tp564
Rp565
sg39
F0.5
sg40
I2
sg41
F0.1
sg42
F0.1
sg43
F0.4
sg44
I6
sg45
I12
sg46
g29
(g33
S'\x00\x00\x00\x00\x00\x00\x00\x00'
p566
tp567
Rp568
sg50
I1
sg51
I1
sg52
g53
sg54
I10
sg55
F0.1225
sg56
I1
sg57
I-1
sg58
I1
sg59
F0.2
sg60
g61
sg64
I15
sa(dp569
g4
I20
sg5
F0.3
sg6
F0.2
sg7
F0.05
sg8
F0.4
sg9
I8
sg10
I8
sg11
F0.95
sg12
I6
sg13
F0.4
sg14
I64
sg15
F0.15
sg16
I0
sg17
I2
sg18
F1.2
sg19
F0.125
sg20
F0.9
sg21
I1
sg22
I13
sg23
I-1
sg24
I512
sg25
F0.8
sg26
I1024
sg27
F0.125
sg28
g29
(g33
S'\xb8\x1e\x85\xebQ\xb8\xae\xbf'
p570
tp571
Rp572
sg39
F0.5
sg40
I2
sg41
F0.1
sg42
F0.1
sg43
F0.4
sg44
I6
sg45
I12
sg46
g29
(g33
S'333333\xc3?'
p573
tp574
Rp575
sg50
I1
sg51
I1
sg52
g53
sg54
I10
sg55
F0.1225
sg56
I1
sg57
I-1
sg58
I1
sg59
F0.2
sg60
g61
sg64
I15
sa(dp576
g4
I20
sg5
F0.3
sg6
F0.2
sg7
F0.05
sg8
F0.4
sg9
I8
sg10
I8
sg11
F0.95
sg12
I6
sg13
F0.4
sg14
I64
sg15
F0.15
sg16
I0
sg17
I2
sg18
F1.2
sg19
F0.125
sg20
F0.9
sg21
I1
sg22
I14
sg23
I-1
sg24
I512
sg25
F0.8
sg26
I1024
sg27
F0.125
sg28
g29
(g33
S'333333\xc3?'
p577
tp578
Rp579
sg39
F0.5
sg40
I2
sg41
F0.1
sg42
F0.1
sg43
F0.4
sg44
I6
sg45
I12
sg46
g29
(g33
S'333333\xc3?'
p580
tp581
Rp582
sg50
I1
sg51
I1
sg52
g53
sg54
I10
sg55
F0.1225
sg56
I1
sg57
I-1
sg58
I1
sg59
F0.2
sg60
g61
sg64
I15
sa(dp583
g4
I20
sg5
F0.3
sg6
F0.2
sg7
F0.05
sg8
F0.4
sg9
I8
sg10
I8
sg11
F0.95
sg12
I6
sg13
F0.4
sg14
I64
sg15
F0.15
sg16
I0
sg17
I2
sg18
F1.2
sg19
F0.125
sg20
F0.9
sg21
I1
sg22
I15
sg23
I-1
sg24
I512
sg25
F0.8
sg26
I1024
sg27
F0.125
sg28
g29
(g33
S'333333\xc3?'
p584
tp585
Rp586
sg39
F0.5
sg40
I2
sg41
F0.1
sg42
F0.1
sg43
F0.4
sg44
I6
sg45
I12
sg46
g29
(g33
S'333333\xc3\xbf'
p587
tp588
Rp589
sg50
I1
sg51
I1
sg52
g53
sg54
I10
sg55
F0.1225
sg56
I1
sg57
I-1
sg58
I1
sg59
F0.2
sg60
g61
sg64
I15
sa(dp590
g4
I20
sg5
F0.3
sg6
F0.2
sg7
F0.05
sg8
F0.4
sg9
I8
sg10
I8
sg11
F0.95
sg12
I6
sg13
F0.4
sg14
I64
sg15
F0.15
sg16
I0
sg17
I2
sg18
F1.2
sg19
F0.125
sg20
F0.9
sg21
I1
sg22
I16
sg23
I-1
sg24
I512
sg25
F0.8
sg26
I1024
sg27
F0.125
sg28
g29
(g33
S'\xb8\x1e\x85\xebQ\xb8\xbe\xbf'
p591
tp592
Rp593
sg39
F0.5
sg40
I2
sg41
F0.1
sg42
F0.1
sg43
F0.4
sg44
I6
sg45
I12
sg46
g29
(g33
S'\n\xd7\xa3p=\n\xb7\xbf'
p594
tp595
Rp596
sg50
I1
sg51
I1
sg52
g53
sg54
I10
sg55
F0.1225
sg56
I1
sg57
I-1
sg58
I1
sg59
F0.2
sg60
g61
sg64
I15
sa(dp597
g4
I20
sg5
F0.3
sg6
F0.2
sg7
F0.05
sg8
F0.4
sg9
I8
sg10
I8
sg11
F0.95
sg12
I6
sg13
F0.4
sg14
I64
sg15
F0.15
sg16
I0
sg17
I2
sg18
F1.2
sg19
F0.125
sg20
F0.9
sg21
I1
sg22
I17
sg23
I-1
sg24
I512
sg25
F0.8
sg26
I1024
sg27
F0.125
sg28
g29
(g33
S'333333\xc3?'
p598
tp599
Rp600
sg39
F0.5
sg40
I2
sg41
F0.1
sg42
F0.1
sg43
F0.4
sg44
I6
sg45
I12
sg46
g29
(g33
S'\xb8\x1e\x85\xebQ\xb8\x9e\xbf'
p601
tp602
Rp603
sg50
I1
sg51
I1
sg52
g53
sg54
I10
sg55
F0.1225
sg56
I1
sg57
I-1
sg58
I1
sg59
F0.2
sg60
g61
sg64
I15
sa(dp604
g4
I20
sg5
F0.3
sg6
F0.2
sg7
F0.05
sg8
F0.4
sg9
I8
sg10
I8
sg11
F0.95
sg12
I6
sg13
F0.4
sg14
I64
sg15
F0.15
sg16
I0
sg17
I2
sg18
F1.2
sg19
F0.125
sg20
F0.9
sg21
I1
sg22
I18
sg23
I-1
sg24
I512
sg25
F0.8
sg26
I1024
sg27
F0.125
sg28
g29
(g33
S'\xb8\x1e\x85\xebQ\xb8\xae?'
p605
tp606
Rp607
sg39
F0.5
sg40
I2
sg41
F0.1
sg42
F0.1
sg43
F0.4
sg44
I6
sg45
I12
sg46
g29
(g33
S'\xb8\x1e\x85\xebQ\xb8\xbe\xbf'
p608
tp609
Rp610
sg50
I1
sg51
I1
sg52
g53
sg54
I10
sg55
F0.1225
sg56
I1
sg57
I-1
sg58
I1
sg59
F0.2
sg60
g61
sg64
I15
sa(dp611
g4
I20
sg5
F0.3
sg6
F0.2
sg7
F0.05
sg8
F0.4
sg9
I8
sg10
I8
sg11
F0.95
sg12
I6
sg13
F0.4
sg14
I64
sg15
F0.15
sg16
I0
sg17
I2
sg18
F1.2
sg19
F0.125
sg20
F0.9
sg21
I1
sg22
I19
sg23
I-1
sg24
I512
sg25
F0.8
sg26
I1024
sg27
F0.125
sg28
g29
(g33
S'\n\xd7\xa3p=\n\xb7\xbf'
p612
tp613
Rp614
sg39
F0.5
sg40
I2
sg41
F0.1
sg42
F0.1
sg43
F0.4
sg44
I6
sg45
I12
sg46
g29
(g33
S'\n\xd7\xa3p=\n\xb7\xbf'
p615
tp616
Rp617
sg50
I1
sg51
I1
sg52
g53
sg54
I10
sg55
F0.1225
sg56
I1
sg57
I-1
sg58
I1
sg59
F0.2
sg60
g61
sg64
I15
sa(dp618
g4
I20
sg5
F0.3
sg6
F0.2
sg7
F0.05
sg8
F0.4
sg9
I8
sg10
I8
sg11
F0.95
sg12
I6
sg13
F0.4
sg14
I64
sg15
F0.15
sg16
I0
sg17
I2
sg18
F1.2
sg19
F0.125
sg20
F0.9
sg21
I1
sg22
I0
sg23
I-1
sg24
I512
sg25
F0.8
sg26
I1024
sg27
F0.125
sg28
g29
(g33
S'\n\xd7\xa3p=\n\xb7\xbf'
p619
tp620
Rp621
sg39
F0.5
sg40
I2
sg41
F0.1
sg42
F0.1
sg43
F0.4
sg44
I6
sg45
I12
sg46
g29
(g33
S'333333\xc3\xbf'
p622
tp623
Rp624
sg50
I1
sg51
I1
sg52
g53
sg54
I10
sg55
F0.1225
sg56
I1
sg57
I90
sg58
I1
sg59
F0.2
sg60
g61
sg64
I15
sa(dp625
g4
I20
sg5
F0.3
sg6
F0.2
sg7
F0.05
sg8
F0.4
sg9
I8
sg10
I8
sg11
F0.95
sg12
I6
sg13
F0.4
sg14
I64
sg15
F0.15
sg16
I0
sg17
I2
sg18
F1.2
sg19
F0.125
sg20
F0.9
sg21
I1
sg22
I1
sg23
I-1
sg24
I512
sg25
F0.8
sg26
I1024
sg27
F0.125
sg28
g29
(g33
S'\xb8\x1e\x85\xebQ\xb8\xae\xbf'
p626
tp627
Rp628
sg39
F0.5
sg40
I2
sg41
F0.1
sg42
F0.1
sg43
F0.4
sg44
I6
sg45
I12
sg46
g29
(g33
S'333333\xc3?'
p629
tp630
Rp631
sg50
I1
sg51
I1
sg52
g53
sg54
I10
sg55
F0.1225
sg56
I1
sg57
I90
sg58
I1
sg59
F0.2
sg60
g61
sg64
I15
sa(dp632
g4
I20
sg5
F0.3
sg6
F0.2
sg7
F0.05
sg8
F0.4
sg9
I8
sg10
I8
sg11
F0.95
sg12
I6
sg13
F0.4
sg14
I64
sg15
F0.15
sg16
I0
sg17
I2
sg18
F1.2
sg19
F0.125
sg20
F0.9
sg21
I1
sg22
I2
sg23
I-1
sg24
I512
sg25
F0.8
sg26
I1024
sg27
F0.125
sg28
g29
(g33
S'\xb8\x1e\x85\xebQ\xb8\xbe?'
p633
tp634
Rp635
sg39
F0.5
sg40
I2
sg41
F0.1
sg42
F0.1
sg43
F0.4
sg44
I6
sg45
I12
sg46
g29
(g33
S'\xb8\x1e\x85\xebQ\xb8\x9e\xbf'
p636
tp637
Rp638
sg50
I1
sg51
I1
sg52
g53
sg54
I10
sg55
F0.1225
sg56
I1
sg57
I90
sg58
I1
sg59
F0.2
sg60
g61
sg64
I15
sa(dp639
g4
I20
sg5
F0.3
sg6
F0.2
sg7
F0.05
sg8
F0.4
sg9
I8
sg10
I8
sg11
F0.95
sg12
I6
sg13
F0.4
sg14
I64
sg15
F0.15
sg16
I0
sg17
I2
sg18
F1.2
sg19
F0.125
sg20
F0.9
sg21
I1
sg22
I3
sg23
I-1
sg24
I512
sg25
F0.8
sg26
I1024
sg27
F0.125
sg28
g29
(g33
S'\n\xd7\xa3p=\n\xb7?'
p640
tp641
Rp642
sg39
F0.5
sg40
I2
sg41
F0.1
sg42
F0.1
sg43
F0.4
sg44
I6
sg45
I12
sg46
g29
(g33
S'\xb8\x1e\x85\xebQ\xb8\x9e?'
p643
tp644
Rp645
sg50
I1
sg51
I1
sg52
g53
sg54
I10
sg55
F0.1225
sg56
I1
sg57
I90
sg58
I1
sg59
F0.2
sg60
g61
sg64
I15
sa(dp646
g4
I20
sg5
F0.3
sg6
F0.2
sg7
F0.05
sg8
F0.4
sg9
I8
sg10
I8
sg11
F0.95
sg12
I6
sg13
F0.4
sg14
I64
sg15
F0.15
sg16
I0
sg17
I2
sg18
F1.2
sg19
F0.125
sg20
F0.9
sg21
I1
sg22
I4
sg23
I-1
sg24
I512
sg25
F0.8
sg26
I1024
sg27
F0.125
sg28
g29
(g33
S'\xb8\x1e\x85\xebQ\xb8\xae?'
p647
tp648
Rp649
sg39
F0.5
sg40
I2
sg41
F0.1
sg42
F0.1
sg43
F0.4
sg44
I6
sg45
I12
sg46
g29
(g33
S'333333\xc3?'
p650
tp651
Rp652
sg50
I1
sg51
I1
sg52
g53
sg54
I10
sg55
F0.1225
sg56
I1
sg57
I90
sg58
I1
sg59
F0.2
sg60
g61
sg64
I15
sa(dp653
g4
I20
sg5
F0.3
sg6
F0.2
sg7
F0.05
sg8
F0.4
sg9
I8
sg10
I8
sg11
F0.95
sg12
I6
sg13
F0.4
sg14
I64
sg15
F0.15
sg16
I0
sg17
I2
sg18
F1.2
sg19
F0.125
sg20
F0.9
sg21
I1
sg22
I5
sg23
I-1
sg24
I512
sg25
F0.8
sg26
I1024
sg27
F0.125
sg28
g29
(g33
S'\xb8\x1e\x85\xebQ\xb8\xbe?'
p654
tp655
Rp656
sg39
F0.5
sg40
I2
sg41
F0.1
sg42
F0.1
sg43
F0.4
sg44
I6
sg45
I12
sg46
g29
(g33
S'\n\xd7\xa3p=\n\xb7?'
p657
tp658
Rp659
sg50
I1
sg51
I1
sg52
g53
sg54
I10
sg55
F0.1225
sg56
I1
sg57
I90
sg58
I1
sg59
F0.2
sg60
g61
sg64
I15
sa(dp660
g4
I20
sg5
F0.3
sg6
F0.2
sg7
F0.05
sg8
F0.4
sg9
I8
sg10
I8
sg11
F0.95
sg12
I6
sg13
F0.4
sg14
I64
sg15
F0.15
sg16
I0
sg17
I2
sg18
F1.2
sg19
F0.125
sg20
F0.9
sg21
I1
sg22
I6
sg23
I-1
sg24
I512
sg25
F0.8
sg26
I1024
sg27
F0.125
sg28
g29
(g33
S'\xb8\x1e\x85\xebQ\xb8\x9e?'
p661
tp662
Rp663
sg39
F0.5
sg40
I2
sg41
F0.1
sg42
F0.1
sg43
F0.4
sg44
I6
sg45
I12
sg46
g29
(g33
S'\n\xd7\xa3p=\n\xb7?'
p664
tp665
Rp666
sg50
I1
sg51
I1
sg52
g53
sg54
I10
sg55
F0.1225
sg56
I1
sg57
I90
sg58
I1
sg59
F0.2
sg60
g61
sg64
I15
sa(dp667
g4
I20
sg5
F0.3
sg6
F0.2
sg7
F0.05
sg8
F0.4
sg9
I8
sg10
I8
sg11
F0.95
sg12
I6
sg13
F0.4
sg14
I64
sg15
F0.15
sg16
I0
sg17
I2
sg18
F1.2
sg19
F0.125
sg20
F0.9
sg21
I1
sg22
I7
sg23
I-1
sg24
I512
sg25
F0.8
sg26
I1024
sg27
F0.125
sg28
g29
(g33
S'\xb8\x1e\x85\xebQ\xb8\x9e\xbf'
p668
tp669
Rp670
sg39
F0.5
sg40
I2
sg41
F0.1
sg42
F0.1
sg43
F0.4
sg44
I6
sg45
I12
sg46
g29
(g33
S'\xb8\x1e\x85\xebQ\xb8\xae?'
p671
tp672
Rp673
sg50
I1
sg51
I1
sg52
g53
sg54
I10
sg55
F0.1225
sg56
I1
sg57
I90
sg58
I1
sg59
F0.2
sg60
g61
sg64
I15
sa(dp674
g4
I20
sg5
F0.3
sg6
F0.2
sg7
F0.05
sg8
F0.4
sg9
I8
sg10
I8
sg11
F0.95
sg12
I6
sg13
F0.4
sg14
I64
sg15
F0.15
sg16
I0
sg17
I2
sg18
F1.2
sg19
F0.125
sg20
F0.9
sg21
I1
sg22
I8
sg23
I-1
sg24
I512
sg25
F0.8
sg26
I1024
sg27
F0.125
sg28
g29
(g33
S'\xb8\x1e\x85\xebQ\xb8\xbe?'
p675
tp676
Rp677
sg39
F0.5
sg40
I2
sg41
F0.1
sg42
F0.1
sg43
F0.4
sg44
I6
sg45
I12
sg46
g29
(g33
S'\xb8\x1e\x85\xebQ\xb8\x9e\xbf'
p678
tp679
Rp680
sg50
I1
sg51
I1
sg52
g53
sg54
I10
sg55
F0.1225
sg56
I1
sg57
I90
sg58
I1
sg59
F0.2
sg60
g61
sg64
I15
sa(dp681
g4
I20
sg5
F0.3
sg6
F0.2
sg7
F0.05
sg8
F0.4
sg9
I8
sg10
I8
sg11
F0.95
sg12
I6
sg13
F0.4
sg14
I64
sg15
F0.15
sg16
I0
sg17
I2
sg18
F1.2
sg19
F0.125
sg20
F0.9
sg21
I1
sg22
I9
sg23
I-1
sg24
I512
sg25
F0.8
sg26
I1024
sg27
F0.125
sg28
g29
(g33
S'\xb8\x1e\x85\xebQ\xb8\xbe?'
p682
tp683
Rp684
sg39
F0.5
sg40
I2
sg41
F0.1
sg42
F0.1
sg43
F0.4
sg44
I6
sg45
I12
sg46
g29
(g33
S'\n\xd7\xa3p=\n\xb7\xbf'
p685
tp686
Rp687
sg50
I1
sg51
I1
sg52
g53
sg54
I10
sg55
F0.1225
sg56
I1
sg57
I90
sg58
I1
sg59
F0.2
sg60
g61
sg64
I15
sa(dp688
g4
I20
sg5
F0.3
sg6
F0.2
sg7
F0.05
sg8
F0.4
sg9
I8
sg10
I8
sg11
F0.95
sg12
I6
sg13
F0.4
sg14
I64
sg15
F0.15
sg16
I0
sg17
I2
sg18
F1.2
sg19
F0.125
sg20
F0.9
sg21
I1
sg22
I10
sg23
I-1
sg24
I512
sg25
F0.8
sg26
I1024
sg27
F0.125
sg28
g29
(g33
S'\xb8\x1e\x85\xebQ\xb8\xbe?'
p689
tp690
Rp691
sg39
F0.5
sg40
I2
sg41
F0.1
sg42
F0.1
sg43
F0.4
sg44
I6
sg45
I12
sg46
g29
(g33
S'\n\xd7\xa3p=\n\xb7\xbf'
p692
tp693
Rp694
sg50
I1
sg51
I1
sg52
g53
sg54
I10
sg55
F0.1225
sg56
I1
sg57
I90
sg58
I1
sg59
F0.2
sg60
g61
sg64
I15
sa(dp695
g4
I20
sg5
F0.3
sg6
F0.2
sg7
F0.05
sg8
F0.4
sg9
I8
sg10
I8
sg11
F0.95
sg12
I6
sg13
F0.4
sg14
I64
sg15
F0.15
sg16
I0
sg17
I2
sg18
F1.2
sg19
F0.125
sg20
F0.9
sg21
I1
sg22
I11
sg23
I-1
sg24
I512
sg25
F0.8
sg26
I1024
sg27
F0.125
sg28
g29
(g33
S'\x00\x00\x00\x00\x00\x00\x00\x00'
p696
tp697
Rp698
sg39
F0.5
sg40
I2
sg41
F0.1
sg42
F0.1
sg43
F0.4
sg44
I6
sg45
I12
sg46
g29
(g33
S'333333\xc3?'
p699
tp700
Rp701
sg50
I1
sg51
I1
sg52
g53
sg54
I10
sg55
F0.1225
sg56
I1
sg57
I90
sg58
I1
sg59
F0.2
sg60
g61
sg64
I15
sa(dp702
g4
I20
sg5
F0.3
sg6
F0.2
sg7
F0.05
sg8
F0.4
sg9
I8
sg10
I8
sg11
F0.95
sg12
I6
sg13
F0.4
sg14
I64
sg15
F0.15
sg16
I0
sg17
I2
sg18
F1.2
sg19
F0.125
sg20
F0.9
sg21
I1
sg22
I12
sg23
I-1
sg24
I512
sg25
F0.8
sg26
I1024
sg27
F0.125
sg28
g29
(g33
S'\xb8\x1e\x85\xebQ\xb8\xae?'
p703
tp704
Rp705
sg39
F0.5
sg40
I2
sg41
F0.1
sg42
F0.1
sg43
F0.4
sg44
I6
sg45
I12
sg46
g29
(g33
S'\xb8\x1e\x85\xebQ\xb8\x9e?'
p706
tp707
Rp708
sg50
I1
sg51
I1
sg52
g53
sg54
I10
sg55
F0.1225
sg56
I1
sg57
I90
sg58
I1
sg59
F0.2
sg60
g61
sg64
I15
sa(dp709
g4
I20
sg5
F0.3
sg6
F0.2
sg7
F0.05
sg8
F0.4
sg9
I8
sg10
I8
sg11
F0.95
sg12
I6
sg13
F0.4
sg14
I64
sg15
F0.15
sg16
I0
sg17
I2
sg18
F1.2
sg19
F0.125
sg20
F0.9
sg21
I1
sg22
I13
sg23
I-1
sg24
I512
sg25
F0.8
sg26
I1024
sg27
F0.125
sg28
g29
(g33
S'\xb8\x1e\x85\xebQ\xb8\xbe\xbf'
p710
tp711
Rp712
sg39
F0.5
sg40
I2
sg41
F0.1
sg42
F0.1
sg43
F0.4
sg44
I6
sg45
I12
sg46
g29
(g33
S'\xb8\x1e\x85\xebQ\xb8\xbe\xbf'
p713
tp714
Rp715
sg50
I1
sg51
I1
sg52
g53
sg54
I10
sg55
F0.1225
sg56
I1
sg57
I90
sg58
I1
sg59
F0.2
sg60
g61
sg64
I15
sa(dp716
g4
I20
sg5
F0.3
sg6
F0.2
sg7
F0.05
sg8
F0.4
sg9
I8
sg10
I8
sg11
F0.95
sg12
I6
sg13
F0.4
sg14
I64
sg15
F0.15
sg16
I0
sg17
I2
sg18
F1.2
sg19
F0.125
sg20
F0.9
sg21
I1
sg22
I14
sg23
I-1
sg24
I512
sg25
F0.8
sg26
I1024
sg27
F0.125
sg28
g29
(g33
S'333333\xc3\xbf'
p717
tp718
Rp719
sg39
F0.5
sg40
I2
sg41
F0.1
sg42
F0.1
sg43
F0.4
sg44
I6
sg45
I12
sg46
g29
(g33
S'\xb8\x1e\x85\xebQ\xb8\xbe?'
p720
tp721
Rp722
sg50
I1
sg51
I1
sg52
g53
sg54
I10
sg55
F0.1225
sg56
I1
sg57
I90
sg58
I1
sg59
F0.2
sg60
g61
sg64
I15
sa(dp723
g4
I20
sg5
F0.3
sg6
F0.2
sg7
F0.05
sg8
F0.4
sg9
I8
sg10
I8
sg11
F0.95
sg12
I6
sg13
F0.4
sg14
I64
sg15
F0.15
sg16
I0
sg17
I2
sg18
F1.2
sg19
F0.125
sg20
F0.9
sg21
I1
sg22
I15
sg23
I-1
sg24
I512
sg25
F0.8
sg26
I1024
sg27
F0.125
sg28
g29
(g33
S'\xb8\x1e\x85\xebQ\xb8\xae\xbf'
p724
tp725
Rp726
sg39
F0.5
sg40
I2
sg41
F0.1
sg42
F0.1
sg43
F0.4
sg44
I6
sg45
I12
sg46
g29
(g33
S'\xb8\x1e\x85\xebQ\xb8\xae\xbf'
p727
tp728
Rp729
sg50
I1
sg51
I1
sg52
g53
sg54
I10
sg55
F0.1225
sg56
I1
sg57
I90
sg58
I1
sg59
F0.2
sg60
g61
sg64
I15
sa(dp730
g4
I20
sg5
F0.3
sg6
F0.2
sg7
F0.05
sg8
F0.4
sg9
I8
sg10
I8
sg11
F0.95
sg12
I6
sg13
F0.4
sg14
I64
sg15
F0.15
sg16
I0
sg17
I2
sg18
F1.2
sg19
F0.125
sg20
F0.9
sg21
I1
sg22
I16
sg23
I-1
sg24
I512
sg25
F0.8
sg26
I1024
sg27
F0.125
sg28
g29
(g33
S'\x00\x00\x00\x00\x00\x00\x00\x00'
p731
tp732
Rp733
sg39
F0.5
sg40
I2
sg41
F0.1
sg42
F0.1
sg43
F0.4
sg44
I6
sg45
I12
sg46
g29
(g33
S'\xb8\x1e\x85\xebQ\xb8\x9e?'
p734
tp735
Rp736
sg50
I1
sg51
I1
sg52
g53
sg54
I10
sg55
F0.1225
sg56
I1
sg57
I90
sg58
I1
sg59
F0.2
sg60
g61
sg64
I15
sa(dp737
g4
I20
sg5
F0.3
sg6
F0.2
sg7
F0.05
sg8
F0.4
sg9
I8
sg10
I8
sg11
F0.95
sg12
I6
sg13
F0.4
sg14
I64
sg15
F0.15
sg16
I0
sg17
I2
sg18
F1.2
sg19
F0.125
sg20
F0.9
sg21
I1
sg22
I17
sg23
I-1
sg24
I512
sg25
F0.8
sg26
I1024
sg27
F0.125
sg28
g29
(g33
S'\x00\x00\x00\x00\x00\x00\x00\x00'
p738
tp739
Rp740
sg39
F0.5
sg40
I2
sg41
F0.1
sg42
F0.1
sg43
F0.4
sg44
I6
sg45
I12
sg46
g29
(g33
S'\n\xd7\xa3p=\n\xb7\xbf'
p741
tp742
Rp743
sg50
I1
sg51
I1
sg52
g53
sg54
I10
sg55
F0.1225
sg56
I1
sg57
I90
sg58
I1
sg59
F0.2
sg60
g61
sg64
I15
sa(dp744
g4
I20
sg5
F0.3
sg6
F0.2
sg7
F0.05
sg8
F0.4
sg9
I8
sg10
I8
sg11
F0.95
sg12
I6
sg13
F0.4
sg14
I64
sg15
F0.15
sg16
I0
sg17
I2
sg18
F1.2
sg19
F0.125
sg20
F0.9
sg21
I1
sg22
I18
sg23
I-1
sg24
I512
sg25
F0.8
sg26
I1024
sg27
F0.125
sg28
g29
(g33
S'\xb8\x1e\x85\xebQ\xb8\xae\xbf'
p745
tp746
Rp747
sg39
F0.5
sg40
I2
sg41
F0.1
sg42
F0.1
sg43
F0.4
sg44
I6
sg45
I12
sg46
g29
(g33
S'\xb8\x1e\x85\xebQ\xb8\xae?'
p748
tp749
Rp750
sg50
I1
sg51
I1
sg52
g53
sg54
I10
sg55
F0.1225
sg56
I1
sg57
I90
sg58
I1
sg59
F0.2
sg60
g61
sg64
I15
sa(dp751
g4
I20
sg5
F0.3
sg6
F0.2
sg7
F0.05
sg8
F0.4
sg9
I8
sg10
I8
sg11
F0.95
sg12
I6
sg13
F0.4
sg14
I64
sg15
F0.15
sg16
I0
sg17
I2
sg18
F1.2
sg19
F0.125
sg20
F0.9
sg21
I1
sg22
I19
sg23
I-1
sg24
I512
sg25
F0.8
sg26
I1024
sg27
F0.125
sg28
g29
(g33
S'\xb8\x1e\x85\xebQ\xb8\xae\xbf'
p752
tp753
Rp754
sg39
F0.5
sg40
I2
sg41
F0.1
sg42
F0.1
sg43
F0.4
sg44
I6
sg45
I12
sg46
g29
(g33
S'\x00\x00\x00\x00\x00\x00\x00\x00'
p755
tp756
Rp757
sg50
I1
sg51
I1
sg52
g53
sg54
I10
sg55
F0.1225
sg56
I1
sg57
I90
sg58
I1
sg59
F0.2
sg60
g61
sg64
I15
sa(dp758
g4
I20
sg5
F0.3
sg6
F0.2
sg7
F0.05
sg8
F0.4
sg9
I8
sg10
I8
sg11
F0.95
sg12
I6
sg13
F0.4
sg14
I64
sg15
F0.15
sg16
I0
sg17
I2
sg18
F1.2
sg19
F0.125
sg20
F0.9
sg21
I1
sg22
I0
sg23
I-1
sg24
I512
sg25
F0.8
sg26
I1024
sg27
F0.125
sg28
g29
(g33
S'\x00\x00\x00\x00\x00\x00\x00\x00'
p759
tp760
Rp761
sg39
F0.5
sg40
I2
sg41
F0.1
sg42
F0.1
sg43
F0.4
sg44
I6
sg45
I12
sg46
g29
(g33
S'\xb8\x1e\x85\xebQ\xb8\xae\xbf'
p762
tp763
Rp764
sg50
I1
sg51
I1
sg52
g53
sg54
I10
sg55
F0.1225
sg56
I1
sg57
I135
sg58
I1
sg59
F0.2
sg60
g61
sg64
I15
sa(dp765
g4
I20
sg5
F0.3
sg6
F0.2
sg7
F0.05
sg8
F0.4
sg9
I8
sg10
I8
sg11
F0.95
sg12
I6
sg13
F0.4
sg14
I64
sg15
F0.15
sg16
I0
sg17
I2
sg18
F1.2
sg19
F0.125
sg20
F0.9
sg21
I1
sg22
I1
sg23
I-1
sg24
I512
sg25
F0.8
sg26
I1024
sg27
F0.125
sg28
g29
(g33
S'\x00\x00\x00\x00\x00\x00\x00\x00'
p766
tp767
Rp768
sg39
F0.5
sg40
I2
sg41
F0.1
sg42
F0.1
sg43
F0.4
sg44
I6
sg45
I12
sg46
g29
(g33
S'\xb8\x1e\x85\xebQ\xb8\xae\xbf'
p769
tp770
Rp771
sg50
I1
sg51
I1
sg52
g53
sg54
I10
sg55
F0.1225
sg56
I1
sg57
I135
sg58
I1
sg59
F0.2
sg60
g61
sg64
I15
sa(dp772
g4
I20
sg5
F0.3
sg6
F0.2
sg7
F0.05
sg8
F0.4
sg9
I8
sg10
I8
sg11
F0.95
sg12
I6
sg13
F0.4
sg14
I64
sg15
F0.15
sg16
I0
sg17
I2
sg18
F1.2
sg19
F0.125
sg20
F0.9
sg21
I1
sg22
I2
sg23
I-1
sg24
I512
sg25
F0.8
sg26
I1024
sg27
F0.125
sg28
g29
(g33
S'333333\xc3?'
p773
tp774
Rp775
sg39
F0.5
sg40
I2
sg41
F0.1
sg42
F0.1
sg43
F0.4
sg44
I6
sg45
I12
sg46
g29
(g33
S'\n\xd7\xa3p=\n\xb7?'
p776
tp777
Rp778
sg50
I1
sg51
I1
sg52
g53
sg54
I10
sg55
F0.1225
sg56
I1
sg57
I135
sg58
I1
sg59
F0.2
sg60
g61
sg64
I15
sa(dp779
g4
I20
sg5
F0.3
sg6
F0.2
sg7
F0.05
sg8
F0.4
sg9
I8
sg10
I8
sg11
F0.95
sg12
I6
sg13
F0.4
sg14
I64
sg15
F0.15
sg16
I0
sg17
I2
sg18
F1.2
sg19
F0.125
sg20
F0.9
sg21
I1
sg22
I3
sg23
I-1
sg24
I512
sg25
F0.8
sg26
I1024
sg27
F0.125
sg28
g29
(g33
S'333333\xc3\xbf'
p780
tp781
Rp782
sg39
F0.5
sg40
I2
sg41
F0.1
sg42
F0.1
sg43
F0.4
sg44
I6
sg45
I12
sg46
g29
(g33
S'333333\xc3?'
p783
tp784
Rp785
sg50
I1
sg51
I1
sg52
g53
sg54
I10
sg55
F0.1225
sg56
I1
sg57
I135
sg58
I1
sg59
F0.2
sg60
g61
sg64
I15
sa(dp786
g4
I20
sg5
F0.3
sg6
F0.2
sg7
F0.05
sg8
F0.4
sg9
I8
sg10
I8
sg11
F0.95
sg12
I6
sg13
F0.4
sg14
I64
sg15
F0.15
sg16
I0
sg17
I2
sg18
F1.2
sg19
F0.125
sg20
F0.9
sg21
I1
sg22
I4
sg23
I-1
sg24
I512
sg25
F0.8
sg26
I1024
sg27
F0.125
sg28
g29
(g33
S'\n\xd7\xa3p=\n\xb7\xbf'
p787
tp788
Rp789
sg39
F0.5
sg40
I2
sg41
F0.1
sg42
F0.1
sg43
F0.4
sg44
I6
sg45
I12
sg46
g29
(g33
S'\xb8\x1e\x85\xebQ\xb8\xae?'
p790
tp791
Rp792
sg50
I1
sg51
I1
sg52
g53
sg54
I10
sg55
F0.1225
sg56
I1
sg57
I135
sg58
I1
sg59
F0.2
sg60
g61
sg64
I15
sa(dp793
g4
I20
sg5
F0.3
sg6
F0.2
sg7
F0.05
sg8
F0.4
sg9
I8
sg10
I8
sg11
F0.95
sg12
I6
sg13
F0.4
sg14
I64
sg15
F0.15
sg16
I0
sg17
I2
sg18
F1.2
sg19
F0.125
sg20
F0.9
sg21
I1
sg22
I5
sg23
I-1
sg24
I512
sg25
F0.8
sg26
I1024
sg27
F0.125
sg28
g29
(g33
S'\xb8\x1e\x85\xebQ\xb8\xbe?'
p794
tp795
Rp796
sg39
F0.5
sg40
I2
sg41
F0.1
sg42
F0.1
sg43
F0.4
sg44
I6
sg45
I12
sg46
g29
(g33
S'333333\xc3?'
p797
tp798
Rp799
sg50
I1
sg51
I1
sg52
g53
sg54
I10
sg55
F0.1225
sg56
I1
sg57
I135
sg58
I1
sg59
F0.2
sg60
g61
sg64
I15
sa(dp800
g4
I20
sg5
F0.3
sg6
F0.2
sg7
F0.05
sg8
F0.4
sg9
I8
sg10
I8
sg11
F0.95
sg12
I6
sg13
F0.4
sg14
I64
sg15
F0.15
sg16
I0
sg17
I2
sg18
F1.2
sg19
F0.125
sg20
F0.9
sg21
I1
sg22
I6
sg23
I-1
sg24
I512
sg25
F0.8
sg26
I1024
sg27
F0.125
sg28
g29
(g33
S'\xb8\x1e\x85\xebQ\xb8\xbe\xbf'
p801
tp802
Rp803
sg39
F0.5
sg40
I2
sg41
F0.1
sg42
F0.1
sg43
F0.4
sg44
I6
sg45
I12
sg46
g29
(g33
S'\xb8\x1e\x85\xebQ\xb8\xae?'
p804
tp805
Rp806
sg50
I1
sg51
I1
sg52
g53
sg54
I10
sg55
F0.1225
sg56
I1
sg57
I135
sg58
I1
sg59
F0.2
sg60
g61
sg64
I15
sa(dp807
g4
I20
sg5
F0.3
sg6
F0.2
sg7
F0.05
sg8
F0.4
sg9
I8
sg10
I8
sg11
F0.95
sg12
I6
sg13
F0.4
sg14
I64
sg15
F0.15
sg16
I0
sg17
I2
sg18
F1.2
sg19
F0.125
sg20
F0.9
sg21
I1
sg22
I7
sg23
I-1
sg24
I512
sg25
F0.8
sg26
I1024
sg27
F0.125
sg28
g29
(g33
S'\xb8\x1e\x85\xebQ\xb8\xbe\xbf'
p808
tp809
Rp810
sg39
F0.5
sg40
I2
sg41
F0.1
sg42
F0.1
sg43
F0.4
sg44
I6
sg45
I12
sg46
g29
(g33
S'\xb8\x1e\x85\xebQ\xb8\xbe\xbf'
p811
tp812
Rp813
sg50
I1
sg51
I1
sg52
g53
sg54
I10
sg55
F0.1225
sg56
I1
sg57
I135
sg58
I1
sg59
F0.2
sg60
g61
sg64
I15
sa(dp814
g4
I20
sg5
F0.3
sg6
F0.2
sg7
F0.05
sg8
F0.4
sg9
I8
sg10
I8
sg11
F0.95
sg12
I6
sg13
F0.4
sg14
I64
sg15
F0.15
sg16
I0
sg17
I2
sg18
F1.2
sg19
F0.125
sg20
F0.9
sg21
I1
sg22
I8
sg23
I-1
sg24
I512
sg25
F0.8
sg26
I1024
sg27
F0.125
sg28
g29
(g33
S'\n\xd7\xa3p=\n\xb7\xbf'
p815
tp816
Rp817
sg39
F0.5
sg40
I2
sg41
F0.1
sg42
F0.1
sg43
F0.4
sg44
I6
sg45
I12
sg46
g29
(g33
S'\xb8\x1e\x85\xebQ\xb8\x9e?'
p818
tp819
Rp820
sg50
I1
sg51
I1
sg52
g53
sg54
I10
sg55
F0.1225
sg56
I1
sg57
I135
sg58
I1
sg59
F0.2
sg60
g61
sg64
I15
sa(dp821
g4
I20
sg5
F0.3
sg6
F0.2
sg7
F0.05
sg8
F0.4
sg9
I8
sg10
I8
sg11
F0.95
sg12
I6
sg13
F0.4
sg14
I64
sg15
F0.15
sg16
I0
sg17
I2
sg18
F1.2
sg19
F0.125
sg20
F0.9
sg21
I1
sg22
I9
sg23
I-1
sg24
I512
sg25
F0.8
sg26
I1024
sg27
F0.125
sg28
g29
(g33
S'333333\xc3\xbf'
p822
tp823
Rp824
sg39
F0.5
sg40
I2
sg41
F0.1
sg42
F0.1
sg43
F0.4
sg44
I6
sg45
I12
sg46
g29
(g33
S'\n\xd7\xa3p=\n\xb7\xbf'
p825
tp826
Rp827
sg50
I1
sg51
I1
sg52
g53
sg54
I10
sg55
F0.1225
sg56
I1
sg57
I135
sg58
I1
sg59
F0.2
sg60
g61
sg64
I15
sa(dp828
g4
I20
sg5
F0.3
sg6
F0.2
sg7
F0.05
sg8
F0.4
sg9
I8
sg10
I8
sg11
F0.95
sg12
I6
sg13
F0.4
sg14
I64
sg15
F0.15
sg16
I0
sg17
I2
sg18
F1.2
sg19
F0.125
sg20
F0.9
sg21
I1
sg22
I10
sg23
I-1
sg24
I512
sg25
F0.8
sg26
I1024
sg27
F0.125
sg28
g29
(g33
S'\xb8\x1e\x85\xebQ\xb8\x9e?'
p829
tp830
Rp831
sg39
F0.5
sg40
I2
sg41
F0.1
sg42
F0.1
sg43
F0.4
sg44
I6
sg45
I12
sg46
g29
(g33
S'\xb8\x1e\x85\xebQ\xb8\xae\xbf'
p832
tp833
Rp834
sg50
I1
sg51
I1
sg52
g53
sg54
I10
sg55
F0.1225
sg56
I1
sg57
I135
sg58
I1
sg59
F0.2
sg60
g61
sg64
I15
sa(dp835
g4
I20
sg5
F0.3
sg6
F0.2
sg7
F0.05
sg8
F0.4
sg9
I8
sg10
I8
sg11
F0.95
sg12
I6
sg13
F0.4
sg14
I64
sg15
F0.15
sg16
I0
sg17
I2
sg18
F1.2
sg19
F0.125
sg20
F0.9
sg21
I1
sg22
I11
sg23
I-1
sg24
I512
sg25
F0.8
sg26
I1024
sg27
F0.125
sg28
g29
(g33
S'333333\xc3\xbf'
p836
tp837
Rp838
sg39
F0.5
sg40
I2
sg41
F0.1
sg42
F0.1
sg43
F0.4
sg44
I6
sg45
I12
sg46
g29
(g33
S'\xb8\x1e\x85\xebQ\xb8\xbe\xbf'
p839
tp840
Rp841
sg50
I1
sg51
I1
sg52
g53
sg54
I10
sg55
F0.1225
sg56
I1
sg57
I135
sg58
I1
sg59
F0.2
sg60
g61
sg64
I15
sa(dp842
g4
I20
sg5
F0.3
sg6
F0.2
sg7
F0.05
sg8
F0.4
sg9
I8
sg10
I8
sg11
F0.95
sg12
I6
sg13
F0.4
sg14
I64
sg15
F0.15
sg16
I0
sg17
I2
sg18
F1.2
sg19
F0.125
sg20
F0.9
sg21
I1
sg22
I12
sg23
I-1
sg24
I512
sg25
F0.8
sg26
I1024
sg27
F0.125
sg28
g29
(g33
S'\xb8\x1e\x85\xebQ\xb8\xbe\xbf'
p843
tp844
Rp845
sg39
F0.5
sg40
I2
sg41
F0.1
sg42
F0.1
sg43
F0.4
sg44
I6
sg45
I12
sg46
g29
(g33
S'\xb8\x1e\x85\xebQ\xb8\xbe\xbf'
p846
tp847
Rp848
sg50
I1
sg51
I1
sg52
g53
sg54
I10
sg55
F0.1225
sg56
I1
sg57
I135
sg58
I1
sg59
F0.2
sg60
g61
sg64
I15
sa(dp849
g4
I20
sg5
F0.3
sg6
F0.2
sg7
F0.05
sg8
F0.4
sg9
I8
sg10
I8
sg11
F0.95
sg12
I6
sg13
F0.4
sg14
I64
sg15
F0.15
sg16
I0
sg17
I2
sg18
F1.2
sg19
F0.125
sg20
F0.9
sg21
I1
sg22
I13
sg23
I-1
sg24
I512
sg25
F0.8
sg26
I1024
sg27
F0.125
sg28
g29
(g33
S'\xb8\x1e\x85\xebQ\xb8\x9e\xbf'
p850
tp851
Rp852
sg39
F0.5
sg40
I2
sg41
F0.1
sg42
F0.1
sg43
F0.4
sg44
I6
sg45
I12
sg46
g29
(g33
S'\xb8\x1e\x85\xebQ\xb8\xae?'
p853
tp854
Rp855
sg50
I1
sg51
I1
sg52
g53
sg54
I10
sg55
F0.1225
sg56
I1
sg57
I135
sg58
I1
sg59
F0.2
sg60
g61
sg64
I15
sa(dp856
g4
I20
sg5
F0.3
sg6
F0.2
sg7
F0.05
sg8
F0.4
sg9
I8
sg10
I8
sg11
F0.95
sg12
I6
sg13
F0.4
sg14
I64
sg15
F0.15
sg16
I0
sg17
I2
sg18
F1.2
sg19
F0.125
sg20
F0.9
sg21
I1
sg22
I14
sg23
I-1
sg24
I512
sg25
F0.8
sg26
I1024
sg27
F0.125
sg28
g29
(g33
S'\xb8\x1e\x85\xebQ\xb8\x9e?'
p857
tp858
Rp859
sg39
F0.5
sg40
I2
sg41
F0.1
sg42
F0.1
sg43
F0.4
sg44
I6
sg45
I12
sg46
g29
(g33
S'\x00\x00\x00\x00\x00\x00\x00\x00'
p860
tp861
Rp862
sg50
I1
sg51
I1
sg52
g53
sg54
I10
sg55
F0.1225
sg56
I1
sg57
I135
sg58
I1
sg59
F0.2
sg60
g61
sg64
I15
sa(dp863
g4
I20
sg5
F0.3
sg6
F0.2
sg7
F0.05
sg8
F0.4
sg9
I8
sg10
I8
sg11
F0.95
sg12
I6
sg13
F0.4
sg14
I64
sg15
F0.15
sg16
I0
sg17
I2
sg18
F1.2
sg19
F0.125
sg20
F0.9
sg21
I1
sg22
I15
sg23
I-1
sg24
I512
sg25
F0.8
sg26
I1024
sg27
F0.125
sg28
g29
(g33
S'\xb8\x1e\x85\xebQ\xb8\xbe\xbf'
p864
tp865
Rp866
sg39
F0.5
sg40
I2
sg41
F0.1
sg42
F0.1
sg43
F0.4
sg44
I6
sg45
I12
sg46
g29
(g33
S'\x00\x00\x00\x00\x00\x00\x00\x00'
p867
tp868
Rp869
sg50
I1
sg51
I1
sg52
g53
sg54
I10
sg55
F0.1225
sg56
I1
sg57
I135
sg58
I1
sg59
F0.2
sg60
g61
sg64
I15
sa(dp870
g4
I20
sg5
F0.3
sg6
F0.2
sg7
F0.05
sg8
F0.4
sg9
I8
sg10
I8
sg11
F0.95
sg12
I6
sg13
F0.4
sg14
I64
sg15
F0.15
sg16
I0
sg17
I2
sg18
F1.2
sg19
F0.125
sg20
F0.9
sg21
I1
sg22
I16
sg23
I-1
sg24
I512
sg25
F0.8
sg26
I1024
sg27
F0.125
sg28
g29
(g33
S'\xb8\x1e\x85\xebQ\xb8\xbe\xbf'
p871
tp872
Rp873
sg39
F0.5
sg40
I2
sg41
F0.1
sg42
F0.1
sg43
F0.4
sg44
I6
sg45
I12
sg46
g29
(g33
S'\xb8\x1e\x85\xebQ\xb8\x9e\xbf'
p874
tp875
Rp876
sg50
I1
sg51
I1
sg52
g53
sg54
I10
sg55
F0.1225
sg56
I1
sg57
I135
sg58
I1
sg59
F0.2
sg60
g61
sg64
I15
sa(dp877
g4
I20
sg5
F0.3
sg6
F0.2
sg7
F0.05
sg8
F0.4
sg9
I8
sg10
I8
sg11
F0.95
sg12
I6
sg13
F0.4
sg14
I64
sg15
F0.15
sg16
I0
sg17
I2
sg18
F1.2
sg19
F0.125
sg20
F0.9
sg21
I1
sg22
I17
sg23
I-1
sg24
I512
sg25
F0.8
sg26
I1024
sg27
F0.125
sg28
g29
(g33
S'\xb8\x1e\x85\xebQ\xb8\xae\xbf'
p878
tp879
Rp880
sg39
F0.5
sg40
I2
sg41
F0.1
sg42
F0.1
sg43
F0.4
sg44
I6
sg45
I12
sg46
g29
(g33
S'\n\xd7\xa3p=\n\xb7\xbf'
p881
tp882
Rp883
sg50
I1
sg51
I1
sg52
g53
sg54
I10
sg55
F0.1225
sg56
I1
sg57
I135
sg58
I1
sg59
F0.2
sg60
g61
sg64
I15
sa(dp884
g4
I20
sg5
F0.3
sg6
F0.2
sg7
F0.05
sg8
F0.4
sg9
I8
sg10
I8
sg11
F0.95
sg12
I6
sg13
F0.4
sg14
I64
sg15
F0.15
sg16
I0
sg17
I2
sg18
F1.2
sg19
F0.125
sg20
F0.9
sg21
I1
sg22
I18
sg23
I-1
sg24
I512
sg25
F0.8
sg26
I1024
sg27
F0.125
sg28
g29
(g33
S'\n\xd7\xa3p=\n\xb7\xbf'
p885
tp886
Rp887
sg39
F0.5
sg40
I2
sg41
F0.1
sg42
F0.1
sg43
F0.4
sg44
I6
sg45
I12
sg46
g29
(g33
S'\xb8\x1e\x85\xebQ\xb8\x9e\xbf'
p888
tp889
Rp890
sg50
I1
sg51
I1
sg52
g53
sg54
I10
sg55
F0.1225
sg56
I1
sg57
I135
sg58
I1
sg59
F0.2
sg60
g61
sg64
I15
sa(dp891
g4
I20
sg5
F0.3
sg6
F0.2
sg7
F0.05
sg8
F0.4
sg9
I8
sg10
I8
sg11
F0.95
sg12
I6
sg13
F0.4
sg14
I64
sg15
F0.15
sg16
I0
sg17
I2
sg18
F1.2
sg19
F0.125
sg20
F0.9
sg21
I1
sg22
I19
sg23
I-1
sg24
I512
sg25
F0.8
sg26
I1024
sg27
F0.125
sg28
g29
(g33
S'\xb8\x1e\x85\xebQ\xb8\xae?'
p892
tp893
Rp894
sg39
F0.5
sg40
I2
sg41
F0.1
sg42
F0.1
sg43
F0.4
sg44
I6
sg45
I12
sg46
g29
(g33
S'\xb8\x1e\x85\xebQ\xb8\x9e?'
p895
tp896
Rp897
sg50
I1
sg51
I1
sg52
g53
sg54
I10
sg55
F0.1225
sg56
I1
sg57
I135
sg58
I1
sg59
F0.2
sg60
g61
sg64
I15
sa(dp898
g4
I20
sg5
F0.3
sg6
F0.2
sg7
F0.05
sg8
F0.4
sg9
I8
sg10
I8
sg11
F0.95
sg12
I6
sg13
F0.4
sg14
I64
sg15
F0.15
sg16
I0
sg17
I2
sg18
F1.2
sg19
F0.125
sg20
F0.9
sg21
I1
sg22
I0
sg23
I-1
sg24
I512
sg25
F0.8
sg26
I1024
sg27
F0.125
sg28
g29
(g33
S'\x00\x00\x00\x00\x00\x00\x00\x00'
p899
tp900
Rp901
sg39
F0.5
sg40
I2
sg41
F0.1
sg42
F0.1
sg43
F0.4
sg44
I6
sg45
I12
sg46
g29
(g33
S'\x00\x00\x00\x00\x00\x00\x00\x00'
p902
tp903
Rp904
sg50
I1
sg51
I1
sg52
g53
sg54
I10
sg55
F0.1225
sg56
I1
sg57
I-1
sg58
I1
sg59
F0.2
sg60
g61
sg64
I15
sa(dp905
g4
I20
sg5
F0.3
sg6
F0.2
sg7
F0.05
sg8
F0.4
sg9
I8
sg10
I8
sg11
F0.95
sg12
I6
sg13
F0.4
sg14
I64
sg15
F0.15
sg16
I0
sg17
I2
sg18
F1.2
sg19
F0.125
sg20
F0.9
sg21
I1
sg22
I1
sg23
I-1
sg24
I512
sg25
F0.8
sg26
I1024
sg27
F0.125
sg28
g29
(g33
S'333333\xc3\xbf'
p906
tp907
Rp908
sg39
F0.5
sg40
I2
sg41
F0.1
sg42
F0.1
sg43
F0.4
sg44
I6
sg45
I12
sg46
g29
(g33
S'\xb8\x1e\x85\xebQ\xb8\xbe\xbf'
p909
tp910
Rp911
sg50
I1
sg51
I1
sg52
g53
sg54
I10
sg55
F0.1225
sg56
I1
sg57
I-1
sg58
I1
sg59
F0.2
sg60
g61
sg64
I15
sa(dp912
g4
I20
sg5
F0.3
sg6
F0.2
sg7
F0.05
sg8
F0.4
sg9
I8
sg10
I8
sg11
F0.95
sg12
I6
sg13
F0.4
sg14
I64
sg15
F0.15
sg16
I0
sg17
I2
sg18
F1.2
sg19
F0.125
sg20
F0.9
sg21
I1
sg22
I2
sg23
I-1
sg24
I512
sg25
F0.8
sg26
I1024
sg27
F0.125
sg28
g29
(g33
S'\xb8\x1e\x85\xebQ\xb8\x9e\xbf'
p913
tp914
Rp915
sg39
F0.5
sg40
I2
sg41
F0.1
sg42
F0.1
sg43
F0.4
sg44
I6
sg45
I12
sg46
g29
(g33
S'\xb8\x1e\x85\xebQ\xb8\x9e\xbf'
p916
tp917
Rp918
sg50
I1
sg51
I1
sg52
g53
sg54
I10
sg55
F0.1225
sg56
I1
sg57
I-1
sg58
I1
sg59
F0.2
sg60
g61
sg64
I15
sa(dp919
g4
I20
sg5
F0.3
sg6
F0.2
sg7
F0.05
sg8
F0.4
sg9
I8
sg10
I8
sg11
F0.95
sg12
I6
sg13
F0.4
sg14
I64
sg15
F0.15
sg16
I0
sg17
I2
sg18
F1.2
sg19
F0.125
sg20
F0.9
sg21
I1
sg22
I3
sg23
I-1
sg24
I512
sg25
F0.8
sg26
I1024
sg27
F0.125
sg28
g29
(g33
S'333333\xc3?'
p920
tp921
Rp922
sg39
F0.5
sg40
I2
sg41
F0.1
sg42
F0.1
sg43
F0.4
sg44
I6
sg45
I12
sg46
g29
(g33
S'\x00\x00\x00\x00\x00\x00\x00\x00'
p923
tp924
Rp925
sg50
I1
sg51
I1
sg52
g53
sg54
I10
sg55
F0.1225
sg56
I1
sg57
I-1
sg58
I1
sg59
F0.2
sg60
g61
sg64
I15
sa(dp926
g4
I20
sg5
F0.3
sg6
F0.2
sg7
F0.05
sg8
F0.4
sg9
I8
sg10
I8
sg11
F0.95
sg12
I6
sg13
F0.4
sg14
I64
sg15
F0.15
sg16
I0
sg17
I2
sg18
F1.2
sg19
F0.125
sg20
F0.9
sg21
I1
sg22
I4
sg23
I-1
sg24
I512
sg25
F0.8
sg26
I1024
sg27
F0.125
sg28
g29
(g33
S'\xb8\x1e\x85\xebQ\xb8\xae\xbf'
p927
tp928
Rp929
sg39
F0.5
sg40
I2
sg41
F0.1
sg42
F0.1
sg43
F0.4
sg44
I6
sg45
I12
sg46
g29
(g33
S'\xb8\x1e\x85\xebQ\xb8\xae?'
p930
tp931
Rp932
sg50
I1
sg51
I1
sg52
g53
sg54
I10
sg55
F0.1225
sg56
I1
sg57
I-1
sg58
I1
sg59
F0.2
sg60
g61
sg64
I15
sa(dp933
g4
I20
sg5
F0.3
sg6
F0.2
sg7
F0.05
sg8
F0.4
sg9
I8
sg10
I8
sg11
F0.95
sg12
I6
sg13
F0.4
sg14
I64
sg15
F0.15
sg16
I0
sg17
I2
sg18
F1.2
sg19
F0.125
sg20
F0.9
sg21
I1
sg22
I5
sg23
I-1
sg24
I512
sg25
F0.8
sg26
I1024
sg27
F0.125
sg28
g29
(g33
S'\xb8\x1e\x85\xebQ\xb8\xbe?'
p934
tp935
Rp936
sg39
F0.5
sg40
I2
sg41
F0.1
sg42
F0.1
sg43
F0.4
sg44
I6
sg45
I12
sg46
g29
(g33
S'\xb8\x1e\x85\xebQ\xb8\xae\xbf'
p937
tp938
Rp939
sg50
I1
sg51
I1
sg52
g53
sg54
I10
sg55
F0.1225
sg56
I1
sg57
I-1
sg58
I1
sg59
F0.2
sg60
g61
sg64
I15
sa(dp940
g4
I20
sg5
F0.3
sg6
F0.2
sg7
F0.05
sg8
F0.4
sg9
I8
sg10
I8
sg11
F0.95
sg12
I6
sg13
F0.4
sg14
I64
sg15
F0.15
sg16
I0
sg17
I2
sg18
F1.2
sg19
F0.125
sg20
F0.9
sg21
I1
sg22
I6
sg23
I-1
sg24
I512
sg25
F0.8
sg26
I1024
sg27
F0.125
sg28
g29
(g33
S'\xb8\x1e\x85\xebQ\xb8\xbe?'
p941
tp942
Rp943
sg39
F0.5
sg40
I2
sg41
F0.1
sg42
F0.1
sg43
F0.4
sg44
I6
sg45
I12
sg46
g29
(g33
S'\xb8\x1e\x85\xebQ\xb8\xbe?'
p944
tp945
Rp946
sg50
I1
sg51
I1
sg52
g53
sg54
I10
sg55
F0.1225
sg56
I1
sg57
I-1
sg58
I1
sg59
F0.2
sg60
g61
sg64
I15
sa(dp947
g4
I20
sg5
F0.3
sg6
F0.2
sg7
F0.05
sg8
F0.4
sg9
I8
sg10
I8
sg11
F0.95
sg12
I6
sg13
F0.4
sg14
I64
sg15
F0.15
sg16
I0
sg17
I2
sg18
F1.2
sg19
F0.125
sg20
F0.9
sg21
I1
sg22
I7
sg23
I-1
sg24
I512
sg25
F0.8
sg26
I1024
sg27
F0.125
sg28
g29
(g33
S'\n\xd7\xa3p=\n\xb7\xbf'
p948
tp949
Rp950
sg39
F0.5
sg40
I2
sg41
F0.1
sg42
F0.1
sg43
F0.4
sg44
I6
sg45
I12
sg46
g29
(g33
S'\x00\x00\x00\x00\x00\x00\x00\x00'
p951
tp952
Rp953
sg50
I1
sg51
I1
sg52
g53
sg54
I10
sg55
F0.1225
sg56
I1
sg57
I-1
sg58
I1
sg59
F0.2
sg60
g61
sg64
I15
sa(dp954
g4
I20
sg5
F0.3
sg6
F0.2
sg7
F0.05
sg8
F0.4
sg9
I8
sg10
I8
sg11
F0.95
sg12
I6
sg13
F0.4
sg14
I64
sg15
F0.15
sg16
I0
sg17
I2
sg18
F1.2
sg19
F0.125
sg20
F0.9
sg21
I1
sg22
I8
sg23
I-1
sg24
I512
sg25
F0.8
sg26
I1024
sg27
F0.125
sg28
g29
(g33
S'\n\xd7\xa3p=\n\xb7\xbf'
p955
tp956
Rp957
sg39
F0.5
sg40
I2
sg41
F0.1
sg42
F0.1
sg43
F0.4
sg44
I6
sg45
I12
sg46
g29
(g33
S'333333\xc3\xbf'
p958
tp959
Rp960
sg50
I1
sg51
I1
sg52
g53
sg54
I10
sg55
F0.1225
sg56
I1
sg57
I-1
sg58
I1
sg59
F0.2
sg60
g61
sg64
I15
sa(dp961
g4
I20
sg5
F0.3
sg6
F0.2
sg7
F0.05
sg8
F0.4
sg9
I8
sg10
I8
sg11
F0.95
sg12
I6
sg13
F0.4
sg14
I64
sg15
F0.15
sg16
I0
sg17
I2
sg18
F1.2
sg19
F0.125
sg20
F0.9
sg21
I1
sg22
I9
sg23
I-1
sg24
I512
sg25
F0.8
sg26
I1024
sg27
F0.125
sg28
g29
(g33
S'\xb8\x1e\x85\xebQ\xb8\xae\xbf'
p962
tp963
Rp964
sg39
F0.5
sg40
I2
sg41
F0.1
sg42
F0.1
sg43
F0.4
sg44
I6
sg45
I12
sg46
g29
(g33
S'\xb8\x1e\x85\xebQ\xb8\xbe?'
p965
tp966
Rp967
sg50
I1
sg51
I1
sg52
g53
sg54
I10
sg55
F0.1225
sg56
I1
sg57
I-1
sg58
I1
sg59
F0.2
sg60
g61
sg64
I15
sa(dp968
g4
I20
sg5
F0.3
sg6
F0.2
sg7
F0.05
sg8
F0.4
sg9
I8
sg10
I8
sg11
F0.95
sg12
I6
sg13
F0.4
sg14
I64
sg15
F0.15
sg16
I0
sg17
I2
sg18
F1.2
sg19
F0.125
sg20
F0.9
sg21
I1
sg22
I10
sg23
I-1
sg24
I512
sg25
F0.8
sg26
I1024
sg27
F0.125
sg28
g29
(g33
S'\xb8\x1e\x85\xebQ\xb8\x9e?'
p969
tp970
Rp971
sg39
F0.5
sg40
I2
sg41
F0.1
sg42
F0.1
sg43
F0.4
sg44
I6
sg45
I12
sg46
g29
(g33
S'333333\xc3\xbf'
p972
tp973
Rp974
sg50
I1
sg51
I1
sg52
g53
sg54
I10
sg55
F0.1225
sg56
I1
sg57
I-1
sg58
I1
sg59
F0.2
sg60
g61
sg64
I15
sa(dp975
g4
I20
sg5
F0.3
sg6
F0.2
sg7
F0.05
sg8
F0.4
sg9
I8
sg10
I8
sg11
F0.95
sg12
I6
sg13
F0.4
sg14
I64
sg15
F0.15
sg16
I0
sg17
I2
sg18
F1.2
sg19
F0.125
sg20
F0.9
sg21
I1
sg22
I11
sg23
I-1
sg24
I512
sg25
F0.8
sg26
I1024
sg27
F0.125
sg28
g29
(g33
S'\xb8\x1e\x85\xebQ\xb8\xbe\xbf'
p976
tp977
Rp978
sg39
F0.5
sg40
I2
sg41
F0.1
sg42
F0.1
sg43
F0.4
sg44
I6
sg45
I12
sg46
g29
(g33
S'\n\xd7\xa3p=\n\xb7\xbf'
p979
tp980
Rp981
sg50
I1
sg51
I1
sg52
g53
sg54
I10
sg55
F0.1225
sg56
I1
sg57
I-1
sg58
I1
sg59
F0.2
sg60
g61
sg64
I15
sa(dp982
g4
I20
sg5
F0.3
sg6
F0.2
sg7
F0.05
sg8
F0.4
sg9
I8
sg10
I8
sg11
F0.95
sg12
I6
sg13
F0.4
sg14
I64
sg15
F0.15
sg16
I0
sg17
I2
sg18
F1.2
sg19
F0.125
sg20
F0.9
sg21
I1
sg22
I12
sg23
I-1
sg24
I512
sg25
F0.8
sg26
I1024
sg27
F0.125
sg28
g29
(g33
S'333333\xc3?'
p983
tp984
Rp985
sg39
F0.5
sg40
I2
sg41
F0.1
sg42
F0.1
sg43
F0.4
sg44
I6
sg45
I12
sg46
g29
(g33
S'\xb8\x1e\x85\xebQ\xb8\x9e?'
p986
tp987
Rp988
sg50
I1
sg51
I1
sg52
g53
sg54
I10
sg55
F0.1225
sg56
I1
sg57
I-1
sg58
I1
sg59
F0.2
sg60
g61
sg64
I15
sa(dp989
g4
I20
sg5
F0.3
sg6
F0.2
sg7
F0.05
sg8
F0.4
sg9
I8
sg10
I8
sg11
F0.95
sg12
I6
sg13
F0.4
sg14
I64
sg15
F0.15
sg16
I0
sg17
I2
sg18
F1.2
sg19
F0.125
sg20
F0.9
sg21
I1
sg22
I13
sg23
I-1
sg24
I512
sg25
F0.8
sg26
I1024
sg27
F0.125
sg28
g29
(g33
S'\n\xd7\xa3p=\n\xb7\xbf'
p990
tp991
Rp992
sg39
F0.5
sg40
I2
sg41
F0.1
sg42
F0.1
sg43
F0.4
sg44
I6
sg45
I12
sg46
g29
(g33
S'\xb8\x1e\x85\xebQ\xb8\xbe\xbf'
p993
tp994
Rp995
sg50
I1
sg51
I1
sg52
g53
sg54
I10
sg55
F0.1225
sg56
I1
sg57
I-1
sg58
I1
sg59
F0.2
sg60
g61
sg64
I15
sa(dp996
g4
I20
sg5
F0.3
sg6
F0.2
sg7
F0.05
sg8
F0.4
sg9
I8
sg10
I8
sg11
F0.95
sg12
I6
sg13
F0.4
sg14
I64
sg15
F0.15
sg16
I0
sg17
I2
sg18
F1.2
sg19
F0.125
sg20
F0.9
sg21
I1
sg22
I14
sg23
I-1
sg24
I512
sg25
F0.8
sg26
I1024
sg27
F0.125
sg28
g29
(g33
S'\xb8\x1e\x85\xebQ\xb8\xbe?'
p997
tp998
Rp999
sg39
F0.5
sg40
I2
sg41
F0.1
sg42
F0.1
sg43
F0.4
sg44
I6
sg45
I12
sg46
g29
(g33
S'\xb8\x1e\x85\xebQ\xb8\xbe?'
p1000
tp1001
Rp1002
sg50
I1
sg51
I1
sg52
g53
sg54
I10
sg55
F0.1225
sg56
I1
sg57
I-1
sg58
I1
sg59
F0.2
sg60
g61
sg64
I15
sa(dp1003
g4
I20
sg5
F0.3
sg6
F0.2
sg7
F0.05
sg8
F0.4
sg9
I8
sg10
I8
sg11
F0.95
sg12
I6
sg13
F0.4
sg14
I64
sg15
F0.15
sg16
I0
sg17
I2
sg18
F1.2
sg19
F0.125
sg20
F0.9
sg21
I1
sg22
I15
sg23
I-1
sg24
I512
sg25
F0.8
sg26
I1024
sg27
F0.125
sg28
g29
(g33
S'333333\xc3?'
p1004
tp1005
Rp1006
sg39
F0.5
sg40
I2
sg41
F0.1
sg42
F0.1
sg43
F0.4
sg44
I6
sg45
I12
sg46
g29
(g33
S'333333\xc3\xbf'
p1007
tp1008
Rp1009
sg50
I1
sg51
I1
sg52
g53
sg54
I10
sg55
F0.1225
sg56
I1
sg57
I-1
sg58
I1
sg59
F0.2
sg60
g61
sg64
I15
sa(dp1010
g4
I20
sg5
F0.3
sg6
F0.2
sg7
F0.05
sg8
F0.4
sg9
I8
sg10
I8
sg11
F0.95
sg12
I6
sg13
F0.4
sg14
I64
sg15
F0.15
sg16
I0
sg17
I2
sg18
F1.2
sg19
F0.125
sg20
F0.9
sg21
I1
sg22
I16
sg23
I-1
sg24
I512
sg25
F0.8
sg26
I1024
sg27
F0.125
sg28
g29
(g33
S'\xb8\x1e\x85\xebQ\xb8\x9e?'
p1011
tp1012
Rp1013
sg39
F0.5
sg40
I2
sg41
F0.1
sg42
F0.1
sg43
F0.4
sg44
I6
sg45
I12
sg46
g29
(g33
S'\n\xd7\xa3p=\n\xb7?'
p1014
tp1015
Rp1016
sg50
I1
sg51
I1
sg52
g53
sg54
I10
sg55
F0.1225
sg56
I1
sg57
I-1
sg58
I1
sg59
F0.2
sg60
g61
sg64
I15
sa(dp1017
g4
I20
sg5
F0.3
sg6
F0.2
sg7
F0.05
sg8
F0.4
sg9
I8
sg10
I8
sg11
F0.95
sg12
I6
sg13
F0.4
sg14
I64
sg15
F0.15
sg16
I0
sg17
I2
sg18
F1.2
sg19
F0.125
sg20
F0.9
sg21
I1
sg22
I17
sg23
I-1
sg24
I512
sg25
F0.8
sg26
I1024
sg27
F0.125
sg28
g29
(g33
S'\x00\x00\x00\x00\x00\x00\x00\x00'
p1018
tp1019
Rp1020
sg39
F0.5
sg40
I2
sg41
F0.1
sg42
F0.1
sg43
F0.4
sg44
I6
sg45
I12
sg46
g29
(g33
S'\xb8\x1e\x85\xebQ\xb8\xbe?'
p1021
tp1022
Rp1023
sg50
I1
sg51
I1
sg52
g53
sg54
I10
sg55
F0.1225
sg56
I1
sg57
I-1
sg58
I1
sg59
F0.2
sg60
g61
sg64
I15
sa(dp1024
g4
I20
sg5
F0.3
sg6
F0.2
sg7
F0.05
sg8
F0.4
sg9
I8
sg10
I8
sg11
F0.95
sg12
I6
sg13
F0.4
sg14
I64
sg15
F0.15
sg16
I0
sg17
I2
sg18
F1.2
sg19
F0.125
sg20
F0.9
sg21
I1
sg22
I18
sg23
I-1
sg24
I512
sg25
F0.8
sg26
I1024
sg27
F0.125
sg28
g29
(g33
S'\xb8\x1e\x85\xebQ\xb8\xae\xbf'
p1025
tp1026
Rp1027
sg39
F0.5
sg40
I2
sg41
F0.1
sg42
F0.1
sg43
F0.4
sg44
I6
sg45
I12
sg46
g29
(g33
S'\xb8\x1e\x85\xebQ\xb8\xbe?'
p1028
tp1029
Rp1030
sg50
I1
sg51
I1
sg52
g53
sg54
I10
sg55
F0.1225
sg56
I1
sg57
I-1
sg58
I1
sg59
F0.2
sg60
g61
sg64
I15
sa(dp1031
g4
I20
sg5
F0.3
sg6
F0.2
sg7
F0.05
sg8
F0.4
sg9
I8
sg10
I8
sg11
F0.95
sg12
I6
sg13
F0.4
sg14
I64
sg15
F0.15
sg16
I0
sg17
I2
sg18
F1.2
sg19
F0.125
sg20
F0.9
sg21
I1
sg22
I19
sg23
I-1
sg24
I512
sg25
F0.8
sg26
I1024
sg27
F0.125
sg28
g29
(g33
S'\x00\x00\x00\x00\x00\x00\x00\x00'
p1032
tp1033
Rp1034
sg39
F0.5
sg40
I2
sg41
F0.1
sg42
F0.1
sg43
F0.4
sg44
I6
sg45
I12
sg46
g29
(g33
S'\xb8\x1e\x85\xebQ\xb8\x9e\xbf'
p1035
tp1036
Rp1037
sg50
I1
sg51
I1
sg52
g53
sg54
I10
sg55
F0.1225
sg56
I1
sg57
I-1
sg58
I1
sg59
F0.2
sg60
g61
sg64
I15
sa(dp1038
g4
I20
sg5
F0.3
sg6
F0.2
sg7
F0.05
sg8
F0.4
sg9
I8
sg10
I8
sg11
F0.95
sg12
I6
sg13
F0.4
sg14
I64
sg15
F0.15
sg16
I0
sg17
I2
sg18
F1.2
sg19
F0.125
sg20
F0.9
sg21
I1
sg22
I0
sg23
I-1
sg24
I512
sg25
F0.8
sg26
I1024
sg27
F0.125
sg28
g29
(g33
S'\xb8\x1e\x85\xebQ\xb8\xbe\xbf'
p1039
tp1040
Rp1041
sg39
F0.5
sg40
I2
sg41
F0.1
sg42
F0.1
sg43
F0.4
sg44
I6
sg45
I12
sg46
g29
(g33
S'\xb8\x1e\x85\xebQ\xb8\xae?'
p1042
tp1043
Rp1044
sg50
I1
sg51
I1
sg52
g53
sg54
I10
sg55
F0.1225
sg56
I1
sg57
I180
sg58
I1
sg59
F0.2
sg60
g61
sg64
I15
sa(dp1045
g4
I20
sg5
F0.3
sg6
F0.2
sg7
F0.05
sg8
F0.4
sg9
I8
sg10
I8
sg11
F0.95
sg12
I6
sg13
F0.4
sg14
I64
sg15
F0.15
sg16
I0
sg17
I2
sg18
F1.2
sg19
F0.125
sg20
F0.9
sg21
I1
sg22
I1
sg23
I-1
sg24
I512
sg25
F0.8
sg26
I1024
sg27
F0.125
sg28
g29
(g33
S'\n\xd7\xa3p=\n\xb7\xbf'
p1046
tp1047
Rp1048
sg39
F0.5
sg40
I2
sg41
F0.1
sg42
F0.1
sg43
F0.4
sg44
I6
sg45
I12
sg46
g29
(g33
S'\xb8\x1e\x85\xebQ\xb8\xbe\xbf'
p1049
tp1050
Rp1051
sg50
I1
sg51
I1
sg52
g53
sg54
I10
sg55
F0.1225
sg56
I1
sg57
I180
sg58
I1
sg59
F0.2
sg60
g61
sg64
I15
sa(dp1052
g4
I20
sg5
F0.3
sg6
F0.2
sg7
F0.05
sg8
F0.4
sg9
I8
sg10
I8
sg11
F0.95
sg12
I6
sg13
F0.4
sg14
I64
sg15
F0.15
sg16
I0
sg17
I2
sg18
F1.2
sg19
F0.125
sg20
F0.9
sg21
I1
sg22
I2
sg23
I-1
sg24
I512
sg25
F0.8
sg26
I1024
sg27
F0.125
sg28
g29
(g33
S'\n\xd7\xa3p=\n\xb7?'
p1053
tp1054
Rp1055
sg39
F0.5
sg40
I2
sg41
F0.1
sg42
F0.1
sg43
F0.4
sg44
I6
sg45
I12
sg46
g29
(g33
S'\xb8\x1e\x85\xebQ\xb8\xbe?'
p1056
tp1057
Rp1058
sg50
I1
sg51
I1
sg52
g53
sg54
I10
sg55
F0.1225
sg56
I1
sg57
I180
sg58
I1
sg59
F0.2
sg60
g61
sg64
I15
sa(dp1059
g4
I20
sg5
F0.3
sg6
F0.2
sg7
F0.05
sg8
F0.4
sg9
I8
sg10
I8
sg11
F0.95
sg12
I6
sg13
F0.4
sg14
I64
sg15
F0.15
sg16
I0
sg17
I2
sg18
F1.2
sg19
F0.125
sg20
F0.9
sg21
I1
sg22
I3
sg23
I-1
sg24
I512
sg25
F0.8
sg26
I1024
sg27
F0.125
sg28
g29
(g33
S'\xb8\x1e\x85\xebQ\xb8\xae?'
p1060
tp1061
Rp1062
sg39
F0.5
sg40
I2
sg41
F0.1
sg42
F0.1
sg43
F0.4
sg44
I6
sg45
I12
sg46
g29
(g33
S'\x00\x00\x00\x00\x00\x00\x00\x00'
p1063
tp1064
Rp1065
sg50
I1
sg51
I1
sg52
g53
sg54
I10
sg55
F0.1225
sg56
I1
sg57
I180
sg58
I1
sg59
F0.2
sg60
g61
sg64
I15
sa(dp1066
g4
I20
sg5
F0.3
sg6
F0.2
sg7
F0.05
sg8
F0.4
sg9
I8
sg10
I8
sg11
F0.95
sg12
I6
sg13
F0.4
sg14
I64
sg15
F0.15
sg16
I0
sg17
I2
sg18
F1.2
sg19
F0.125
sg20
F0.9
sg21
I1
sg22
I4
sg23
I-1
sg24
I512
sg25
F0.8
sg26
I1024
sg27
F0.125
sg28
g29
(g33
S'\xb8\x1e\x85\xebQ\xb8\xbe?'
p1067
tp1068
Rp1069
sg39
F0.5
sg40
I2
sg41
F0.1
sg42
F0.1
sg43
F0.4
sg44
I6
sg45
I12
sg46
g29
(g33
S'333333\xc3?'
p1070
tp1071
Rp1072
sg50
I1
sg51
I1
sg52
g53
sg54
I10
sg55
F0.1225
sg56
I1
sg57
I180
sg58
I1
sg59
F0.2
sg60
g61
sg64
I15
sa(dp1073
g4
I20
sg5
F0.3
sg6
F0.2
sg7
F0.05
sg8
F0.4
sg9
I8
sg10
I8
sg11
F0.95
sg12
I6
sg13
F0.4
sg14
I64
sg15
F0.15
sg16
I0
sg17
I2
sg18
F1.2
sg19
F0.125
sg20
F0.9
sg21
I1
sg22
I5
sg23
I-1
sg24
I512
sg25
F0.8
sg26
I1024
sg27
F0.125
sg28
g29
(g33
S'\xb8\x1e\x85\xebQ\xb8\xbe?'
p1074
tp1075
Rp1076
sg39
F0.5
sg40
I2
sg41
F0.1
sg42
F0.1
sg43
F0.4
sg44
I6
sg45
I12
sg46
g29
(g33
S'\xb8\x1e\x85\xebQ\xb8\xae?'
p1077
tp1078
Rp1079
sg50
I1
sg51
I1
sg52
g53
sg54
I10
sg55
F0.1225
sg56
I1
sg57
I180
sg58
I1
sg59
F0.2
sg60
g61
sg64
I15
sa(dp1080
g4
I20
sg5
F0.3
sg6
F0.2
sg7
F0.05
sg8
F0.4
sg9
I8
sg10
I8
sg11
F0.95
sg12
I6
sg13
F0.4
sg14
I64
sg15
F0.15
sg16
I0
sg17
I2
sg18
F1.2
sg19
F0.125
sg20
F0.9
sg21
I1
sg22
I6
sg23
I-1
sg24
I512
sg25
F0.8
sg26
I1024
sg27
F0.125
sg28
g29
(g33
S'\n\xd7\xa3p=\n\xb7\xbf'
p1081
tp1082
Rp1083
sg39
F0.5
sg40
I2
sg41
F0.1
sg42
F0.1
sg43
F0.4
sg44
I6
sg45
I12
sg46
g29
(g33
S'\xb8\x1e\x85\xebQ\xb8\x9e\xbf'
p1084
tp1085
Rp1086
sg50
I1
sg51
I1
sg52
g53
sg54
I10
sg55
F0.1225
sg56
I1
sg57
I180
sg58
I1
sg59
F0.2
sg60
g61
sg64
I15
sa(dp1087
g4
I20
sg5
F0.3
sg6
F0.2
sg7
F0.05
sg8
F0.4
sg9
I8
sg10
I8
sg11
F0.95
sg12
I6
sg13
F0.4
sg14
I64
sg15
F0.15
sg16
I0
sg17
I2
sg18
F1.2
sg19
F0.125
sg20
F0.9
sg21
I1
sg22
I7
sg23
I-1
sg24
I512
sg25
F0.8
sg26
I1024
sg27
F0.125
sg28
g29
(g33
S'\xb8\x1e\x85\xebQ\xb8\xae?'
p1088
tp1089
Rp1090
sg39
F0.5
sg40
I2
sg41
F0.1
sg42
F0.1
sg43
F0.4
sg44
I6
sg45
I12
sg46
g29
(g33
S'\xb8\x1e\x85\xebQ\xb8\x9e?'
p1091
tp1092
Rp1093
sg50
I1
sg51
I1
sg52
g53
sg54
I10
sg55
F0.1225
sg56
I1
sg57
I180
sg58
I1
sg59
F0.2
sg60
g61
sg64
I15
sa(dp1094
g4
I20
sg5
F0.3
sg6
F0.2
sg7
F0.05
sg8
F0.4
sg9
I8
sg10
I8
sg11
F0.95
sg12
I6
sg13
F0.4
sg14
I64
sg15
F0.15
sg16
I0
sg17
I2
sg18
F1.2
sg19
F0.125
sg20
F0.9
sg21
I1
sg22
I8
sg23
I-1
sg24
I512
sg25
F0.8
sg26
I1024
sg27
F0.125
sg28
g29
(g33
S'\xb8\x1e\x85\xebQ\xb8\x9e\xbf'
p1095
tp1096
Rp1097
sg39
F0.5
sg40
I2
sg41
F0.1
sg42
F0.1
sg43
F0.4
sg44
I6
sg45
I12
sg46
g29
(g33
S'\xb8\x1e\x85\xebQ\xb8\x9e\xbf'
p1098
tp1099
Rp1100
sg50
I1
sg51
I1
sg52
g53
sg54
I10
sg55
F0.1225
sg56
I1
sg57
I180
sg58
I1
sg59
F0.2
sg60
g61
sg64
I15
sa(dp1101
g4
I20
sg5
F0.3
sg6
F0.2
sg7
F0.05
sg8
F0.4
sg9
I8
sg10
I8
sg11
F0.95
sg12
I6
sg13
F0.4
sg14
I64
sg15
F0.15
sg16
I0
sg17
I2
sg18
F1.2
sg19
F0.125
sg20
F0.9
sg21
I1
sg22
I9
sg23
I-1
sg24
I512
sg25
F0.8
sg26
I1024
sg27
F0.125
sg28
g29
(g33
S'\xb8\x1e\x85\xebQ\xb8\x9e?'
p1102
tp1103
Rp1104
sg39
F0.5
sg40
I2
sg41
F0.1
sg42
F0.1
sg43
F0.4
sg44
I6
sg45
I12
sg46
g29
(g33
S'\xb8\x1e\x85\xebQ\xb8\xae\xbf'
p1105
tp1106
Rp1107
sg50
I1
sg51
I1
sg52
g53
sg54
I10
sg55
F0.1225
sg56
I1
sg57
I180
sg58
I1
sg59
F0.2
sg60
g61
sg64
I15
sa(dp1108
g4
I20
sg5
F0.3
sg6
F0.2
sg7
F0.05
sg8
F0.4
sg9
I8
sg10
I8
sg11
F0.95
sg12
I6
sg13
F0.4
sg14
I64
sg15
F0.15
sg16
I0
sg17
I2
sg18
F1.2
sg19
F0.125
sg20
F0.9
sg21
I1
sg22
I10
sg23
I-1
sg24
I512
sg25
F0.8
sg26
I1024
sg27
F0.125
sg28
g29
(g33
S'\xb8\x1e\x85\xebQ\xb8\xae\xbf'
p1109
tp1110
Rp1111
sg39
F0.5
sg40
I2
sg41
F0.1
sg42
F0.1
sg43
F0.4
sg44
I6
sg45
I12
sg46
g29
(g33
S'\xb8\x1e\x85\xebQ\xb8\xbe\xbf'
p1112
tp1113
Rp1114
sg50
I1
sg51
I1
sg52
g53
sg54
I10
sg55
F0.1225
sg56
I1
sg57
I180
sg58
I1
sg59
F0.2
sg60
g61
sg64
I15
sa(dp1115
g4
I20
sg5
F0.3
sg6
F0.2
sg7
F0.05
sg8
F0.4
sg9
I8
sg10
I8
sg11
F0.95
sg12
I6
sg13
F0.4
sg14
I64
sg15
F0.15
sg16
I0
sg17
I2
sg18
F1.2
sg19
F0.125
sg20
F0.9
sg21
I1
sg22
I11
sg23
I-1
sg24
I512
sg25
F0.8
sg26
I1024
sg27
F0.125
sg28
g29
(g33
S'\xb8\x1e\x85\xebQ\xb8\xbe?'
p1116
tp1117
Rp1118
sg39
F0.5
sg40
I2
sg41
F0.1
sg42
F0.1
sg43
F0.4
sg44
I6
sg45
I12
sg46
g29
(g33
S'\x00\x00\x00\x00\x00\x00\x00\x00'
p1119
tp1120
Rp1121
sg50
I1
sg51
I1
sg52
g53
sg54
I10
sg55
F0.1225
sg56
I1
sg57
I180
sg58
I1
sg59
F0.2
sg60
g61
sg64
I15
sa(dp1122
g4
I20
sg5
F0.3
sg6
F0.2
sg7
F0.05
sg8
F0.4
sg9
I8
sg10
I8
sg11
F0.95
sg12
I6
sg13
F0.4
sg14
I64
sg15
F0.15
sg16
I0
sg17
I2
sg18
F1.2
sg19
F0.125
sg20
F0.9
sg21
I1
sg22
I12
sg23
I-1
sg24
I512
sg25
F0.8
sg26
I1024
sg27
F0.125
sg28
g29
(g33
S'\xb8\x1e\x85\xebQ\xb8\xae?'
p1123
tp1124
Rp1125
sg39
F0.5
sg40
I2
sg41
F0.1
sg42
F0.1
sg43
F0.4
sg44
I6
sg45
I12
sg46
g29
(g33
S'\xb8\x1e\x85\xebQ\xb8\x9e?'
p1126
tp1127
Rp1128
sg50
I1
sg51
I1
sg52
g53
sg54
I10
sg55
F0.1225
sg56
I1
sg57
I180
sg58
I1
sg59
F0.2
sg60
g61
sg64
I15
sa(dp1129
g4
I20
sg5
F0.3
sg6
F0.2
sg7
F0.05
sg8
F0.4
sg9
I8
sg10
I8
sg11
F0.95
sg12
I6
sg13
F0.4
sg14
I64
sg15
F0.15
sg16
I0
sg17
I2
sg18
F1.2
sg19
F0.125
sg20
F0.9
sg21
I1
sg22
I13
sg23
I-1
sg24
I512
sg25
F0.8
sg26
I1024
sg27
F0.125
sg28
g29
(g33
S'\x00\x00\x00\x00\x00\x00\x00\x00'
p1130
tp1131
Rp1132
sg39
F0.5
sg40
I2
sg41
F0.1
sg42
F0.1
sg43
F0.4
sg44
I6
sg45
I12
sg46
g29
(g33
S'333333\xc3\xbf'
p1133
tp1134
Rp1135
sg50
I1
sg51
I1
sg52
g53
sg54
I10
sg55
F0.1225
sg56
I1
sg57
I180
sg58
I1
sg59
F0.2
sg60
g61
sg64
I15
sa(dp1136
g4
I20
sg5
F0.3
sg6
F0.2
sg7
F0.05
sg8
F0.4
sg9
I8
sg10
I8
sg11
F0.95
sg12
I6
sg13
F0.4
sg14
I64
sg15
F0.15
sg16
I0
sg17
I2
sg18
F1.2
sg19
F0.125
sg20
F0.9
sg21
I1
sg22
I14
sg23
I-1
sg24
I512
sg25
F0.8
sg26
I1024
sg27
F0.125
sg28
g29
(g33
S'\n\xd7\xa3p=\n\xb7?'
p1137
tp1138
Rp1139
sg39
F0.5
sg40
I2
sg41
F0.1
sg42
F0.1
sg43
F0.4
sg44
I6
sg45
I12
sg46
g29
(g33
S'\xb8\x1e\x85\xebQ\xb8\xbe?'
p1140
tp1141
Rp1142
sg50
I1
sg51
I1
sg52
g53
sg54
I10
sg55
F0.1225
sg56
I1
sg57
I180
sg58
I1
sg59
F0.2
sg60
g61
sg64
I15
sa(dp1143
g4
I20
sg5
F0.3
sg6
F0.2
sg7
F0.05
sg8
F0.4
sg9
I8
sg10
I8
sg11
F0.95
sg12
I6
sg13
F0.4
sg14
I64
sg15
F0.15
sg16
I0
sg17
I2
sg18
F1.2
sg19
F0.125
sg20
F0.9
sg21
I1
sg22
I15
sg23
I-1
sg24
I512
sg25
F0.8
sg26
I1024
sg27
F0.125
sg28
g29
(g33
S'\xb8\x1e\x85\xebQ\xb8\x9e\xbf'
p1144
tp1145
Rp1146
sg39
F0.5
sg40
I2
sg41
F0.1
sg42
F0.1
sg43
F0.4
sg44
I6
sg45
I12
sg46
g29
(g33
S'\n\xd7\xa3p=\n\xb7\xbf'
p1147
tp1148
Rp1149
sg50
I1
sg51
I1
sg52
g53
sg54
I10
sg55
F0.1225
sg56
I1
sg57
I180
sg58
I1
sg59
F0.2
sg60
g61
sg64
I15
sa(dp1150
g4
I20
sg5
F0.3
sg6
F0.2
sg7
F0.05
sg8
F0.4
sg9
I8
sg10
I8
sg11
F0.95
sg12
I6
sg13
F0.4
sg14
I64
sg15
F0.15
sg16
I0
sg17
I2
sg18
F1.2
sg19
F0.125
sg20
F0.9
sg21
I1
sg22
I16
sg23
I-1
sg24
I512
sg25
F0.8
sg26
I1024
sg27
F0.125
sg28
g29
(g33
S'333333\xc3\xbf'
p1151
tp1152
Rp1153
sg39
F0.5
sg40
I2
sg41
F0.1
sg42
F0.1
sg43
F0.4
sg44
I6
sg45
I12
sg46
g29
(g33
S'\xb8\x1e\x85\xebQ\xb8\x9e\xbf'
p1154
tp1155
Rp1156
sg50
I1
sg51
I1
sg52
g53
sg54
I10
sg55
F0.1225
sg56
I1
sg57
I180
sg58
I1
sg59
F0.2
sg60
g61
sg64
I15
sa(dp1157
g4
I20
sg5
F0.3
sg6
F0.2
sg7
F0.05
sg8
F0.4
sg9
I8
sg10
I8
sg11
F0.95
sg12
I6
sg13
F0.4
sg14
I64
sg15
F0.15
sg16
I0
sg17
I2
sg18
F1.2
sg19
F0.125
sg20
F0.9
sg21
I1
sg22
I17
sg23
I-1
sg24
I512
sg25
F0.8
sg26
I1024
sg27
F0.125
sg28
g29
(g33
S'\xb8\x1e\x85\xebQ\xb8\xae?'
p1158
tp1159
Rp1160
sg39
F0.5
sg40
I2
sg41
F0.1
sg42
F0.1
sg43
F0.4
sg44
I6
sg45
I12
sg46
g29
(g33
S'\xb8\x1e\x85\xebQ\xb8\xbe\xbf'
p1161
tp1162
Rp1163
sg50
I1
sg51
I1
sg52
g53
sg54
I10
sg55
F0.1225
sg56
I1
sg57
I180
sg58
I1
sg59
F0.2
sg60
g61
sg64
I15
sa(dp1164
g4
I20
sg5
F0.3
sg6
F0.2
sg7
F0.05
sg8
F0.4
sg9
I8
sg10
I8
sg11
F0.95
sg12
I6
sg13
F0.4
sg14
I64
sg15
F0.15
sg16
I0
sg17
I2
sg18
F1.2
sg19
F0.125
sg20
F0.9
sg21
I1
sg22
I18
sg23
I-1
sg24
I512
sg25
F0.8
sg26
I1024
sg27
F0.125
sg28
g29
(g33
S'\n\xd7\xa3p=\n\xb7?'
p1165
tp1166
Rp1167
sg39
F0.5
sg40
I2
sg41
F0.1
sg42
F0.1
sg43
F0.4
sg44
I6
sg45
I12
sg46
g29
(g33
S'\xb8\x1e\x85\xebQ\xb8\xae\xbf'
p1168
tp1169
Rp1170
sg50
I1
sg51
I1
sg52
g53
sg54
I10
sg55
F0.1225
sg56
I1
sg57
I180
sg58
I1
sg59
F0.2
sg60
g61
sg64
I15
sa(dp1171
g4
I20
sg5
F0.3
sg6
F0.2
sg7
F0.05
sg8
F0.4
sg9
I8
sg10
I8
sg11
F0.95
sg12
I6
sg13
F0.4
sg14
I64
sg15
F0.15
sg16
I0
sg17
I2
sg18
F1.2
sg19
F0.125
sg20
F0.9
sg21
I1
sg22
I19
sg23
I-1
sg24
I512
sg25
F0.8
sg26
I1024
sg27
F0.125
sg28
g29
(g33
S'\xb8\x1e\x85\xebQ\xb8\xae?'
p1172
tp1173
Rp1174
sg39
F0.5
sg40
I2
sg41
F0.1
sg42
F0.1
sg43
F0.4
sg44
I6
sg45
I12
sg46
g29
(g33
S'333333\xc3\xbf'
p1175
tp1176
Rp1177
sg50
I1
sg51
I1
sg52
g53
sg54
I10
sg55
F0.1225
sg56
I1
sg57
I180
sg58
I1
sg59
F0.2
sg60
g61
sg64
I15
sa(dp1178
g4
I20
sg5
F0.3
sg6
F0.2
sg7
F0.05
sg8
F0.4
sg9
I8
sg10
I8
sg11
F0.95
sg12
I6
sg13
F0.4
sg14
I64
sg15
F0.15
sg16
I0
sg17
I2
sg18
F1.2
sg19
F0.125
sg20
F0.9
sg21
I1
sg22
I0
sg23
I-1
sg24
I512
sg25
F0.8
sg26
I1024
sg27
F0.125
sg28
g29
(g33
S'\x00\x00\x00\x00\x00\x00\x00\x00'
p1179
tp1180
Rp1181
sg39
F0.5
sg40
I2
sg41
F0.1
sg42
F0.1
sg43
F0.4
sg44
I6
sg45
I12
sg46
g29
(g33
S'\xb8\x1e\x85\xebQ\xb8\xbe\xbf'
p1182
tp1183
Rp1184
sg50
I1
sg51
I1
sg52
g53
sg54
I10
sg55
F0.1225
sg56
I1
sg57
I45
sg58
I1
sg59
F0.2
sg60
g61
sg64
I15
sa(dp1185
g4
I20
sg5
F0.3
sg6
F0.2
sg7
F0.05
sg8
F0.4
sg9
I8
sg10
I8
sg11
F0.95
sg12
I6
sg13
F0.4
sg14
I64
sg15
F0.15
sg16
I0
sg17
I2
sg18
F1.2
sg19
F0.125
sg20
F0.9
sg21
I1
sg22
I1
sg23
I-1
sg24
I512
sg25
F0.8
sg26
I1024
sg27
F0.125
sg28
g29
(g33
S'\xb8\x1e\x85\xebQ\xb8\xae?'
p1186
tp1187
Rp1188
sg39
F0.5
sg40
I2
sg41
F0.1
sg42
F0.1
sg43
F0.4
sg44
I6
sg45
I12
sg46
g29
(g33
S'\n\xd7\xa3p=\n\xb7?'
p1189
tp1190
Rp1191
sg50
I1
sg51
I1
sg52
g53
sg54
I10
sg55
F0.1225
sg56
I1
sg57
I45
sg58
I1
sg59
F0.2
sg60
g61
sg64
I15
sa(dp1192
g4
I20
sg5
F0.3
sg6
F0.2
sg7
F0.05
sg8
F0.4
sg9
I8
sg10
I8
sg11
F0.95
sg12
I6
sg13
F0.4
sg14
I64
sg15
F0.15
sg16
I0
sg17
I2
sg18
F1.2
sg19
F0.125
sg20
F0.9
sg21
I1
sg22
I2
sg23
I-1
sg24
I512
sg25
F0.8
sg26
I1024
sg27
F0.125
sg28
g29
(g33
S'\xb8\x1e\x85\xebQ\xb8\xbe\xbf'
p1193
tp1194
Rp1195
sg39
F0.5
sg40
I2
sg41
F0.1
sg42
F0.1
sg43
F0.4
sg44
I6
sg45
I12
sg46
g29
(g33
S'\n\xd7\xa3p=\n\xb7\xbf'
p1196
tp1197
Rp1198
sg50
I1
sg51
I1
sg52
g53
sg54
I10
sg55
F0.1225
sg56
I1
sg57
I45
sg58
I1
sg59
F0.2
sg60
g61
sg64
I15
sa(dp1199
g4
I20
sg5
F0.3
sg6
F0.2
sg7
F0.05
sg8
F0.4
sg9
I8
sg10
I8
sg11
F0.95
sg12
I6
sg13
F0.4
sg14
I64
sg15
F0.15
sg16
I0
sg17
I2
sg18
F1.2
sg19
F0.125
sg20
F0.9
sg21
I1
sg22
I3
sg23
I-1
sg24
I512
sg25
F0.8
sg26
I1024
sg27
F0.125
sg28
g29
(g33
S'333333\xc3?'
p1200
tp1201
Rp1202
sg39
F0.5
sg40
I2
sg41
F0.1
sg42
F0.1
sg43
F0.4
sg44
I6
sg45
I12
sg46
g29
(g33
S'333333\xc3?'
p1203
tp1204
Rp1205
sg50
I1
sg51
I1
sg52
g53
sg54
I10
sg55
F0.1225
sg56
I1
sg57
I45
sg58
I1
sg59
F0.2
sg60
g61
sg64
I15
sa(dp1206
g4
I20
sg5
F0.3
sg6
F0.2
sg7
F0.05
sg8
F0.4
sg9
I8
sg10
I8
sg11
F0.95
sg12
I6
sg13
F0.4
sg14
I64
sg15
F0.15
sg16
I0
sg17
I2
sg18
F1.2
sg19
F0.125
sg20
F0.9
sg21
I1
sg22
I4
sg23
I-1
sg24
I512
sg25
F0.8
sg26
I1024
sg27
F0.125
sg28
g29
(g33
S'\n\xd7\xa3p=\n\xb7\xbf'
p1207
tp1208
Rp1209
sg39
F0.5
sg40
I2
sg41
F0.1
sg42
F0.1
sg43
F0.4
sg44
I6
sg45
I12
sg46
g29
(g33
S'333333\xc3?'
p1210
tp1211
Rp1212
sg50
I1
sg51
I1
sg52
g53
sg54
I10
sg55
F0.1225
sg56
I1
sg57
I45
sg58
I1
sg59
F0.2
sg60
g61
sg64
I15
sa(dp1213
g4
I20
sg5
F0.3
sg6
F0.2
sg7
F0.05
sg8
F0.4
sg9
I8
sg10
I8
sg11
F0.95
sg12
I6
sg13
F0.4
sg14
I64
sg15
F0.15
sg16
I0
sg17
I2
sg18
F1.2
sg19
F0.125
sg20
F0.9
sg21
I1
sg22
I5
sg23
I-1
sg24
I512
sg25
F0.8
sg26
I1024
sg27
F0.125
sg28
g29
(g33
S'\n\xd7\xa3p=\n\xb7\xbf'
p1214
tp1215
Rp1216
sg39
F0.5
sg40
I2
sg41
F0.1
sg42
F0.1
sg43
F0.4
sg44
I6
sg45
I12
sg46
g29
(g33
S'\n\xd7\xa3p=\n\xb7\xbf'
p1217
tp1218
Rp1219
sg50
I1
sg51
I1
sg52
g53
sg54
I10
sg55
F0.1225
sg56
I1
sg57
I45
sg58
I1
sg59
F0.2
sg60
g61
sg64
I15
sa(dp1220
g4
I20
sg5
F0.3
sg6
F0.2
sg7
F0.05
sg8
F0.4
sg9
I8
sg10
I8
sg11
F0.95
sg12
I6
sg13
F0.4
sg14
I64
sg15
F0.15
sg16
I0
sg17
I2
sg18
F1.2
sg19
F0.125
sg20
F0.9
sg21
I1
sg22
I6
sg23
I-1
sg24
I512
sg25
F0.8
sg26
I1024
sg27
F0.125
sg28
g29
(g33
S'\xb8\x1e\x85\xebQ\xb8\xbe?'
p1221
tp1222
Rp1223
sg39
F0.5
sg40
I2
sg41
F0.1
sg42
F0.1
sg43
F0.4
sg44
I6
sg45
I12
sg46
g29
(g33
S'\x00\x00\x00\x00\x00\x00\x00\x00'
p1224
tp1225
Rp1226
sg50
I1
sg51
I1
sg52
g53
sg54
I10
sg55
F0.1225
sg56
I1
sg57
I45
sg58
I1
sg59
F0.2
sg60
g61
sg64
I15
sa(dp1227
g4
I20
sg5
F0.3
sg6
F0.2
sg7
F0.05
sg8
F0.4
sg9
I8
sg10
I8
sg11
F0.95
sg12
I6
sg13
F0.4
sg14
I64
sg15
F0.15
sg16
I0
sg17
I2
sg18
F1.2
sg19
F0.125
sg20
F0.9
sg21
I1
sg22
I7
sg23
I-1
sg24
I512
sg25
F0.8
sg26
I1024
sg27
F0.125
sg28
g29
(g33
S'\xb8\x1e\x85\xebQ\xb8\xae\xbf'
p1228
tp1229
Rp1230
sg39
F0.5
sg40
I2
sg41
F0.1
sg42
F0.1
sg43
F0.4
sg44
I6
sg45
I12
sg46
g29
(g33
S'\xb8\x1e\x85\xebQ\xb8\xae?'
p1231
tp1232
Rp1233
sg50
I1
sg51
I1
sg52
g53
sg54
I10
sg55
F0.1225
sg56
I1
sg57
I45
sg58
I1
sg59
F0.2
sg60
g61
sg64
I15
sa(dp1234
g4
I20
sg5
F0.3
sg6
F0.2
sg7
F0.05
sg8
F0.4
sg9
I8
sg10
I8
sg11
F0.95
sg12
I6
sg13
F0.4
sg14
I64
sg15
F0.15
sg16
I0
sg17
I2
sg18
F1.2
sg19
F0.125
sg20
F0.9
sg21
I1
sg22
I8
sg23
I-1
sg24
I512
sg25
F0.8
sg26
I1024
sg27
F0.125
sg28
g29
(g33
S'\x00\x00\x00\x00\x00\x00\x00\x00'
p1235
tp1236
Rp1237
sg39
F0.5
sg40
I2
sg41
F0.1
sg42
F0.1
sg43
F0.4
sg44
I6
sg45
I12
sg46
g29
(g33
S'\xb8\x1e\x85\xebQ\xb8\xbe?'
p1238
tp1239
Rp1240
sg50
I1
sg51
I1
sg52
g53
sg54
I10
sg55
F0.1225
sg56
I1
sg57
I45
sg58
I1
sg59
F0.2
sg60
g61
sg64
I15
sa(dp1241
g4
I20
sg5
F0.3
sg6
F0.2
sg7
F0.05
sg8
F0.4
sg9
I8
sg10
I8
sg11
F0.95
sg12
I6
sg13
F0.4
sg14
I64
sg15
F0.15
sg16
I0
sg17
I2
sg18
F1.2
sg19
F0.125
sg20
F0.9
sg21
I1
sg22
I9
sg23
I-1
sg24
I512
sg25
F0.8
sg26
I1024
sg27
F0.125
sg28
g29
(g33
S'\n\xd7\xa3p=\n\xb7\xbf'
p1242
tp1243
Rp1244
sg39
F0.5
sg40
I2
sg41
F0.1
sg42
F0.1
sg43
F0.4
sg44
I6
sg45
I12
sg46
g29
(g33
S'\xb8\x1e\x85\xebQ\xb8\xbe?'
p1245
tp1246
Rp1247
sg50
I1
sg51
I1
sg52
g53
sg54
I10
sg55
F0.1225
sg56
I1
sg57
I45
sg58
I1
sg59
F0.2
sg60
g61
sg64
I15
sa(dp1248
g4
I20
sg5
F0.3
sg6
F0.2
sg7
F0.05
sg8
F0.4
sg9
I8
sg10
I8
sg11
F0.95
sg12
I6
sg13
F0.4
sg14
I64
sg15
F0.15
sg16
I0
sg17
I2
sg18
F1.2
sg19
F0.125
sg20
F0.9
sg21
I1
sg22
I10
sg23
I-1
sg24
I512
sg25
F0.8
sg26
I1024
sg27
F0.125
sg28
g29
(g33
S'\xb8\x1e\x85\xebQ\xb8\xae?'
p1249
tp1250
Rp1251
sg39
F0.5
sg40
I2
sg41
F0.1
sg42
F0.1
sg43
F0.4
sg44
I6
sg45
I12
sg46
g29
(g33
S'333333\xc3?'
p1252
tp1253
Rp1254
sg50
I1
sg51
I1
sg52
g53
sg54
I10
sg55
F0.1225
sg56
I1
sg57
I45
sg58
I1
sg59
F0.2
sg60
g61
sg64
I15
sa(dp1255
g4
I20
sg5
F0.3
sg6
F0.2
sg7
F0.05
sg8
F0.4
sg9
I8
sg10
I8
sg11
F0.95
sg12
I6
sg13
F0.4
sg14
I64
sg15
F0.15
sg16
I0
sg17
I2
sg18
F1.2
sg19
F0.125
sg20
F0.9
sg21
I1
sg22
I11
sg23
I-1
sg24
I512
sg25
F0.8
sg26
I1024
sg27
F0.125
sg28
g29
(g33
S'333333\xc3?'
p1256
tp1257
Rp1258
sg39
F0.5
sg40
I2
sg41
F0.1
sg42
F0.1
sg43
F0.4
sg44
I6
sg45
I12
sg46
g29
(g33
S'\n\xd7\xa3p=\n\xb7\xbf'
p1259
tp1260
Rp1261
sg50
I1
sg51
I1
sg52
g53
sg54
I10
sg55
F0.1225
sg56
I1
sg57
I45
sg58
I1
sg59
F0.2
sg60
g61
sg64
I15
sa(dp1262
g4
I20
sg5
F0.3
sg6
F0.2
sg7
F0.05
sg8
F0.4
sg9
I8
sg10
I8
sg11
F0.95
sg12
I6
sg13
F0.4
sg14
I64
sg15
F0.15
sg16
I0
sg17
I2
sg18
F1.2
sg19
F0.125
sg20
F0.9
sg21
I1
sg22
I12
sg23
I-1
sg24
I512
sg25
F0.8
sg26
I1024
sg27
F0.125
sg28
g29
(g33
S'\n\xd7\xa3p=\n\xb7?'
p1263
tp1264
Rp1265
sg39
F0.5
sg40
I2
sg41
F0.1
sg42
F0.1
sg43
F0.4
sg44
I6
sg45
I12
sg46
g29
(g33
S'333333\xc3?'
p1266
tp1267
Rp1268
sg50
I1
sg51
I1
sg52
g53
sg54
I10
sg55
F0.1225
sg56
I1
sg57
I45
sg58
I1
sg59
F0.2
sg60
g61
sg64
I15
sa(dp1269
g4
I20
sg5
F0.3
sg6
F0.2
sg7
F0.05
sg8
F0.4
sg9
I8
sg10
I8
sg11
F0.95
sg12
I6
sg13
F0.4
sg14
I64
sg15
F0.15
sg16
I0
sg17
I2
sg18
F1.2
sg19
F0.125
sg20
F0.9
sg21
I1
sg22
I13
sg23
I-1
sg24
I512
sg25
F0.8
sg26
I1024
sg27
F0.125
sg28
g29
(g33
S'\n\xd7\xa3p=\n\xb7\xbf'
p1270
tp1271
Rp1272
sg39
F0.5
sg40
I2
sg41
F0.1
sg42
F0.1
sg43
F0.4
sg44
I6
sg45
I12
sg46
g29
(g33
S'\x00\x00\x00\x00\x00\x00\x00\x00'
p1273
tp1274
Rp1275
sg50
I1
sg51
I1
sg52
g53
sg54
I10
sg55
F0.1225
sg56
I1
sg57
I45
sg58
I1
sg59
F0.2
sg60
g61
sg64
I15
sa(dp1276
g4
I20
sg5
F0.3
sg6
F0.2
sg7
F0.05
sg8
F0.4
sg9
I8
sg10
I8
sg11
F0.95
sg12
I6
sg13
F0.4
sg14
I64
sg15
F0.15
sg16
I0
sg17
I2
sg18
F1.2
sg19
F0.125
sg20
F0.9
sg21
I1
sg22
I14
sg23
I-1
sg24
I512
sg25
F0.8
sg26
I1024
sg27
F0.125
sg28
g29
(g33
S'\xb8\x1e\x85\xebQ\xb8\xae\xbf'
p1277
tp1278
Rp1279
sg39
F0.5
sg40
I2
sg41
F0.1
sg42
F0.1
sg43
F0.4
sg44
I6
sg45
I12
sg46
g29
(g33
S'333333\xc3?'
p1280
tp1281
Rp1282
sg50
I1
sg51
I1
sg52
g53
sg54
I10
sg55
F0.1225
sg56
I1
sg57
I45
sg58
I1
sg59
F0.2
sg60
g61
sg64
I15
sa(dp1283
g4
I20
sg5
F0.3
sg6
F0.2
sg7
F0.05
sg8
F0.4
sg9
I8
sg10
I8
sg11
F0.95
sg12
I6
sg13
F0.4
sg14
I64
sg15
F0.15
sg16
I0
sg17
I2
sg18
F1.2
sg19
F0.125
sg20
F0.9
sg21
I1
sg22
I15
sg23
I-1
sg24
I512
sg25
F0.8
sg26
I1024
sg27
F0.125
sg28
g29
(g33
S'\x00\x00\x00\x00\x00\x00\x00\x00'
p1284
tp1285
Rp1286
sg39
F0.5
sg40
I2
sg41
F0.1
sg42
F0.1
sg43
F0.4
sg44
I6
sg45
I12
sg46
g29
(g33
S'\xb8\x1e\x85\xebQ\xb8\xbe?'
p1287
tp1288
Rp1289
sg50
I1
sg51
I1
sg52
g53
sg54
I10
sg55
F0.1225
sg56
I1
sg57
I45
sg58
I1
sg59
F0.2
sg60
g61
sg64
I15
sa(dp1290
g4
I20
sg5
F0.3
sg6
F0.2
sg7
F0.05
sg8
F0.4
sg9
I8
sg10
I8
sg11
F0.95
sg12
I6
sg13
F0.4
sg14
I64
sg15
F0.15
sg16
I0
sg17
I2
sg18
F1.2
sg19
F0.125
sg20
F0.9
sg21
I1
sg22
I16
sg23
I-1
sg24
I512
sg25
F0.8
sg26
I1024
sg27
F0.125
sg28
g29
(g33
S'\n\xd7\xa3p=\n\xb7?'
p1291
tp1292
Rp1293
sg39
F0.5
sg40
I2
sg41
F0.1
sg42
F0.1
sg43
F0.4
sg44
I6
sg45
I12
sg46
g29
(g33
S'\xb8\x1e\x85\xebQ\xb8\x9e?'
p1294
tp1295
Rp1296
sg50
I1
sg51
I1
sg52
g53
sg54
I10
sg55
F0.1225
sg56
I1
sg57
I45
sg58
I1
sg59
F0.2
sg60
g61
sg64
I15
sa(dp1297
g4
I20
sg5
F0.3
sg6
F0.2
sg7
F0.05
sg8
F0.4
sg9
I8
sg10
I8
sg11
F0.95
sg12
I6
sg13
F0.4
sg14
I64
sg15
F0.15
sg16
I0
sg17
I2
sg18
F1.2
sg19
F0.125
sg20
F0.9
sg21
I1
sg22
I17
sg23
I-1
sg24
I512
sg25
F0.8
sg26
I1024
sg27
F0.125
sg28
g29
(g33
S'\n\xd7\xa3p=\n\xb7?'
p1298
tp1299
Rp1300
sg39
F0.5
sg40
I2
sg41
F0.1
sg42
F0.1
sg43
F0.4
sg44
I6
sg45
I12
sg46
g29
(g33
S'333333\xc3?'
p1301
tp1302
Rp1303
sg50
I1
sg51
I1
sg52
g53
sg54
I10
sg55
F0.1225
sg56
I1
sg57
I45
sg58
I1
sg59
F0.2
sg60
g61
sg64
I15
sa(dp1304
g4
I20
sg5
F0.3
sg6
F0.2
sg7
F0.05
sg8
F0.4
sg9
I8
sg10
I8
sg11
F0.95
sg12
I6
sg13
F0.4
sg14
I64
sg15
F0.15
sg16
I0
sg17
I2
sg18
F1.2
sg19
F0.125
sg20
F0.9
sg21
I1
sg22
I18
sg23
I-1
sg24
I512
sg25
F0.8
sg26
I1024
sg27
F0.125
sg28
g29
(g33
S'\xb8\x1e\x85\xebQ\xb8\xbe?'
p1305
tp1306
Rp1307
sg39
F0.5
sg40
I2
sg41
F0.1
sg42
F0.1
sg43
F0.4
sg44
I6
sg45
I12
sg46
g29
(g33
S'\xb8\x1e\x85\xebQ\xb8\xbe\xbf'
p1308
tp1309
Rp1310
sg50
I1
sg51
I1
sg52
g53
sg54
I10
sg55
F0.1225
sg56
I1
sg57
I45
sg58
I1
sg59
F0.2
sg60
g61
sg64
I15
sa(dp1311
g4
I20
sg5
F0.3
sg6
F0.2
sg7
F0.05
sg8
F0.4
sg9
I8
sg10
I8
sg11
F0.95
sg12
I6
sg13
F0.4
sg14
I64
sg15
F0.15
sg16
I0
sg17
I2
sg18
F1.2
sg19
F0.125
sg20
F0.9
sg21
I1
sg22
I19
sg23
I-1
sg24
I512
sg25
F0.8
sg26
I1024
sg27
F0.125
sg28
g29
(g33
S'\n\xd7\xa3p=\n\xb7?'
p1312
tp1313
Rp1314
sg39
F0.5
sg40
I2
sg41
F0.1
sg42
F0.1
sg43
F0.4
sg44
I6
sg45
I12
sg46
g29
(g33
S'\xb8\x1e\x85\xebQ\xb8\xae\xbf'
p1315
tp1316
Rp1317
sg50
I1
sg51
I1
sg52
g53
sg54
I10
sg55
F0.1225
sg56
I1
sg57
I45
sg58
I1
sg59
F0.2
sg60
g61
sg64
I15
sa(dp1318
g4
I20
sg5
F0.3
sg6
F0.2
sg7
F0.05
sg8
F0.4
sg9
I8
sg10
I8
sg11
F0.95
sg12
I6
sg13
F0.4
sg14
I64
sg15
F0.15
sg16
I0
sg17
I2
sg18
F1.2
sg19
F0.125
sg20
F0.9
sg21
I1
sg22
I0
sg23
I-1
sg24
I512
sg25
F0.8
sg26
I1024
sg27
F0.125
sg28
g29
(g33
S'\xb8\x1e\x85\xebQ\xb8\xbe\xbf'
p1319
tp1320
Rp1321
sg39
F0.5
sg40
I2
sg41
F0.1
sg42
F0.1
sg43
F0.4
sg44
I6
sg45
I12
sg46
g29
(g33
S'\xb8\x1e\x85\xebQ\xb8\xbe?'
p1322
tp1323
Rp1324
sg50
I1
sg51
I1
sg52
g53
sg54
I10
sg55
F0.1225
sg56
I1
sg57
I-1
sg58
I1
sg59
F0.2
sg60
g61
sg64
I15
sa(dp1325
g4
I20
sg5
F0.3
sg6
F0.2
sg7
F0.05
sg8
F0.4
sg9
I8
sg10
I8
sg11
F0.95
sg12
I6
sg13
F0.4
sg14
I64
sg15
F0.15
sg16
I0
sg17
I2
sg18
F1.2
sg19
F0.125
sg20
F0.9
sg21
I1
sg22
I1
sg23
I-1
sg24
I512
sg25
F0.8
sg26
I1024
sg27
F0.125
sg28
g29
(g33
S'\xb8\x1e\x85\xebQ\xb8\xae\xbf'
p1326
tp1327
Rp1328
sg39
F0.5
sg40
I2
sg41
F0.1
sg42
F0.1
sg43
F0.4
sg44
I6
sg45
I12
sg46
g29
(g33
S'\xb8\x1e\x85\xebQ\xb8\xbe\xbf'
p1329
tp1330
Rp1331
sg50
I1
sg51
I1
sg52
g53
sg54
I10
sg55
F0.1225
sg56
I1
sg57
I-1
sg58
I1
sg59
F0.2
sg60
g61
sg64
I15
sa(dp1332
g4
I20
sg5
F0.3
sg6
F0.2
sg7
F0.05
sg8
F0.4
sg9
I8
sg10
I8
sg11
F0.95
sg12
I6
sg13
F0.4
sg14
I64
sg15
F0.15
sg16
I0
sg17
I2
sg18
F1.2
sg19
F0.125
sg20
F0.9
sg21
I1
sg22
I2
sg23
I-1
sg24
I512
sg25
F0.8
sg26
I1024
sg27
F0.125
sg28
g29
(g33
S'\xb8\x1e\x85\xebQ\xb8\xbe?'
p1333
tp1334
Rp1335
sg39
F0.5
sg40
I2
sg41
F0.1
sg42
F0.1
sg43
F0.4
sg44
I6
sg45
I12
sg46
g29
(g33
S'\n\xd7\xa3p=\n\xb7\xbf'
p1336
tp1337
Rp1338
sg50
I1
sg51
I1
sg52
g53
sg54
I10
sg55
F0.1225
sg56
I1
sg57
I-1
sg58
I1
sg59
F0.2
sg60
g61
sg64
I15
sa(dp1339
g4
I20
sg5
F0.3
sg6
F0.2
sg7
F0.05
sg8
F0.4
sg9
I8
sg10
I8
sg11
F0.95
sg12
I6
sg13
F0.4
sg14
I64
sg15
F0.15
sg16
I0
sg17
I2
sg18
F1.2
sg19
F0.125
sg20
F0.9
sg21
I1
sg22
I3
sg23
I-1
sg24
I512
sg25
F0.8
sg26
I1024
sg27
F0.125
sg28
g29
(g33
S'\xb8\x1e\x85\xebQ\xb8\xbe?'
p1340
tp1341
Rp1342
sg39
F0.5
sg40
I2
sg41
F0.1
sg42
F0.1
sg43
F0.4
sg44
I6
sg45
I12
sg46
g29
(g33
S'\n\xd7\xa3p=\n\xb7?'
p1343
tp1344
Rp1345
sg50
I1
sg51
I1
sg52
g53
sg54
I10
sg55
F0.1225
sg56
I1
sg57
I-1
sg58
I1
sg59
F0.2
sg60
g61
sg64
I15
sa(dp1346
g4
I20
sg5
F0.3
sg6
F0.2
sg7
F0.05
sg8
F0.4
sg9
I8
sg10
I8
sg11
F0.95
sg12
I6
sg13
F0.4
sg14
I64
sg15
F0.15
sg16
I0
sg17
I2
sg18
F1.2
sg19
F0.125
sg20
F0.9
sg21
I1
sg22
I4
sg23
I-1
sg24
I512
sg25
F0.8
sg26
I1024
sg27
F0.125
sg28
g29
(g33
S'333333\xc3\xbf'
p1347
tp1348
Rp1349
sg39
F0.5
sg40
I2
sg41
F0.1
sg42
F0.1
sg43
F0.4
sg44
I6
sg45
I12
sg46
g29
(g33
S'\n\xd7\xa3p=\n\xb7?'
p1350
tp1351
Rp1352
sg50
I1
sg51
I1
sg52
g53
sg54
I10
sg55
F0.1225
sg56
I1
sg57
I-1
sg58
I1
sg59
F0.2
sg60
g61
sg64
I15
sa(dp1353
g4
I20
sg5
F0.3
sg6
F0.2
sg7
F0.05
sg8
F0.4
sg9
I8
sg10
I8
sg11
F0.95
sg12
I6
sg13
F0.4
sg14
I64
sg15
F0.15
sg16
I0
sg17
I2
sg18
F1.2
sg19
F0.125
sg20
F0.9
sg21
I1
sg22
I5
sg23
I-1
sg24
I512
sg25
F0.8
sg26
I1024
sg27
F0.125
sg28
g29
(g33
S'\xb8\x1e\x85\xebQ\xb8\x9e?'
p1354
tp1355
Rp1356
sg39
F0.5
sg40
I2
sg41
F0.1
sg42
F0.1
sg43
F0.4
sg44
I6
sg45
I12
sg46
g29
(g33
S'\xb8\x1e\x85\xebQ\xb8\xae?'
p1357
tp1358
Rp1359
sg50
I1
sg51
I1
sg52
g53
sg54
I10
sg55
F0.1225
sg56
I1
sg57
I-1
sg58
I1
sg59
F0.2
sg60
g61
sg64
I15
sa(dp1360
g4
I20
sg5
F0.3
sg6
F0.2
sg7
F0.05
sg8
F0.4
sg9
I8
sg10
I8
sg11
F0.95
sg12
I6
sg13
F0.4
sg14
I64
sg15
F0.15
sg16
I0
sg17
I2
sg18
F1.2
sg19
F0.125
sg20
F0.9
sg21
I1
sg22
I6
sg23
I-1
sg24
I512
sg25
F0.8
sg26
I1024
sg27
F0.125
sg28
g29
(g33
S'333333\xc3\xbf'
p1361
tp1362
Rp1363
sg39
F0.5
sg40
I2
sg41
F0.1
sg42
F0.1
sg43
F0.4
sg44
I6
sg45
I12
sg46
g29
(g33
S'333333\xc3?'
p1364
tp1365
Rp1366
sg50
I1
sg51
I1
sg52
g53
sg54
I10
sg55
F0.1225
sg56
I1
sg57
I-1
sg58
I1
sg59
F0.2
sg60
g61
sg64
I15
sa(dp1367
g4
I20
sg5
F0.3
sg6
F0.2
sg7
F0.05
sg8
F0.4
sg9
I8
sg10
I8
sg11
F0.95
sg12
I6
sg13
F0.4
sg14
I64
sg15
F0.15
sg16
I0
sg17
I2
sg18
F1.2
sg19
F0.125
sg20
F0.9
sg21
I1
sg22
I7
sg23
I-1
sg24
I512
sg25
F0.8
sg26
I1024
sg27
F0.125
sg28
g29
(g33
S'\xb8\x1e\x85\xebQ\xb8\x9e?'
p1368
tp1369
Rp1370
sg39
F0.5
sg40
I2
sg41
F0.1
sg42
F0.1
sg43
F0.4
sg44
I6
sg45
I12
sg46
g29
(g33
S'\x00\x00\x00\x00\x00\x00\x00\x00'
p1371
tp1372
Rp1373
sg50
I1
sg51
I1
sg52
g53
sg54
I10
sg55
F0.1225
sg56
I1
sg57
I-1
sg58
I1
sg59
F0.2
sg60
g61
sg64
I15
sa(dp1374
g4
I20
sg5
F0.3
sg6
F0.2
sg7
F0.05
sg8
F0.4
sg9
I8
sg10
I8
sg11
F0.95
sg12
I6
sg13
F0.4
sg14
I64
sg15
F0.15
sg16
I0
sg17
I2
sg18
F1.2
sg19
F0.125
sg20
F0.9
sg21
I1
sg22
I8
sg23
I-1
sg24
I512
sg25
F0.8
sg26
I1024
sg27
F0.125
sg28
g29
(g33
S'333333\xc3?'
p1375
tp1376
Rp1377
sg39
F0.5
sg40
I2
sg41
F0.1
sg42
F0.1
sg43
F0.4
sg44
I6
sg45
I12
sg46
g29
(g33
S'\xb8\x1e\x85\xebQ\xb8\x9e\xbf'
p1378
tp1379
Rp1380
sg50
I1
sg51
I1
sg52
g53
sg54
I10
sg55
F0.1225
sg56
I1
sg57
I-1
sg58
I1
sg59
F0.2
sg60
g61
sg64
I15
sa(dp1381
g4
I20
sg5
F0.3
sg6
F0.2
sg7
F0.05
sg8
F0.4
sg9
I8
sg10
I8
sg11
F0.95
sg12
I6
sg13
F0.4
sg14
I64
sg15
F0.15
sg16
I0
sg17
I2
sg18
F1.2
sg19
F0.125
sg20
F0.9
sg21
I1
sg22
I9
sg23
I-1
sg24
I512
sg25
F0.8
sg26
I1024
sg27
F0.125
sg28
g29
(g33
S'\x00\x00\x00\x00\x00\x00\x00\x00'
p1382
tp1383
Rp1384
sg39
F0.5
sg40
I2
sg41
F0.1
sg42
F0.1
sg43
F0.4
sg44
I6
sg45
I12
sg46
g29
(g33
S'333333\xc3?'
p1385
tp1386
Rp1387
sg50
I1
sg51
I1
sg52
g53
sg54
I10
sg55
F0.1225
sg56
I1
sg57
I-1
sg58
I1
sg59
F0.2
sg60
g61
sg64
I15
sa(dp1388
g4
I20
sg5
F0.3
sg6
F0.2
sg7
F0.05
sg8
F0.4
sg9
I8
sg10
I8
sg11
F0.95
sg12
I6
sg13
F0.4
sg14
I64
sg15
F0.15
sg16
I0
sg17
I2
sg18
F1.2
sg19
F0.125
sg20
F0.9
sg21
I1
sg22
I10
sg23
I-1
sg24
I512
sg25
F0.8
sg26
I1024
sg27
F0.125
sg28
g29
(g33
S'\xb8\x1e\x85\xebQ\xb8\xbe?'
p1389
tp1390
Rp1391
sg39
F0.5
sg40
I2
sg41
F0.1
sg42
F0.1
sg43
F0.4
sg44
I6
sg45
I12
sg46
g29
(g33
S'\xb8\x1e\x85\xebQ\xb8\xbe?'
p1392
tp1393
Rp1394
sg50
I1
sg51
I1
sg52
g53
sg54
I10
sg55
F0.1225
sg56
I1
sg57
I-1
sg58
I1
sg59
F0.2
sg60
g61
sg64
I15
sa(dp1395
g4
I20
sg5
F0.3
sg6
F0.2
sg7
F0.05
sg8
F0.4
sg9
I8
sg10
I8
sg11
F0.95
sg12
I6
sg13
F0.4
sg14
I64
sg15
F0.15
sg16
I0
sg17
I2
sg18
F1.2
sg19
F0.125
sg20
F0.9
sg21
I1
sg22
I11
sg23
I-1
sg24
I512
sg25
F0.8
sg26
I1024
sg27
F0.125
sg28
g29
(g33
S'\xb8\x1e\x85\xebQ\xb8\x9e?'
p1396
tp1397
Rp1398
sg39
F0.5
sg40
I2
sg41
F0.1
sg42
F0.1
sg43
F0.4
sg44
I6
sg45
I12
sg46
g29
(g33
S'\xb8\x1e\x85\xebQ\xb8\xbe\xbf'
p1399
tp1400
Rp1401
sg50
I1
sg51
I1
sg52
g53
sg54
I10
sg55
F0.1225
sg56
I1
sg57
I-1
sg58
I1
sg59
F0.2
sg60
g61
sg64
I15
sa(dp1402
g4
I20
sg5
F0.3
sg6
F0.2
sg7
F0.05
sg8
F0.4
sg9
I8
sg10
I8
sg11
F0.95
sg12
I6
sg13
F0.4
sg14
I64
sg15
F0.15
sg16
I0
sg17
I2
sg18
F1.2
sg19
F0.125
sg20
F0.9
sg21
I1
sg22
I12
sg23
I-1
sg24
I512
sg25
F0.8
sg26
I1024
sg27
F0.125
sg28
g29
(g33
S'\n\xd7\xa3p=\n\xb7\xbf'
p1403
tp1404
Rp1405
sg39
F0.5
sg40
I2
sg41
F0.1
sg42
F0.1
sg43
F0.4
sg44
I6
sg45
I12
sg46
g29
(g33
S'\n\xd7\xa3p=\n\xb7?'
p1406
tp1407
Rp1408
sg50
I1
sg51
I1
sg52
g53
sg54
I10
sg55
F0.1225
sg56
I1
sg57
I-1
sg58
I1
sg59
F0.2
sg60
g61
sg64
I15
sa(dp1409
g4
I20
sg5
F0.3
sg6
F0.2
sg7
F0.05
sg8
F0.4
sg9
I8
sg10
I8
sg11
F0.95
sg12
I6
sg13
F0.4
sg14
I64
sg15
F0.15
sg16
I0
sg17
I2
sg18
F1.2
sg19
F0.125
sg20
F0.9
sg21
I1
sg22
I13
sg23
I-1
sg24
I512
sg25
F0.8
sg26
I1024
sg27
F0.125
sg28
g29
(g33
S'333333\xc3?'
p1410
tp1411
Rp1412
sg39
F0.5
sg40
I2
sg41
F0.1
sg42
F0.1
sg43
F0.4
sg44
I6
sg45
I12
sg46
g29
(g33
S'\xb8\x1e\x85\xebQ\xb8\xae?'
p1413
tp1414
Rp1415
sg50
I1
sg51
I1
sg52
g53
sg54
I10
sg55
F0.1225
sg56
I1
sg57
I-1
sg58
I1
sg59
F0.2
sg60
g61
sg64
I15
sa(dp1416
g4
I20
sg5
F0.3
sg6
F0.2
sg7
F0.05
sg8
F0.4
sg9
I8
sg10
I8
sg11
F0.95
sg12
I6
sg13
F0.4
sg14
I64
sg15
F0.15
sg16
I0
sg17
I2
sg18
F1.2
sg19
F0.125
sg20
F0.9
sg21
I1
sg22
I14
sg23
I-1
sg24
I512
sg25
F0.8
sg26
I1024
sg27
F0.125
sg28
g29
(g33
S'333333\xc3?'
p1417
tp1418
Rp1419
sg39
F0.5
sg40
I2
sg41
F0.1
sg42
F0.1
sg43
F0.4
sg44
I6
sg45
I12
sg46
g29
(g33
S'\x00\x00\x00\x00\x00\x00\x00\x00'
p1420
tp1421
Rp1422
sg50
I1
sg51
I1
sg52
g53
sg54
I10
sg55
F0.1225
sg56
I1
sg57
I-1
sg58
I1
sg59
F0.2
sg60
g61
sg64
I15
sa(dp1423
g4
I20
sg5
F0.3
sg6
F0.2
sg7
F0.05
sg8
F0.4
sg9
I8
sg10
I8
sg11
F0.95
sg12
I6
sg13
F0.4
sg14
I64
sg15
F0.15
sg16
I0
sg17
I2
sg18
F1.2
sg19
F0.125
sg20
F0.9
sg21
I1
sg22
I15
sg23
I-1
sg24
I512
sg25
F0.8
sg26
I1024
sg27
F0.125
sg28
g29
(g33
S'\xb8\x1e\x85\xebQ\xb8\xbe\xbf'
p1424
tp1425
Rp1426
sg39
F0.5
sg40
I2
sg41
F0.1
sg42
F0.1
sg43
F0.4
sg44
I6
sg45
I12
sg46
g29
(g33
S'\xb8\x1e\x85\xebQ\xb8\x9e\xbf'
p1427
tp1428
Rp1429
sg50
I1
sg51
I1
sg52
g53
sg54
I10
sg55
F0.1225
sg56
I1
sg57
I-1
sg58
I1
sg59
F0.2
sg60
g61
sg64
I15
sa(dp1430
g4
I20
sg5
F0.3
sg6
F0.2
sg7
F0.05
sg8
F0.4
sg9
I8
sg10
I8
sg11
F0.95
sg12
I6
sg13
F0.4
sg14
I64
sg15
F0.15
sg16
I0
sg17
I2
sg18
F1.2
sg19
F0.125
sg20
F0.9
sg21
I1
sg22
I16
sg23
I-1
sg24
I512
sg25
F0.8
sg26
I1024
sg27
F0.125
sg28
g29
(g33
S'\xb8\x1e\x85\xebQ\xb8\xbe\xbf'
p1431
tp1432
Rp1433
sg39
F0.5
sg40
I2
sg41
F0.1
sg42
F0.1
sg43
F0.4
sg44
I6
sg45
I12
sg46
g29
(g33
S'\n\xd7\xa3p=\n\xb7?'
p1434
tp1435
Rp1436
sg50
I1
sg51
I1
sg52
g53
sg54
I10
sg55
F0.1225
sg56
I1
sg57
I-1
sg58
I1
sg59
F0.2
sg60
g61
sg64
I15
sa(dp1437
g4
I20
sg5
F0.3
sg6
F0.2
sg7
F0.05
sg8
F0.4
sg9
I8
sg10
I8
sg11
F0.95
sg12
I6
sg13
F0.4
sg14
I64
sg15
F0.15
sg16
I0
sg17
I2
sg18
F1.2
sg19
F0.125
sg20
F0.9
sg21
I1
sg22
I17
sg23
I-1
sg24
I512
sg25
F0.8
sg26
I1024
sg27
F0.125
sg28
g29
(g33
S'333333\xc3\xbf'
p1438
tp1439
Rp1440
sg39
F0.5
sg40
I2
sg41
F0.1
sg42
F0.1
sg43
F0.4
sg44
I6
sg45
I12
sg46
g29
(g33
S'\n\xd7\xa3p=\n\xb7?'
p1441
tp1442
Rp1443
sg50
I1
sg51
I1
sg52
g53
sg54
I10
sg55
F0.1225
sg56
I1
sg57
I-1
sg58
I1
sg59
F0.2
sg60
g61
sg64
I15
sa(dp1444
g4
I20
sg5
F0.3
sg6
F0.2
sg7
F0.05
sg8
F0.4
sg9
I8
sg10
I8
sg11
F0.95
sg12
I6
sg13
F0.4
sg14
I64
sg15
F0.15
sg16
I0
sg17
I2
sg18
F1.2
sg19
F0.125
sg20
F0.9
sg21
I1
sg22
I18
sg23
I-1
sg24
I512
sg25
F0.8
sg26
I1024
sg27
F0.125
sg28
g29
(g33
S'\xb8\x1e\x85\xebQ\xb8\xae\xbf'
p1445
tp1446
Rp1447
sg39
F0.5
sg40
I2
sg41
F0.1
sg42
F0.1
sg43
F0.4
sg44
I6
sg45
I12
sg46
g29
(g33
S'\xb8\x1e\x85\xebQ\xb8\xbe?'
p1448
tp1449
Rp1450
sg50
I1
sg51
I1
sg52
g53
sg54
I10
sg55
F0.1225
sg56
I1
sg57
I-1
sg58
I1
sg59
F0.2
sg60
g61
sg64
I15
sa(dp1451
g4
I20
sg5
F0.3
sg6
F0.2
sg7
F0.05
sg8
F0.4
sg9
I8
sg10
I8
sg11
F0.95
sg12
I6
sg13
F0.4
sg14
I64
sg15
F0.15
sg16
I0
sg17
I2
sg18
F1.2
sg19
F0.125
sg20
F0.9
sg21
I1
sg22
I19
sg23
I-1
sg24
I512
sg25
F0.8
sg26
I1024
sg27
F0.125
sg28
g29
(g33
S'\xb8\x1e\x85\xebQ\xb8\xae\xbf'
p1452
tp1453
Rp1454
sg39
F0.5
sg40
I2
sg41
F0.1
sg42
F0.1
sg43
F0.4
sg44
I6
sg45
I12
sg46
g29
(g33
S'\xb8\x1e\x85\xebQ\xb8\xbe?'
p1455
tp1456
Rp1457
sg50
I1
sg51
I1
sg52
g53
sg54
I10
sg55
F0.1225
sg56
I1
sg57
I-1
sg58
I1
sg59
F0.2
sg60
g61
sg64
I15
sa(dp1458
g4
I20
sg5
F0.3
sg6
F0.2
sg7
F0.05
sg8
F0.4
sg9
I8
sg10
I8
sg11
F0.95
sg12
I6
sg13
F0.4
sg14
I64
sg15
F0.15
sg16
I0
sg17
I2
sg18
F1.2
sg19
F0.125
sg20
F0.9
sg21
I1
sg22
I0
sg23
I-1
sg24
I512
sg25
F0.8
sg26
I1024
sg27
F0.125
sg28
g29
(g33
S'\n\xd7\xa3p=\n\xb7?'
p1459
tp1460
Rp1461
sg39
F0.5
sg40
I2
sg41
F0.1
sg42
F0.1
sg43
F0.4
sg44
I6
sg45
I12
sg46
g29
(g33
S'\x00\x00\x00\x00\x00\x00\x00\x00'
p1462
tp1463
Rp1464
sg50
I1
sg51
I1
sg52
g53
sg54
I10
sg55
F0.1225
sg56
I1
sg57
I270
sg58
I1
sg59
F0.2
sg60
g61
sg64
I15
sa(dp1465
g4
I20
sg5
F0.3
sg6
F0.2
sg7
F0.05
sg8
F0.4
sg9
I8
sg10
I8
sg11
F0.95
sg12
I6
sg13
F0.4
sg14
I64
sg15
F0.15
sg16
I0
sg17
I2
sg18
F1.2
sg19
F0.125
sg20
F0.9
sg21
I1
sg22
I1
sg23
I-1
sg24
I512
sg25
F0.8
sg26
I1024
sg27
F0.125
sg28
g29
(g33
S'\x00\x00\x00\x00\x00\x00\x00\x00'
p1466
tp1467
Rp1468
sg39
F0.5
sg40
I2
sg41
F0.1
sg42
F0.1
sg43
F0.4
sg44
I6
sg45
I12
sg46
g29
(g33
S'\x00\x00\x00\x00\x00\x00\x00\x00'
p1469
tp1470
Rp1471
sg50
I1
sg51
I1
sg52
g53
sg54
I10
sg55
F0.1225
sg56
I1
sg57
I270
sg58
I1
sg59
F0.2
sg60
g61
sg64
I15
sa(dp1472
g4
I20
sg5
F0.3
sg6
F0.2
sg7
F0.05
sg8
F0.4
sg9
I8
sg10
I8
sg11
F0.95
sg12
I6
sg13
F0.4
sg14
I64
sg15
F0.15
sg16
I0
sg17
I2
sg18
F1.2
sg19
F0.125
sg20
F0.9
sg21
I1
sg22
I2
sg23
I-1
sg24
I512
sg25
F0.8
sg26
I1024
sg27
F0.125
sg28
g29
(g33
S'\xb8\x1e\x85\xebQ\xb8\xbe\xbf'
p1473
tp1474
Rp1475
sg39
F0.5
sg40
I2
sg41
F0.1
sg42
F0.1
sg43
F0.4
sg44
I6
sg45
I12
sg46
g29
(g33
S'\xb8\x1e\x85\xebQ\xb8\xbe\xbf'
p1476
tp1477
Rp1478
sg50
I1
sg51
I1
sg52
g53
sg54
I10
sg55
F0.1225
sg56
I1
sg57
I270
sg58
I1
sg59
F0.2
sg60
g61
sg64
I15
sa(dp1479
g4
I20
sg5
F0.3
sg6
F0.2
sg7
F0.05
sg8
F0.4
sg9
I8
sg10
I8
sg11
F0.95
sg12
I6
sg13
F0.4
sg14
I64
sg15
F0.15
sg16
I0
sg17
I2
sg18
F1.2
sg19
F0.125
sg20
F0.9
sg21
I1
sg22
I3
sg23
I-1
sg24
I512
sg25
F0.8
sg26
I1024
sg27
F0.125
sg28
g29
(g33
S'333333\xc3?'
p1480
tp1481
Rp1482
sg39
F0.5
sg40
I2
sg41
F0.1
sg42
F0.1
sg43
F0.4
sg44
I6
sg45
I12
sg46
g29
(g33
S'333333\xc3\xbf'
p1483
tp1484
Rp1485
sg50
I1
sg51
I1
sg52
g53
sg54
I10
sg55
F0.1225
sg56
I1
sg57
I270
sg58
I1
sg59
F0.2
sg60
g61
sg64
I15
sa(dp1486
g4
I20
sg5
F0.3
sg6
F0.2
sg7
F0.05
sg8
F0.4
sg9
I8
sg10
I8
sg11
F0.95
sg12
I6
sg13
F0.4
sg14
I64
sg15
F0.15
sg16
I0
sg17
I2
sg18
F1.2
sg19
F0.125
sg20
F0.9
sg21
I1
sg22
I4
sg23
I-1
sg24
I512
sg25
F0.8
sg26
I1024
sg27
F0.125
sg28
g29
(g33
S'333333\xc3\xbf'
p1487
tp1488
Rp1489
sg39
F0.5
sg40
I2
sg41
F0.1
sg42
F0.1
sg43
F0.4
sg44
I6
sg45
I12
sg46
g29
(g33
S'333333\xc3?'
p1490
tp1491
Rp1492
sg50
I1
sg51
I1
sg52
g53
sg54
I10
sg55
F0.1225
sg56
I1
sg57
I270
sg58
I1
sg59
F0.2
sg60
g61
sg64
I15
sa(dp1493
g4
I20
sg5
F0.3
sg6
F0.2
sg7
F0.05
sg8
F0.4
sg9
I8
sg10
I8
sg11
F0.95
sg12
I6
sg13
F0.4
sg14
I64
sg15
F0.15
sg16
I0
sg17
I2
sg18
F1.2
sg19
F0.125
sg20
F0.9
sg21
I1
sg22
I5
sg23
I-1
sg24
I512
sg25
F0.8
sg26
I1024
sg27
F0.125
sg28
g29
(g33
S'\xb8\x1e\x85\xebQ\xb8\xbe\xbf'
p1494
tp1495
Rp1496
sg39
F0.5
sg40
I2
sg41
F0.1
sg42
F0.1
sg43
F0.4
sg44
I6
sg45
I12
sg46
g29
(g33
S'\n\xd7\xa3p=\n\xb7?'
p1497
tp1498
Rp1499
sg50
I1
sg51
I1
sg52
g53
sg54
I10
sg55
F0.1225
sg56
I1
sg57
I270
sg58
I1
sg59
F0.2
sg60
g61
sg64
I15
sa(dp1500
g4
I20
sg5
F0.3
sg6
F0.2
sg7
F0.05
sg8
F0.4
sg9
I8
sg10
I8
sg11
F0.95
sg12
I6
sg13
F0.4
sg14
I64
sg15
F0.15
sg16
I0
sg17
I2
sg18
F1.2
sg19
F0.125
sg20
F0.9
sg21
I1
sg22
I6
sg23
I-1
sg24
I512
sg25
F0.8
sg26
I1024
sg27
F0.125
sg28
g29
(g33
S'\xb8\x1e\x85\xebQ\xb8\xbe?'
p1501
tp1502
Rp1503
sg39
F0.5
sg40
I2
sg41
F0.1
sg42
F0.1
sg43
F0.4
sg44
I6
sg45
I12
sg46
g29
(g33
S'\x00\x00\x00\x00\x00\x00\x00\x00'
p1504
tp1505
Rp1506
sg50
I1
sg51
I1
sg52
g53
sg54
I10
sg55
F0.1225
sg56
I1
sg57
I270
sg58
I1
sg59
F0.2
sg60
g61
sg64
I15
sa(dp1507
g4
I20
sg5
F0.3
sg6
F0.2
sg7
F0.05
sg8
F0.4
sg9
I8
sg10
I8
sg11
F0.95
sg12
I6
sg13
F0.4
sg14
I64
sg15
F0.15
sg16
I0
sg17
I2
sg18
F1.2
sg19
F0.125
sg20
F0.9
sg21
I1
sg22
I7
sg23
I-1
sg24
I512
sg25
F0.8
sg26
I1024
sg27
F0.125
sg28
g29
(g33
S'333333\xc3?'
p1508
tp1509
Rp1510
sg39
F0.5
sg40
I2
sg41
F0.1
sg42
F0.1
sg43
F0.4
sg44
I6
sg45
I12
sg46
g29
(g33
S'333333\xc3?'
p1511
tp1512
Rp1513
sg50
I1
sg51
I1
sg52
g53
sg54
I10
sg55
F0.1225
sg56
I1
sg57
I270
sg58
I1
sg59
F0.2
sg60
g61
sg64
I15
sa(dp1514
g4
I20
sg5
F0.3
sg6
F0.2
sg7
F0.05
sg8
F0.4
sg9
I8
sg10
I8
sg11
F0.95
sg12
I6
sg13
F0.4
sg14
I64
sg15
F0.15
sg16
I0
sg17
I2
sg18
F1.2
sg19
F0.125
sg20
F0.9
sg21
I1
sg22
I8
sg23
I-1
sg24
I512
sg25
F0.8
sg26
I1024
sg27
F0.125
sg28
g29
(g33
S'333333\xc3\xbf'
p1515
tp1516
Rp1517
sg39
F0.5
sg40
I2
sg41
F0.1
sg42
F0.1
sg43
F0.4
sg44
I6
sg45
I12
sg46
g29
(g33
S'\xb8\x1e\x85\xebQ\xb8\xbe?'
p1518
tp1519
Rp1520
sg50
I1
sg51
I1
sg52
g53
sg54
I10
sg55
F0.1225
sg56
I1
sg57
I270
sg58
I1
sg59
F0.2
sg60
g61
sg64
I15
sa(dp1521
g4
I20
sg5
F0.3
sg6
F0.2
sg7
F0.05
sg8
F0.4
sg9
I8
sg10
I8
sg11
F0.95
sg12
I6
sg13
F0.4
sg14
I64
sg15
F0.15
sg16
I0
sg17
I2
sg18
F1.2
sg19
F0.125
sg20
F0.9
sg21
I1
sg22
I9
sg23
I-1
sg24
I512
sg25
F0.8
sg26
I1024
sg27
F0.125
sg28
g29
(g33
S'333333\xc3?'
p1522
tp1523
Rp1524
sg39
F0.5
sg40
I2
sg41
F0.1
sg42
F0.1
sg43
F0.4
sg44
I6
sg45
I12
sg46
g29
(g33
S'\x00\x00\x00\x00\x00\x00\x00\x00'
p1525
tp1526
Rp1527
sg50
I1
sg51
I1
sg52
g53
sg54
I10
sg55
F0.1225
sg56
I1
sg57
I270
sg58
I1
sg59
F0.2
sg60
g61
sg64
I15
sa(dp1528
g4
I20
sg5
F0.3
sg6
F0.2
sg7
F0.05
sg8
F0.4
sg9
I8
sg10
I8
sg11
F0.95
sg12
I6
sg13
F0.4
sg14
I64
sg15
F0.15
sg16
I0
sg17
I2
sg18
F1.2
sg19
F0.125
sg20
F0.9
sg21
I1
sg22
I10
sg23
I-1
sg24
I512
sg25
F0.8
sg26
I1024
sg27
F0.125
sg28
g29
(g33
S'\xb8\x1e\x85\xebQ\xb8\xae\xbf'
p1529
tp1530
Rp1531
sg39
F0.5
sg40
I2
sg41
F0.1
sg42
F0.1
sg43
F0.4
sg44
I6
sg45
I12
sg46
g29
(g33
S'\xb8\x1e\x85\xebQ\xb8\xae?'
p1532
tp1533
Rp1534
sg50
I1
sg51
I1
sg52
g53
sg54
I10
sg55
F0.1225
sg56
I1
sg57
I270
sg58
I1
sg59
F0.2
sg60
g61
sg64
I15
sa(dp1535
g4
I20
sg5
F0.3
sg6
F0.2
sg7
F0.05
sg8
F0.4
sg9
I8
sg10
I8
sg11
F0.95
sg12
I6
sg13
F0.4
sg14
I64
sg15
F0.15
sg16
I0
sg17
I2
sg18
F1.2
sg19
F0.125
sg20
F0.9
sg21
I1
sg22
I11
sg23
I-1
sg24
I512
sg25
F0.8
sg26
I1024
sg27
F0.125
sg28
g29
(g33
S'333333\xc3\xbf'
p1536
tp1537
Rp1538
sg39
F0.5
sg40
I2
sg41
F0.1
sg42
F0.1
sg43
F0.4
sg44
I6
sg45
I12
sg46
g29
(g33
S'\x00\x00\x00\x00\x00\x00\x00\x00'
p1539
tp1540
Rp1541
sg50
I1
sg51
I1
sg52
g53
sg54
I10
sg55
F0.1225
sg56
I1
sg57
I270
sg58
I1
sg59
F0.2
sg60
g61
sg64
I15
sa(dp1542
g4
I20
sg5
F0.3
sg6
F0.2
sg7
F0.05
sg8
F0.4
sg9
I8
sg10
I8
sg11
F0.95
sg12
I6
sg13
F0.4
sg14
I64
sg15
F0.15
sg16
I0
sg17
I2
sg18
F1.2
sg19
F0.125
sg20
F0.9
sg21
I1
sg22
I12
sg23
I-1
sg24
I512
sg25
F0.8
sg26
I1024
sg27
F0.125
sg28
g29
(g33
S'\n\xd7\xa3p=\n\xb7?'
p1543
tp1544
Rp1545
sg39
F0.5
sg40
I2
sg41
F0.1
sg42
F0.1
sg43
F0.4
sg44
I6
sg45
I12
sg46
g29
(g33
S'\n\xd7\xa3p=\n\xb7?'
p1546
tp1547
Rp1548
sg50
I1
sg51
I1
sg52
g53
sg54
I10
sg55
F0.1225
sg56
I1
sg57
I270
sg58
I1
sg59
F0.2
sg60
g61
sg64
I15
sa(dp1549
g4
I20
sg5
F0.3
sg6
F0.2
sg7
F0.05
sg8
F0.4
sg9
I8
sg10
I8
sg11
F0.95
sg12
I6
sg13
F0.4
sg14
I64
sg15
F0.15
sg16
I0
sg17
I2
sg18
F1.2
sg19
F0.125
sg20
F0.9
sg21
I1
sg22
I13
sg23
I-1
sg24
I512
sg25
F0.8
sg26
I1024
sg27
F0.125
sg28
g29
(g33
S'\x00\x00\x00\x00\x00\x00\x00\x00'
p1550
tp1551
Rp1552
sg39
F0.5
sg40
I2
sg41
F0.1
sg42
F0.1
sg43
F0.4
sg44
I6
sg45
I12
sg46
g29
(g33
S'333333\xc3?'
p1553
tp1554
Rp1555
sg50
I1
sg51
I1
sg52
g53
sg54
I10
sg55
F0.1225
sg56
I1
sg57
I270
sg58
I1
sg59
F0.2
sg60
g61
sg64
I15
sa(dp1556
g4
I20
sg5
F0.3
sg6
F0.2
sg7
F0.05
sg8
F0.4
sg9
I8
sg10
I8
sg11
F0.95
sg12
I6
sg13
F0.4
sg14
I64
sg15
F0.15
sg16
I0
sg17
I2
sg18
F1.2
sg19
F0.125
sg20
F0.9
sg21
I1
sg22
I14
sg23
I-1
sg24
I512
sg25
F0.8
sg26
I1024
sg27
F0.125
sg28
g29
(g33
S'\xb8\x1e\x85\xebQ\xb8\xae?'
p1557
tp1558
Rp1559
sg39
F0.5
sg40
I2
sg41
F0.1
sg42
F0.1
sg43
F0.4
sg44
I6
sg45
I12
sg46
g29
(g33
S'\xb8\x1e\x85\xebQ\xb8\xbe\xbf'
p1560
tp1561
Rp1562
sg50
I1
sg51
I1
sg52
g53
sg54
I10
sg55
F0.1225
sg56
I1
sg57
I270
sg58
I1
sg59
F0.2
sg60
g61
sg64
I15
sa(dp1563
g4
I20
sg5
F0.3
sg6
F0.2
sg7
F0.05
sg8
F0.4
sg9
I8
sg10
I8
sg11
F0.95
sg12
I6
sg13
F0.4
sg14
I64
sg15
F0.15
sg16
I0
sg17
I2
sg18
F1.2
sg19
F0.125
sg20
F0.9
sg21
I1
sg22
I15
sg23
I-1
sg24
I512
sg25
F0.8
sg26
I1024
sg27
F0.125
sg28
g29
(g33
S'333333\xc3\xbf'
p1564
tp1565
Rp1566
sg39
F0.5
sg40
I2
sg41
F0.1
sg42
F0.1
sg43
F0.4
sg44
I6
sg45
I12
sg46
g29
(g33
S'\xb8\x1e\x85\xebQ\xb8\x9e\xbf'
p1567
tp1568
Rp1569
sg50
I1
sg51
I1
sg52
g53
sg54
I10
sg55
F0.1225
sg56
I1
sg57
I270
sg58
I1
sg59
F0.2
sg60
g61
sg64
I15
sa(dp1570
g4
I20
sg5
F0.3
sg6
F0.2
sg7
F0.05
sg8
F0.4
sg9
I8
sg10
I8
sg11
F0.95
sg12
I6
sg13
F0.4
sg14
I64
sg15
F0.15
sg16
I0
sg17
I2
sg18
F1.2
sg19
F0.125
sg20
F0.9
sg21
I1
sg22
I16
sg23
I-1
sg24
I512
sg25
F0.8
sg26
I1024
sg27
F0.125
sg28
g29
(g33
S'\xb8\x1e\x85\xebQ\xb8\xae?'
p1571
tp1572
Rp1573
sg39
F0.5
sg40
I2
sg41
F0.1
sg42
F0.1
sg43
F0.4
sg44
I6
sg45
I12
sg46
g29
(g33
S'333333\xc3?'
p1574
tp1575
Rp1576
sg50
I1
sg51
I1
sg52
g53
sg54
I10
sg55
F0.1225
sg56
I1
sg57
I270
sg58
I1
sg59
F0.2
sg60
g61
sg64
I15
sa(dp1577
g4
I20
sg5
F0.3
sg6
F0.2
sg7
F0.05
sg8
F0.4
sg9
I8
sg10
I8
sg11
F0.95
sg12
I6
sg13
F0.4
sg14
I64
sg15
F0.15
sg16
I0
sg17
I2
sg18
F1.2
sg19
F0.125
sg20
F0.9
sg21
I1
sg22
I17
sg23
I-1
sg24
I512
sg25
F0.8
sg26
I1024
sg27
F0.125
sg28
g29
(g33
S'\xb8\x1e\x85\xebQ\xb8\xbe?'
p1578
tp1579
Rp1580
sg39
F0.5
sg40
I2
sg41
F0.1
sg42
F0.1
sg43
F0.4
sg44
I6
sg45
I12
sg46
g29
(g33
S'\xb8\x1e\x85\xebQ\xb8\xbe\xbf'
p1581
tp1582
Rp1583
sg50
I1
sg51
I1
sg52
g53
sg54
I10
sg55
F0.1225
sg56
I1
sg57
I270
sg58
I1
sg59
F0.2
sg60
g61
sg64
I15
sa(dp1584
g4
I20
sg5
F0.3
sg6
F0.2
sg7
F0.05
sg8
F0.4
sg9
I8
sg10
I8
sg11
F0.95
sg12
I6
sg13
F0.4
sg14
I64
sg15
F0.15
sg16
I0
sg17
I2
sg18
F1.2
sg19
F0.125
sg20
F0.9
sg21
I1
sg22
I18
sg23
I-1
sg24
I512
sg25
F0.8
sg26
I1024
sg27
F0.125
sg28
g29
(g33
S'\xb8\x1e\x85\xebQ\xb8\xae\xbf'
p1585
tp1586
Rp1587
sg39
F0.5
sg40
I2
sg41
F0.1
sg42
F0.1
sg43
F0.4
sg44
I6
sg45
I12
sg46
g29
(g33
S'333333\xc3\xbf'
p1588
tp1589
Rp1590
sg50
I1
sg51
I1
sg52
g53
sg54
I10
sg55
F0.1225
sg56
I1
sg57
I270
sg58
I1
sg59
F0.2
sg60
g61
sg64
I15
sa(dp1591
g4
I20
sg5
F0.3
sg6
F0.2
sg7
F0.05
sg8
F0.4
sg9
I8
sg10
I8
sg11
F0.95
sg12
I6
sg13
F0.4
sg14
I64
sg15
F0.15
sg16
I0
sg17
I2
sg18
F1.2
sg19
F0.125
sg20
F0.9
sg21
I1
sg22
I19
sg23
I-1
sg24
I512
sg25
F0.8
sg26
I1024
sg27
F0.125
sg28
g29
(g33
S'333333\xc3?'
p1592
tp1593
Rp1594
sg39
F0.5
sg40
I2
sg41
F0.1
sg42
F0.1
sg43
F0.4
sg44
I6
sg45
I12
sg46
g29
(g33
S'\n\xd7\xa3p=\n\xb7?'
p1595
tp1596
Rp1597
sg50
I1
sg51
I1
sg52
g53
sg54
I10
sg55
F0.1225
sg56
I1
sg57
I270
sg58
I1
sg59
F0.2
sg60
g61
sg64
I15
sa(dp1598
g4
I20
sg5
F0.3
sg6
F0.2
sg7
F0.05
sg8
F0.4
sg9
I8
sg10
I8
sg11
F0.95
sg12
I6
sg13
F0.4
sg14
I64
sg15
F0.15
sg16
I0
sg17
I2
sg18
F1.2
sg19
F0.125
sg20
F0.9
sg21
I1
sg22
I0
sg23
I-1
sg24
I512
sg25
F0.8
sg26
I1024
sg27
F0.125
sg28
g29
(g33
S'\xb8\x1e\x85\xebQ\xb8\xae?'
p1599
tp1600
Rp1601
sg39
F0.5
sg40
I2
sg41
F0.1
sg42
F0.1
sg43
F0.4
sg44
I6
sg45
I12
sg46
g29
(g33
S'\xb8\x1e\x85\xebQ\xb8\x9e\xbf'
p1602
tp1603
Rp1604
sg50
I1
sg51
I1
sg52
g53
sg54
I10
sg55
F0.1225
sg56
I1
sg57
I135
sg58
I1
sg59
F0.2
sg60
g61
sg64
I15
sa(dp1605
g4
I20
sg5
F0.3
sg6
F0.2
sg7
F0.05
sg8
F0.4
sg9
I8
sg10
I8
sg11
F0.95
sg12
I6
sg13
F0.4
sg14
I64
sg15
F0.15
sg16
I0
sg17
I2
sg18
F1.2
sg19
F0.125
sg20
F0.9
sg21
I1
sg22
I1
sg23
I-1
sg24
I512
sg25
F0.8
sg26
I1024
sg27
F0.125
sg28
g29
(g33
S'\n\xd7\xa3p=\n\xb7\xbf'
p1606
tp1607
Rp1608
sg39
F0.5
sg40
I2
sg41
F0.1
sg42
F0.1
sg43
F0.4
sg44
I6
sg45
I12
sg46
g29
(g33
S'\x00\x00\x00\x00\x00\x00\x00\x00'
p1609
tp1610
Rp1611
sg50
I1
sg51
I1
sg52
g53
sg54
I10
sg55
F0.1225
sg56
I1
sg57
I135
sg58
I1
sg59
F0.2
sg60
g61
sg64
I15
sa(dp1612
g4
I20
sg5
F0.3
sg6
F0.2
sg7
F0.05
sg8
F0.4
sg9
I8
sg10
I8
sg11
F0.95
sg12
I6
sg13
F0.4
sg14
I64
sg15
F0.15
sg16
I0
sg17
I2
sg18
F1.2
sg19
F0.125
sg20
F0.9
sg21
I1
sg22
I2
sg23
I-1
sg24
I512
sg25
F0.8
sg26
I1024
sg27
F0.125
sg28
g29
(g33
S'\xb8\x1e\x85\xebQ\xb8\x9e\xbf'
p1613
tp1614
Rp1615
sg39
F0.5
sg40
I2
sg41
F0.1
sg42
F0.1
sg43
F0.4
sg44
I6
sg45
I12
sg46
g29
(g33
S'\xb8\x1e\x85\xebQ\xb8\xbe\xbf'
p1616
tp1617
Rp1618
sg50
I1
sg51
I1
sg52
g53
sg54
I10
sg55
F0.1225
sg56
I1
sg57
I135
sg58
I1
sg59
F0.2
sg60
g61
sg64
I15
sa(dp1619
g4
I20
sg5
F0.3
sg6
F0.2
sg7
F0.05
sg8
F0.4
sg9
I8
sg10
I8
sg11
F0.95
sg12
I6
sg13
F0.4
sg14
I64
sg15
F0.15
sg16
I0
sg17
I2
sg18
F1.2
sg19
F0.125
sg20
F0.9
sg21
I1
sg22
I3
sg23
I-1
sg24
I512
sg25
F0.8
sg26
I1024
sg27
F0.125
sg28
g29
(g33
S'\xb8\x1e\x85\xebQ\xb8\x9e?'
p1620
tp1621
Rp1622
sg39
F0.5
sg40
I2
sg41
F0.1
sg42
F0.1
sg43
F0.4
sg44
I6
sg45
I12
sg46
g29
(g33
S'\xb8\x1e\x85\xebQ\xb8\xae\xbf'
p1623
tp1624
Rp1625
sg50
I1
sg51
I1
sg52
g53
sg54
I10
sg55
F0.1225
sg56
I1
sg57
I135
sg58
I1
sg59
F0.2
sg60
g61
sg64
I15
sa(dp1626
g4
I20
sg5
F0.3
sg6
F0.2
sg7
F0.05
sg8
F0.4
sg9
I8
sg10
I8
sg11
F0.95
sg12
I6
sg13
F0.4
sg14
I64
sg15
F0.15
sg16
I0
sg17
I2
sg18
F1.2
sg19
F0.125
sg20
F0.9
sg21
I1
sg22
I4
sg23
I-1
sg24
I512
sg25
F0.8
sg26
I1024
sg27
F0.125
sg28
g29
(g33
S'\n\xd7\xa3p=\n\xb7?'
p1627
tp1628
Rp1629
sg39
F0.5
sg40
I2
sg41
F0.1
sg42
F0.1
sg43
F0.4
sg44
I6
sg45
I12
sg46
g29
(g33
S'\xb8\x1e\x85\xebQ\xb8\xbe\xbf'
p1630
tp1631
Rp1632
sg50
I1
sg51
I1
sg52
g53
sg54
I10
sg55
F0.1225
sg56
I1
sg57
I135
sg58
I1
sg59
F0.2
sg60
g61
sg64
I15
sa(dp1633
g4
I20
sg5
F0.3
sg6
F0.2
sg7
F0.05
sg8
F0.4
sg9
I8
sg10
I8
sg11
F0.95
sg12
I6
sg13
F0.4
sg14
I64
sg15
F0.15
sg16
I0
sg17
I2
sg18
F1.2
sg19
F0.125
sg20
F0.9
sg21
I1
sg22
I5
sg23
I-1
sg24
I512
sg25
F0.8
sg26
I1024
sg27
F0.125
sg28
g29
(g33
S'\xb8\x1e\x85\xebQ\xb8\x9e?'
p1634
tp1635
Rp1636
sg39
F0.5
sg40
I2
sg41
F0.1
sg42
F0.1
sg43
F0.4
sg44
I6
sg45
I12
sg46
g29
(g33
S'\xb8\x1e\x85\xebQ\xb8\xae\xbf'
p1637
tp1638
Rp1639
sg50
I1
sg51
I1
sg52
g53
sg54
I10
sg55
F0.1225
sg56
I1
sg57
I135
sg58
I1
sg59
F0.2
sg60
g61
sg64
I15
sa(dp1640
g4
I20
sg5
F0.3
sg6
F0.2
sg7
F0.05
sg8
F0.4
sg9
I8
sg10
I8
sg11
F0.95
sg12
I6
sg13
F0.4
sg14
I64
sg15
F0.15
sg16
I0
sg17
I2
sg18
F1.2
sg19
F0.125
sg20
F0.9
sg21
I1
sg22
I6
sg23
I-1
sg24
I512
sg25
F0.8
sg26
I1024
sg27
F0.125
sg28
g29
(g33
S'\x00\x00\x00\x00\x00\x00\x00\x00'
p1641
tp1642
Rp1643
sg39
F0.5
sg40
I2
sg41
F0.1
sg42
F0.1
sg43
F0.4
sg44
I6
sg45
I12
sg46
g29
(g33
S'333333\xc3\xbf'
p1644
tp1645
Rp1646
sg50
I1
sg51
I1
sg52
g53
sg54
I10
sg55
F0.1225
sg56
I1
sg57
I135
sg58
I1
sg59
F0.2
sg60
g61
sg64
I15
sa(dp1647
g4
I20
sg5
F0.3
sg6
F0.2
sg7
F0.05
sg8
F0.4
sg9
I8
sg10
I8
sg11
F0.95
sg12
I6
sg13
F0.4
sg14
I64
sg15
F0.15
sg16
I0
sg17
I2
sg18
F1.2
sg19
F0.125
sg20
F0.9
sg21
I1
sg22
I7
sg23
I-1
sg24
I512
sg25
F0.8
sg26
I1024
sg27
F0.125
sg28
g29
(g33
S'\n\xd7\xa3p=\n\xb7\xbf'
p1648
tp1649
Rp1650
sg39
F0.5
sg40
I2
sg41
F0.1
sg42
F0.1
sg43
F0.4
sg44
I6
sg45
I12
sg46
g29
(g33
S'\xb8\x1e\x85\xebQ\xb8\xbe\xbf'
p1651
tp1652
Rp1653
sg50
I1
sg51
I1
sg52
g53
sg54
I10
sg55
F0.1225
sg56
I1
sg57
I135
sg58
I1
sg59
F0.2
sg60
g61
sg64
I15
sa(dp1654
g4
I20
sg5
F0.3
sg6
F0.2
sg7
F0.05
sg8
F0.4
sg9
I8
sg10
I8
sg11
F0.95
sg12
I6
sg13
F0.4
sg14
I64
sg15
F0.15
sg16
I0
sg17
I2
sg18
F1.2
sg19
F0.125
sg20
F0.9
sg21
I1
sg22
I8
sg23
I-1
sg24
I512
sg25
F0.8
sg26
I1024
sg27
F0.125
sg28
g29
(g33
S'\xb8\x1e\x85\xebQ\xb8\x9e\xbf'
p1655
tp1656
Rp1657
sg39
F0.5
sg40
I2
sg41
F0.1
sg42
F0.1
sg43
F0.4
sg44
I6
sg45
I12
sg46
g29
(g33
S'\xb8\x1e\x85\xebQ\xb8\xbe\xbf'
p1658
tp1659
Rp1660
sg50
I1
sg51
I1
sg52
g53
sg54
I10
sg55
F0.1225
sg56
I1
sg57
I135
sg58
I1
sg59
F0.2
sg60
g61
sg64
I15
sa(dp1661
g4
I20
sg5
F0.3
sg6
F0.2
sg7
F0.05
sg8
F0.4
sg9
I8
sg10
I8
sg11
F0.95
sg12
I6
sg13
F0.4
sg14
I64
sg15
F0.15
sg16
I0
sg17
I2
sg18
F1.2
sg19
F0.125
sg20
F0.9
sg21
I1
sg22
I9
sg23
I-1
sg24
I512
sg25
F0.8
sg26
I1024
sg27
F0.125
sg28
g29
(g33
S'333333\xc3\xbf'
p1662
tp1663
Rp1664
sg39
F0.5
sg40
I2
sg41
F0.1
sg42
F0.1
sg43
F0.4
sg44
I6
sg45
I12
sg46
g29
(g33
S'\xb8\x1e\x85\xebQ\xb8\x9e\xbf'
p1665
tp1666
Rp1667
sg50
I1
sg51
I1
sg52
g53
sg54
I10
sg55
F0.1225
sg56
I1
sg57
I135
sg58
I1
sg59
F0.2
sg60
g61
sg64
I15
sa(dp1668
g4
I20
sg5
F0.3
sg6
F0.2
sg7
F0.05
sg8
F0.4
sg9
I8
sg10
I8
sg11
F0.95
sg12
I6
sg13
F0.4
sg14
I64
sg15
F0.15
sg16
I0
sg17
I2
sg18
F1.2
sg19
F0.125
sg20
F0.9
sg21
I1
sg22
I10
sg23
I-1
sg24
I512
sg25
F0.8
sg26
I1024
sg27
F0.125
sg28
g29
(g33
S'\x00\x00\x00\x00\x00\x00\x00\x00'
p1669
tp1670
Rp1671
sg39
F0.5
sg40
I2
sg41
F0.1
sg42
F0.1
sg43
F0.4
sg44
I6
sg45
I12
sg46
g29
(g33
S'\xb8\x1e\x85\xebQ\xb8\xbe\xbf'
p1672
tp1673
Rp1674
sg50
I1
sg51
I1
sg52
g53
sg54
I10
sg55
F0.1225
sg56
I1
sg57
I135
sg58
I1
sg59
F0.2
sg60
g61
sg64
I15
sa(dp1675
g4
I20
sg5
F0.3
sg6
F0.2
sg7
F0.05
sg8
F0.4
sg9
I8
sg10
I8
sg11
F0.95
sg12
I6
sg13
F0.4
sg14
I64
sg15
F0.15
sg16
I0
sg17
I2
sg18
F1.2
sg19
F0.125
sg20
F0.9
sg21
I1
sg22
I11
sg23
I-1
sg24
I512
sg25
F0.8
sg26
I1024
sg27
F0.125
sg28
g29
(g33
S'\n\xd7\xa3p=\n\xb7\xbf'
p1676
tp1677
Rp1678
sg39
F0.5
sg40
I2
sg41
F0.1
sg42
F0.1
sg43
F0.4
sg44
I6
sg45
I12
sg46
g29
(g33
S'\n\xd7\xa3p=\n\xb7\xbf'
p1679
tp1680
Rp1681
sg50
I1
sg51
I1
sg52
g53
sg54
I10
sg55
F0.1225
sg56
I1
sg57
I135
sg58
I1
sg59
F0.2
sg60
g61
sg64
I15
sa(dp1682
g4
I20
sg5
F0.3
sg6
F0.2
sg7
F0.05
sg8
F0.4
sg9
I8
sg10
I8
sg11
F0.95
sg12
I6
sg13
F0.4
sg14
I64
sg15
F0.15
sg16
I0
sg17
I2
sg18
F1.2
sg19
F0.125
sg20
F0.9
sg21
I1
sg22
I12
sg23
I-1
sg24
I512
sg25
F0.8
sg26
I1024
sg27
F0.125
sg28
g29
(g33
S'\xb8\x1e\x85\xebQ\xb8\xae\xbf'
p1683
tp1684
Rp1685
sg39
F0.5
sg40
I2
sg41
F0.1
sg42
F0.1
sg43
F0.4
sg44
I6
sg45
I12
sg46
g29
(g33
S'\xb8\x1e\x85\xebQ\xb8\x9e?'
p1686
tp1687
Rp1688
sg50
I1
sg51
I1
sg52
g53
sg54
I10
sg55
F0.1225
sg56
I1
sg57
I135
sg58
I1
sg59
F0.2
sg60
g61
sg64
I15
sa(dp1689
g4
I20
sg5
F0.3
sg6
F0.2
sg7
F0.05
sg8
F0.4
sg9
I8
sg10
I8
sg11
F0.95
sg12
I6
sg13
F0.4
sg14
I64
sg15
F0.15
sg16
I0
sg17
I2
sg18
F1.2
sg19
F0.125
sg20
F0.9
sg21
I1
sg22
I13
sg23
I-1
sg24
I512
sg25
F0.8
sg26
I1024
sg27
F0.125
sg28
g29
(g33
S'333333\xc3?'
p1690
tp1691
Rp1692
sg39
F0.5
sg40
I2
sg41
F0.1
sg42
F0.1
sg43
F0.4
sg44
I6
sg45
I12
sg46
g29
(g33
S'333333\xc3\xbf'
p1693
tp1694
Rp1695
sg50
I1
sg51
I1
sg52
g53
sg54
I10
sg55
F0.1225
sg56
I1
sg57
I135
sg58
I1
sg59
F0.2
sg60
g61
sg64
I15
sa(dp1696
g4
I20
sg5
F0.3
sg6
F0.2
sg7
F0.05
sg8
F0.4
sg9
I8
sg10
I8
sg11
F0.95
sg12
I6
sg13
F0.4
sg14
I64
sg15
F0.15
sg16
I0
sg17
I2
sg18
F1.2
sg19
F0.125
sg20
F0.9
sg21
I1
sg22
I14
sg23
I-1
sg24
I512
sg25
F0.8
sg26
I1024
sg27
F0.125
sg28
g29
(g33
S'\xb8\x1e\x85\xebQ\xb8\x9e?'
p1697
tp1698
Rp1699
sg39
F0.5
sg40
I2
sg41
F0.1
sg42
F0.1
sg43
F0.4
sg44
I6
sg45
I12
sg46
g29
(g33
S'\x00\x00\x00\x00\x00\x00\x00\x00'
p1700
tp1701
Rp1702
sg50
I1
sg51
I1
sg52
g53
sg54
I10
sg55
F0.1225
sg56
I1
sg57
I135
sg58
I1
sg59
F0.2
sg60
g61
sg64
I15
sa(dp1703
g4
I20
sg5
F0.3
sg6
F0.2
sg7
F0.05
sg8
F0.4
sg9
I8
sg10
I8
sg11
F0.95
sg12
I6
sg13
F0.4
sg14
I64
sg15
F0.15
sg16
I0
sg17
I2
sg18
F1.2
sg19
F0.125
sg20
F0.9
sg21
I1
sg22
I15
sg23
I-1
sg24
I512
sg25
F0.8
sg26
I1024
sg27
F0.125
sg28
g29
(g33
S'333333\xc3?'
p1704
tp1705
Rp1706
sg39
F0.5
sg40
I2
sg41
F0.1
sg42
F0.1
sg43
F0.4
sg44
I6
sg45
I12
sg46
g29
(g33
S'\xb8\x1e\x85\xebQ\xb8\xbe?'
p1707
tp1708
Rp1709
sg50
I1
sg51
I1
sg52
g53
sg54
I10
sg55
F0.1225
sg56
I1
sg57
I135
sg58
I1
sg59
F0.2
sg60
g61
sg64
I15
sa(dp1710
g4
I20
sg5
F0.3
sg6
F0.2
sg7
F0.05
sg8
F0.4
sg9
I8
sg10
I8
sg11
F0.95
sg12
I6
sg13
F0.4
sg14
I64
sg15
F0.15
sg16
I0
sg17
I2
sg18
F1.2
sg19
F0.125
sg20
F0.9
sg21
I1
sg22
I16
sg23
I-1
sg24
I512
sg25
F0.8
sg26
I1024
sg27
F0.125
sg28
g29
(g33
S'333333\xc3\xbf'
p1711
tp1712
Rp1713
sg39
F0.5
sg40
I2
sg41
F0.1
sg42
F0.1
sg43
F0.4
sg44
I6
sg45
I12
sg46
g29
(g33
S'\xb8\x1e\x85\xebQ\xb8\xbe?'
p1714
tp1715
Rp1716
sg50
I1
sg51
I1
sg52
g53
sg54
I10
sg55
F0.1225
sg56
I1
sg57
I135
sg58
I1
sg59
F0.2
sg60
g61
sg64
I15
sa(dp1717
g4
I20
sg5
F0.3
sg6
F0.2
sg7
F0.05
sg8
F0.4
sg9
I8
sg10
I8
sg11
F0.95
sg12
I6
sg13
F0.4
sg14
I64
sg15
F0.15
sg16
I0
sg17
I2
sg18
F1.2
sg19
F0.125
sg20
F0.9
sg21
I1
sg22
I17
sg23
I-1
sg24
I512
sg25
F0.8
sg26
I1024
sg27
F0.125
sg28
g29
(g33
S'333333\xc3?'
p1718
tp1719
Rp1720
sg39
F0.5
sg40
I2
sg41
F0.1
sg42
F0.1
sg43
F0.4
sg44
I6
sg45
I12
sg46
g29
(g33
S'\xb8\x1e\x85\xebQ\xb8\xae\xbf'
p1721
tp1722
Rp1723
sg50
I1
sg51
I1
sg52
g53
sg54
I10
sg55
F0.1225
sg56
I1
sg57
I135
sg58
I1
sg59
F0.2
sg60
g61
sg64
I15
sa(dp1724
g4
I20
sg5
F0.3
sg6
F0.2
sg7
F0.05
sg8
F0.4
sg9
I8
sg10
I8
sg11
F0.95
sg12
I6
sg13
F0.4
sg14
I64
sg15
F0.15
sg16
I0
sg17
I2
sg18
F1.2
sg19
F0.125
sg20
F0.9
sg21
I1
sg22
I18
sg23
I-1
sg24
I512
sg25
F0.8
sg26
I1024
sg27
F0.125
sg28
g29
(g33
S'\xb8\x1e\x85\xebQ\xb8\x9e\xbf'
p1725
tp1726
Rp1727
sg39
F0.5
sg40
I2
sg41
F0.1
sg42
F0.1
sg43
F0.4
sg44
I6
sg45
I12
sg46
g29
(g33
S'\x00\x00\x00\x00\x00\x00\x00\x00'
p1728
tp1729
Rp1730
sg50
I1
sg51
I1
sg52
g53
sg54
I10
sg55
F0.1225
sg56
I1
sg57
I135
sg58
I1
sg59
F0.2
sg60
g61
sg64
I15
sa(dp1731
g4
I20
sg5
F0.3
sg6
F0.2
sg7
F0.05
sg8
F0.4
sg9
I8
sg10
I8
sg11
F0.95
sg12
I6
sg13
F0.4
sg14
I64
sg15
F0.15
sg16
I0
sg17
I2
sg18
F1.2
sg19
F0.125
sg20
F0.9
sg21
I1
sg22
I19
sg23
I-1
sg24
I512
sg25
F0.8
sg26
I1024
sg27
F0.125
sg28
g29
(g33
S'\xb8\x1e\x85\xebQ\xb8\x9e\xbf'
p1732
tp1733
Rp1734
sg39
F0.5
sg40
I2
sg41
F0.1
sg42
F0.1
sg43
F0.4
sg44
I6
sg45
I12
sg46
g29
(g33
S'\xb8\x1e\x85\xebQ\xb8\xbe\xbf'
p1735
tp1736
Rp1737
sg50
I1
sg51
I1
sg52
g53
sg54
I10
sg55
F0.1225
sg56
I1
sg57
I135
sg58
I1
sg59
F0.2
sg60
g61
sg64
I15
sa(dp1738
g4
I20
sg5
F0.3
sg6
F0.2
sg7
F0.05
sg8
F0.4
sg9
I8
sg10
I8
sg11
F0.95
sg12
I6
sg13
F0.4
sg14
I64
sg15
F0.15
sg16
I0
sg17
I2
sg18
F1.2
sg19
F0.125
sg20
F0.9
sg21
I1
sg22
I0
sg23
I-1
sg24
I512
sg25
F0.8
sg26
I1024
sg27
F0.125
sg28
g29
(g33
S'333333\xc3?'
p1739
tp1740
Rp1741
sg39
F0.5
sg40
I2
sg41
F0.1
sg42
F0.1
sg43
F0.4
sg44
I6
sg45
I12
sg46
g29
(g33
S'\n\xd7\xa3p=\n\xb7?'
p1742
tp1743
Rp1744
sg50
I1
sg51
I1
sg52
g53
sg54
I10
sg55
F0.1225
sg56
I1
sg57
I-1
sg58
I1
sg59
F0.2
sg60
g61
sg64
I15
sa(dp1745
g4
I20
sg5
F0.3
sg6
F0.2
sg7
F0.05
sg8
F0.4
sg9
I8
sg10
I8
sg11
F0.95
sg12
I6
sg13
F0.4
sg14
I64
sg15
F0.15
sg16
I0
sg17
I2
sg18
F1.2
sg19
F0.125
sg20
F0.9
sg21
I1
sg22
I1
sg23
I-1
sg24
I512
sg25
F0.8
sg26
I1024
sg27
F0.125
sg28
g29
(g33
S'\xb8\x1e\x85\xebQ\xb8\x9e?'
p1746
tp1747
Rp1748
sg39
F0.5
sg40
I2
sg41
F0.1
sg42
F0.1
sg43
F0.4
sg44
I6
sg45
I12
sg46
g29
(g33
S'\xb8\x1e\x85\xebQ\xb8\xbe\xbf'
p1749
tp1750
Rp1751
sg50
I1
sg51
I1
sg52
g53
sg54
I10
sg55
F0.1225
sg56
I1
sg57
I-1
sg58
I1
sg59
F0.2
sg60
g61
sg64
I15
sa(dp1752
g4
I20
sg5
F0.3
sg6
F0.2
sg7
F0.05
sg8
F0.4
sg9
I8
sg10
I8
sg11
F0.95
sg12
I6
sg13
F0.4
sg14
I64
sg15
F0.15
sg16
I0
sg17
I2
sg18
F1.2
sg19
F0.125
sg20
F0.9
sg21
I1
sg22
I2
sg23
I-1
sg24
I512
sg25
F0.8
sg26
I1024
sg27
F0.125
sg28
g29
(g33
S'\n\xd7\xa3p=\n\xb7\xbf'
p1753
tp1754
Rp1755
sg39
F0.5
sg40
I2
sg41
F0.1
sg42
F0.1
sg43
F0.4
sg44
I6
sg45
I12
sg46
g29
(g33
S'\x00\x00\x00\x00\x00\x00\x00\x00'
p1756
tp1757
Rp1758
sg50
I1
sg51
I1
sg52
g53
sg54
I10
sg55
F0.1225
sg56
I1
sg57
I-1
sg58
I1
sg59
F0.2
sg60
g61
sg64
I15
sa(dp1759
g4
I20
sg5
F0.3
sg6
F0.2
sg7
F0.05
sg8
F0.4
sg9
I8
sg10
I8
sg11
F0.95
sg12
I6
sg13
F0.4
sg14
I64
sg15
F0.15
sg16
I0
sg17
I2
sg18
F1.2
sg19
F0.125
sg20
F0.9
sg21
I1
sg22
I3
sg23
I-1
sg24
I512
sg25
F0.8
sg26
I1024
sg27
F0.125
sg28
g29
(g33
S'\xb8\x1e\x85\xebQ\xb8\x9e\xbf'
p1760
tp1761
Rp1762
sg39
F0.5
sg40
I2
sg41
F0.1
sg42
F0.1
sg43
F0.4
sg44
I6
sg45
I12
sg46
g29
(g33
S'\xb8\x1e\x85\xebQ\xb8\xbe\xbf'
p1763
tp1764
Rp1765
sg50
I1
sg51
I1
sg52
g53
sg54
I10
sg55
F0.1225
sg56
I1
sg57
I-1
sg58
I1
sg59
F0.2
sg60
g61
sg64
I15
sa(dp1766
g4
I20
sg5
F0.3
sg6
F0.2
sg7
F0.05
sg8
F0.4
sg9
I8
sg10
I8
sg11
F0.95
sg12
I6
sg13
F0.4
sg14
I64
sg15
F0.15
sg16
I0
sg17
I2
sg18
F1.2
sg19
F0.125
sg20
F0.9
sg21
I1
sg22
I4
sg23
I-1
sg24
I512
sg25
F0.8
sg26
I1024
sg27
F0.125
sg28
g29
(g33
S'\xb8\x1e\x85\xebQ\xb8\xae\xbf'
p1767
tp1768
Rp1769
sg39
F0.5
sg40
I2
sg41
F0.1
sg42
F0.1
sg43
F0.4
sg44
I6
sg45
I12
sg46
g29
(g33
S'\xb8\x1e\x85\xebQ\xb8\xbe\xbf'
p1770
tp1771
Rp1772
sg50
I1
sg51
I1
sg52
g53
sg54
I10
sg55
F0.1225
sg56
I1
sg57
I-1
sg58
I1
sg59
F0.2
sg60
g61
sg64
I15
sa(dp1773
g4
I20
sg5
F0.3
sg6
F0.2
sg7
F0.05
sg8
F0.4
sg9
I8
sg10
I8
sg11
F0.95
sg12
I6
sg13
F0.4
sg14
I64
sg15
F0.15
sg16
I0
sg17
I2
sg18
F1.2
sg19
F0.125
sg20
F0.9
sg21
I1
sg22
I5
sg23
I-1
sg24
I512
sg25
F0.8
sg26
I1024
sg27
F0.125
sg28
g29
(g33
S'\xb8\x1e\x85\xebQ\xb8\x9e?'
p1774
tp1775
Rp1776
sg39
F0.5
sg40
I2
sg41
F0.1
sg42
F0.1
sg43
F0.4
sg44
I6
sg45
I12
sg46
g29
(g33
S'\n\xd7\xa3p=\n\xb7\xbf'
p1777
tp1778
Rp1779
sg50
I1
sg51
I1
sg52
g53
sg54
I10
sg55
F0.1225
sg56
I1
sg57
I-1
sg58
I1
sg59
F0.2
sg60
g61
sg64
I15
sa(dp1780
g4
I20
sg5
F0.3
sg6
F0.2
sg7
F0.05
sg8
F0.4
sg9
I8
sg10
I8
sg11
F0.95
sg12
I6
sg13
F0.4
sg14
I64
sg15
F0.15
sg16
I0
sg17
I2
sg18
F1.2
sg19
F0.125
sg20
F0.9
sg21
I1
sg22
I6
sg23
I-1
sg24
I512
sg25
F0.8
sg26
I1024
sg27
F0.125
sg28
g29
(g33
S'\xb8\x1e\x85\xebQ\xb8\xbe?'
p1781
tp1782
Rp1783
sg39
F0.5
sg40
I2
sg41
F0.1
sg42
F0.1
sg43
F0.4
sg44
I6
sg45
I12
sg46
g29
(g33
S'\xb8\x1e\x85\xebQ\xb8\xae\xbf'
p1784
tp1785
Rp1786
sg50
I1
sg51
I1
sg52
g53
sg54
I10
sg55
F0.1225
sg56
I1
sg57
I-1
sg58
I1
sg59
F0.2
sg60
g61
sg64
I15
sa(dp1787
g4
I20
sg5
F0.3
sg6
F0.2
sg7
F0.05
sg8
F0.4
sg9
I8
sg10
I8
sg11
F0.95
sg12
I6
sg13
F0.4
sg14
I64
sg15
F0.15
sg16
I0
sg17
I2
sg18
F1.2
sg19
F0.125
sg20
F0.9
sg21
I1
sg22
I7
sg23
I-1
sg24
I512
sg25
F0.8
sg26
I1024
sg27
F0.125
sg28
g29
(g33
S'\n\xd7\xa3p=\n\xb7?'
p1788
tp1789
Rp1790
sg39
F0.5
sg40
I2
sg41
F0.1
sg42
F0.1
sg43
F0.4
sg44
I6
sg45
I12
sg46
g29
(g33
S'\xb8\x1e\x85\xebQ\xb8\x9e?'
p1791
tp1792
Rp1793
sg50
I1
sg51
I1
sg52
g53
sg54
I10
sg55
F0.1225
sg56
I1
sg57
I-1
sg58
I1
sg59
F0.2
sg60
g61
sg64
I15
sa(dp1794
g4
I20
sg5
F0.3
sg6
F0.2
sg7
F0.05
sg8
F0.4
sg9
I8
sg10
I8
sg11
F0.95
sg12
I6
sg13
F0.4
sg14
I64
sg15
F0.15
sg16
I0
sg17
I2
sg18
F1.2
sg19
F0.125
sg20
F0.9
sg21
I1
sg22
I8
sg23
I-1
sg24
I512
sg25
F0.8
sg26
I1024
sg27
F0.125
sg28
g29
(g33
S'\xb8\x1e\x85\xebQ\xb8\xae?'
p1795
tp1796
Rp1797
sg39
F0.5
sg40
I2
sg41
F0.1
sg42
F0.1
sg43
F0.4
sg44
I6
sg45
I12
sg46
g29
(g33
S'\xb8\x1e\x85\xebQ\xb8\x9e?'
p1798
tp1799
Rp1800
sg50
I1
sg51
I1
sg52
g53
sg54
I10
sg55
F0.1225
sg56
I1
sg57
I-1
sg58
I1
sg59
F0.2
sg60
g61
sg64
I15
sa(dp1801
g4
I20
sg5
F0.3
sg6
F0.2
sg7
F0.05
sg8
F0.4
sg9
I8
sg10
I8
sg11
F0.95
sg12
I6
sg13
F0.4
sg14
I64
sg15
F0.15
sg16
I0
sg17
I2
sg18
F1.2
sg19
F0.125
sg20
F0.9
sg21
I1
sg22
I9
sg23
I-1
sg24
I512
sg25
F0.8
sg26
I1024
sg27
F0.125
sg28
g29
(g33
S'\xb8\x1e\x85\xebQ\xb8\xae?'
p1802
tp1803
Rp1804
sg39
F0.5
sg40
I2
sg41
F0.1
sg42
F0.1
sg43
F0.4
sg44
I6
sg45
I12
sg46
g29
(g33
S'\xb8\x1e\x85\xebQ\xb8\xae?'
p1805
tp1806
Rp1807
sg50
I1
sg51
I1
sg52
g53
sg54
I10
sg55
F0.1225
sg56
I1
sg57
I-1
sg58
I1
sg59
F0.2
sg60
g61
sg64
I15
sa(dp1808
g4
I20
sg5
F0.3
sg6
F0.2
sg7
F0.05
sg8
F0.4
sg9
I8
sg10
I8
sg11
F0.95
sg12
I6
sg13
F0.4
sg14
I64
sg15
F0.15
sg16
I0
sg17
I2
sg18
F1.2
sg19
F0.125
sg20
F0.9
sg21
I1
sg22
I10
sg23
I-1
sg24
I512
sg25
F0.8
sg26
I1024
sg27
F0.125
sg28
g29
(g33
S'\x00\x00\x00\x00\x00\x00\x00\x00'
p1809
tp1810
Rp1811
sg39
F0.5
sg40
I2
sg41
F0.1
sg42
F0.1
sg43
F0.4
sg44
I6
sg45
I12
sg46
g29
(g33
S'\xb8\x1e\x85\xebQ\xb8\xae?'
p1812
tp1813
Rp1814
sg50
I1
sg51
I1
sg52
g53
sg54
I10
sg55
F0.1225
sg56
I1
sg57
I-1
sg58
I1
sg59
F0.2
sg60
g61
sg64
I15
sa(dp1815
g4
I20
sg5
F0.3
sg6
F0.2
sg7
F0.05
sg8
F0.4
sg9
I8
sg10
I8
sg11
F0.95
sg12
I6
sg13
F0.4
sg14
I64
sg15
F0.15
sg16
I0
sg17
I2
sg18
F1.2
sg19
F0.125
sg20
F0.9
sg21
I1
sg22
I11
sg23
I-1
sg24
I512
sg25
F0.8
sg26
I1024
sg27
F0.125
sg28
g29
(g33
S'333333\xc3?'
p1816
tp1817
Rp1818
sg39
F0.5
sg40
I2
sg41
F0.1
sg42
F0.1
sg43
F0.4
sg44
I6
sg45
I12
sg46
g29
(g33
S'\xb8\x1e\x85\xebQ\xb8\xbe?'
p1819
tp1820
Rp1821
sg50
I1
sg51
I1
sg52
g53
sg54
I10
sg55
F0.1225
sg56
I1
sg57
I-1
sg58
I1
sg59
F0.2
sg60
g61
sg64
I15
sa(dp1822
g4
I20
sg5
F0.3
sg6
F0.2
sg7
F0.05
sg8
F0.4
sg9
I8
sg10
I8
sg11
F0.95
sg12
I6
sg13
F0.4
sg14
I64
sg15
F0.15
sg16
I0
sg17
I2
sg18
F1.2
sg19
F0.125
sg20
F0.9
sg21
I1
sg22
I12
sg23
I-1
sg24
I512
sg25
F0.8
sg26
I1024
sg27
F0.125
sg28
g29
(g33
S'\xb8\x1e\x85\xebQ\xb8\xae\xbf'
p1823
tp1824
Rp1825
sg39
F0.5
sg40
I2
sg41
F0.1
sg42
F0.1
sg43
F0.4
sg44
I6
sg45
I12
sg46
g29
(g33
S'333333\xc3\xbf'
p1826
tp1827
Rp1828
sg50
I1
sg51
I1
sg52
g53
sg54
I10
sg55
F0.1225
sg56
I1
sg57
I-1
sg58
I1
sg59
F0.2
sg60
g61
sg64
I15
sa(dp1829
g4
I20
sg5
F0.3
sg6
F0.2
sg7
F0.05
sg8
F0.4
sg9
I8
sg10
I8
sg11
F0.95
sg12
I6
sg13
F0.4
sg14
I64
sg15
F0.15
sg16
I0
sg17
I2
sg18
F1.2
sg19
F0.125
sg20
F0.9
sg21
I1
sg22
I13
sg23
I-1
sg24
I512
sg25
F0.8
sg26
I1024
sg27
F0.125
sg28
g29
(g33
S'\n\xd7\xa3p=\n\xb7\xbf'
p1830
tp1831
Rp1832
sg39
F0.5
sg40
I2
sg41
F0.1
sg42
F0.1
sg43
F0.4
sg44
I6
sg45
I12
sg46
g29
(g33
S'\xb8\x1e\x85\xebQ\xb8\xbe?'
p1833
tp1834
Rp1835
sg50
I1
sg51
I1
sg52
g53
sg54
I10
sg55
F0.1225
sg56
I1
sg57
I-1
sg58
I1
sg59
F0.2
sg60
g61
sg64
I15
sa(dp1836
g4
I20
sg5
F0.3
sg6
F0.2
sg7
F0.05
sg8
F0.4
sg9
I8
sg10
I8
sg11
F0.95
sg12
I6
sg13
F0.4
sg14
I64
sg15
F0.15
sg16
I0
sg17
I2
sg18
F1.2
sg19
F0.125
sg20
F0.9
sg21
I1
sg22
I14
sg23
I-1
sg24
I512
sg25
F0.8
sg26
I1024
sg27
F0.125
sg28
g29
(g33
S'\n\xd7\xa3p=\n\xb7\xbf'
p1837
tp1838
Rp1839
sg39
F0.5
sg40
I2
sg41
F0.1
sg42
F0.1
sg43
F0.4
sg44
I6
sg45
I12
sg46
g29
(g33
S'\xb8\x1e\x85\xebQ\xb8\x9e?'
p1840
tp1841
Rp1842
sg50
I1
sg51
I1
sg52
g53
sg54
I10
sg55
F0.1225
sg56
I1
sg57
I-1
sg58
I1
sg59
F0.2
sg60
g61
sg64
I15
sa(dp1843
g4
I20
sg5
F0.3
sg6
F0.2
sg7
F0.05
sg8
F0.4
sg9
I8
sg10
I8
sg11
F0.95
sg12
I6
sg13
F0.4
sg14
I64
sg15
F0.15
sg16
I0
sg17
I2
sg18
F1.2
sg19
F0.125
sg20
F0.9
sg21
I1
sg22
I15
sg23
I-1
sg24
I512
sg25
F0.8
sg26
I1024
sg27
F0.125
sg28
g29
(g33
S'\xb8\x1e\x85\xebQ\xb8\xae?'
p1844
tp1845
Rp1846
sg39
F0.5
sg40
I2
sg41
F0.1
sg42
F0.1
sg43
F0.4
sg44
I6
sg45
I12
sg46
g29
(g33
S'\xb8\x1e\x85\xebQ\xb8\x9e?'
p1847
tp1848
Rp1849
sg50
I1
sg51
I1
sg52
g53
sg54
I10
sg55
F0.1225
sg56
I1
sg57
I-1
sg58
I1
sg59
F0.2
sg60
g61
sg64
I15
sa(dp1850
g4
I20
sg5
F0.3
sg6
F0.2
sg7
F0.05
sg8
F0.4
sg9
I8
sg10
I8
sg11
F0.95
sg12
I6
sg13
F0.4
sg14
I64
sg15
F0.15
sg16
I0
sg17
I2
sg18
F1.2
sg19
F0.125
sg20
F0.9
sg21
I1
sg22
I16
sg23
I-1
sg24
I512
sg25
F0.8
sg26
I1024
sg27
F0.125
sg28
g29
(g33
S'\xb8\x1e\x85\xebQ\xb8\xbe?'
p1851
tp1852
Rp1853
sg39
F0.5
sg40
I2
sg41
F0.1
sg42
F0.1
sg43
F0.4
sg44
I6
sg45
I12
sg46
g29
(g33
S'333333\xc3?'
p1854
tp1855
Rp1856
sg50
I1
sg51
I1
sg52
g53
sg54
I10
sg55
F0.1225
sg56
I1
sg57
I-1
sg58
I1
sg59
F0.2
sg60
g61
sg64
I15
sa(dp1857
g4
I20
sg5
F0.3
sg6
F0.2
sg7
F0.05
sg8
F0.4
sg9
I8
sg10
I8
sg11
F0.95
sg12
I6
sg13
F0.4
sg14
I64
sg15
F0.15
sg16
I0
sg17
I2
sg18
F1.2
sg19
F0.125
sg20
F0.9
sg21
I1
sg22
I17
sg23
I-1
sg24
I512
sg25
F0.8
sg26
I1024
sg27
F0.125
sg28
g29
(g33
S'\xb8\x1e\x85\xebQ\xb8\xbe?'
p1858
tp1859
Rp1860
sg39
F0.5
sg40
I2
sg41
F0.1
sg42
F0.1
sg43
F0.4
sg44
I6
sg45
I12
sg46
g29
(g33
S'\xb8\x1e\x85\xebQ\xb8\xbe?'
p1861
tp1862
Rp1863
sg50
I1
sg51
I1
sg52
g53
sg54
I10
sg55
F0.1225
sg56
I1
sg57
I-1
sg58
I1
sg59
F0.2
sg60
g61
sg64
I15
sa(dp1864
g4
I20
sg5
F0.3
sg6
F0.2
sg7
F0.05
sg8
F0.4
sg9
I8
sg10
I8
sg11
F0.95
sg12
I6
sg13
F0.4
sg14
I64
sg15
F0.15
sg16
I0
sg17
I2
sg18
F1.2
sg19
F0.125
sg20
F0.9
sg21
I1
sg22
I18
sg23
I-1
sg24
I512
sg25
F0.8
sg26
I1024
sg27
F0.125
sg28
g29
(g33
S'\n\xd7\xa3p=\n\xb7?'
p1865
tp1866
Rp1867
sg39
F0.5
sg40
I2
sg41
F0.1
sg42
F0.1
sg43
F0.4
sg44
I6
sg45
I12
sg46
g29
(g33
S'\n\xd7\xa3p=\n\xb7?'
p1868
tp1869
Rp1870
sg50
I1
sg51
I1
sg52
g53
sg54
I10
sg55
F0.1225
sg56
I1
sg57
I-1
sg58
I1
sg59
F0.2
sg60
g61
sg64
I15
sa(dp1871
g4
I20
sg5
F0.3
sg6
F0.2
sg7
F0.05
sg8
F0.4
sg9
I8
sg10
I8
sg11
F0.95
sg12
I6
sg13
F0.4
sg14
I64
sg15
F0.15
sg16
I0
sg17
I2
sg18
F1.2
sg19
F0.125
sg20
F0.9
sg21
I1
sg22
I19
sg23
I-1
sg24
I512
sg25
F0.8
sg26
I1024
sg27
F0.125
sg28
g29
(g33
S'333333\xc3\xbf'
p1872
tp1873
Rp1874
sg39
F0.5
sg40
I2
sg41
F0.1
sg42
F0.1
sg43
F0.4
sg44
I6
sg45
I12
sg46
g29
(g33
S'333333\xc3?'
p1875
tp1876
Rp1877
sg50
I1
sg51
I1
sg52
g53
sg54
I10
sg55
F0.1225
sg56
I1
sg57
I-1
sg58
I1
sg59
F0.2
sg60
g61
sg64
I15
sasS'eventArray'
p1878
(lp1879
(lp1880
S'trial 0 started at 7.12229013443'
p1881
aS'trial 0 phase 1 started at 8.9263241291'
p1882
aS'trial 0 event t at 8.92639422417'
p1883
aS'trial 0 phase 2 started at 9.41035723686'
p1884
aS'trial 0 phase 3 started at 9.61039018631'
p1885
aa(lp1886
S'trial 1 started at 10.175339222'
p1887
aS'trial 1 phase 1 started at 10.2770562172'
p1888
aS'trial 1 phase 2 started at 10.7770841122'
p1889
aS'trial 1 phase 3 started at 10.9853880405'
p1890
aa(lp1891
S'trial 2 started at 11.5564801693'
p1892
aS'trial 2 phase 1 started at 11.6604790688'
p1893
aS'trial 2 phase 2 started at 12.1605060101'
p1894
aS'trial 2 phase 3 started at 12.3688831329'
p1895
aa(lp1896
S'trial 3 started at 12.9400210381'
p1897
aS'trial 3 phase 1 started at 13.0438141823'
p1898
aS'trial 3 phase 2 started at 13.5439920425'
p1899
aS'trial 3 phase 3 started at 13.7522361279'
p1900
aa(lp1901
S'trial 4 started at 14.3188872337'
p1902
aS'trial 4 phase 1 started at 14.4189991951'
p1903
aS'trial 4 phase 2 started at 14.9272351265'
p1904
aS'trial 4 phase 3 started at 15.127256155'
p1905
aa(lp1906
S'trial 5 started at 15.6917910576'
p1907
aS'trial 5 phase 1 started at 15.7940340042'
p1908
aS'trial 5 phase 2 started at 16.302355051'
p1909
aS'trial 5 phase 3 started at 16.5106201172'
p1910
aa(lp1911
S'trial 6 started at 17.0824861526'
p1912
aS'trial 6 phase 1 started at 17.1857140064'
p1913
aS'trial 6 phase 2 started at 17.6857981682'
p1914
aS'trial 6 phase 3 started at 17.8941321373'
p1915
aa(lp1916
S'trial 7 started at 18.4553911686'
p1917
aS'trial 7 phase 1 started at 18.5608232021'
p1918
aS'trial 7 phase 2 started at 19.069217205'
p1919
aS'trial 7 phase 3 started at 19.2774710655'
p1920
aa(lp1921
S'trial 8 started at 19.8316800594'
p1922
aS'trial 8 phase 1 started at 19.9356920719'
p1923
aS'trial 8 phase 2 started at 20.4359071255'
p1924
aS'trial 8 phase 3 started at 20.6359210014'
p1925
aa(lp1926
S'trial 9 started at 21.207873106'
p1927
aS'trial 9 phase 1 started at 21.3109941483'
p1928
aS'trial 9 phase 2 started at 21.819257021'
p1929
aS'trial 9 phase 3 started at 22.0275430679'
p1930
aa(lp1931
S'trial 10 started at 22.5890991688'
p1932
aS'trial 10 phase 1 started at 22.6943101883'
p1933
aS'trial 10 phase 2 started at 23.1943621635'
p1934
aS'trial 10 phase 3 started at 23.3944292068'
p1935
aa(lp1936
S'trial 11 started at 23.9571490288'
p1937
aS'trial 11 phase 1 started at 24.0610501766'
p1938
aS'trial 11 phase 2 started at 24.561093092'
p1939
aS'trial 11 phase 3 started at 24.7611591816'
p1940
aa(lp1941
S'trial 12 started at 25.3325772285'
p1942
aS'trial 12 phase 1 started at 25.4360342026'
p1943
aS'trial 12 phase 2 started at 25.9362051487'
p1944
aS'trial 12 phase 3 started at 26.1444730759'
p1945
aa(lp1946
S'trial 13 started at 26.7073690891'
p1947
aS'trial 13 phase 1 started at 26.8111650944'
p1948
aS'trial 13 phase 2 started at 27.3112490177'
p1949
aS'trial 13 phase 3 started at 27.5194780827'
p1950
aa(lp1951
S'trial 14 started at 28.0742490292'
p1952
aS'trial 14 phase 1 started at 28.1779711246'
p1953
aS'trial 14 phase 2 started at 28.6862130165'
p1954
aS'trial 14 phase 3 started at 28.8862531185'
p1955
aa(lp1956
S'trial 15 started at 29.4422910213'
p1957
aS'trial 15 phase 1 started at 29.5446171761'
p1958
aS'trial 15 phase 2 started at 30.0446751118'
p1959
aS'trial 15 phase 3 started at 30.2528991699'
p1960
aa(lp1961
S'trial 16 started at 30.8168170452'
p1962
aS'trial 16 phase 1 started at 30.9198012352'
p1963
aS'trial 16 phase 2 started at 31.4280982018'
p1964
aS'trial 16 phase 3 started at 31.6363501549'
p1965
aa(lp1966
S'trial 17 started at 32.1995692253'
p1967
aS'trial 17 phase 1 started at 32.3030891418'
p1968
aS'trial 17 phase 2 started at 32.803153038'
p1969
aS'trial 17 phase 3 started at 33.0031599998'
p1970
aa(lp1971
S'trial 18 started at 33.5628840923'
p1972
aS'trial 18 phase 1 started at 33.6697711945'
p1973
aS'trial 18 phase 2 started at 34.1781420708'
p1974
aS'trial 18 phase 3 started at 34.3864691257'
p1975
aa(lp1976
S'trial 19 started at 34.9523172379'
p1977
aS'trial 19 phase 1 started at 35.0531680584'
p1978
aS'trial 19 phase 2 started at 35.553260088'
p1979
aS'trial 19 phase 3 started at 35.7616081238'
p1980
aa(lp1981
S'trial 20 started at 36.3264930248'
p1982
aS'trial 20 phase 1 started at 36.4282281399'
p1983
aS'trial 20 phase 2 started at 36.9283351898'
p1984
aS'trial 20 phase 3 started at 37.1283562183'
p1985
aa(lp1986
S'trial 21 started at 37.6919131279'
p1987
aS'trial 21 phase 1 started at 37.7948992252'
p1988
aS'trial 21 phase 2 started at 38.2950720787'
p1989
aS'trial 21 phase 3 started at 38.4951081276'
p1990
aa(lp1991
S'trial 22 started at 39.0678591728'
p1992
aS'trial 22 phase 1 started at 39.1701931953'
p1993
aS'trial 22 phase 2 started at 39.6783840656'
p1994
aS'trial 22 phase 3 started at 39.8784461021'
p1995
aa(lp1996
S'trial 23 started at 40.449119091'
p1997
aS'trial 23 phase 1 started at 40.5534920692'
p1998
aS'trial 23 phase 2 started at 41.0617530346'
p1999
aS'trial 23 phase 3 started at 41.2700970173'
p2000
aa(lp2001
S'trial 24 started at 41.8191452026'
p2002
aS'trial 24 phase 1 started at 41.9201641083'
p2003
aS'trial 24 phase 2 started at 42.4202580452'
p2004
aS'trial 24 phase 3 started at 42.6285572052'
p2005
aa(lp2006
S'trial 25 started at 43.1932580471'
p2007
aS'trial 25 phase 1 started at 43.2952401638'
p2008
aS'trial 25 phase 2 started at 43.7952702045'
p2009
aS'trial 25 phase 3 started at 43.9953560829'
p2010
aa(lp2011
S'trial 26 started at 44.5679991245'
p2012
aS'trial 26 phase 1 started at 44.6703071594'
p2013
aS'trial 26 phase 2 started at 45.1703372002'
p2014
aS'trial 26 phase 3 started at 45.3703951836'
p2015
aa(lp2016
S'trial 27 started at 45.933478117'
p2017
aS'trial 27 phase 1 started at 46.0370311737'
p2018
aS'trial 27 phase 2 started at 46.5370790958'
p2019
aS'trial 27 phase 3 started at 46.7453091145'
p2020
aa(lp2021
S'trial 28 started at 47.3003492355'
p2022
aS'trial 28 phase 1 started at 47.4037702084'
p2023
aS'trial 28 phase 2 started at 47.9038021564'
p2024
aS'trial 28 phase 3 started at 48.1038091183'
p2025
aa(lp2026
S'trial 29 started at 48.6667871475'
p2027
aS'trial 29 phase 1 started at 48.7705001831'
p2028
aS'trial 29 phase 2 started at 49.2705831528'
p2029
aS'trial 29 phase 3 started at 49.4706580639'
p2030
aa(lp2031
S'trial 30 started at 50.0360741615'
p2032
aS'trial 30 phase 1 started at 50.1372392178'
p2033
aS'trial 30 phase 2 started at 50.6455850601'
p2034
aS'trial 30 phase 3 started at 50.8455882072'
p2035
aa(lp2036
S'trial 31 started at 51.4169540405'
p2037
aS'trial 31 phase 1 started at 51.5206391811'
p2038
aS'trial 31 phase 2 started at 52.0206680298'
p2039
aS'trial 31 phase 3 started at 52.220719099'
p2040
aa(lp2041
S'trial 32 started at 52.7841181755'
p2042
aS'trial 32 phase 1 started at 52.88737607'
p2043
aS'trial 32 phase 2 started at 53.3874180317'
p2044
aS'trial 32 phase 3 started at 53.5957760811'
p2045
aa(lp2046
S'trial 33 started at 54.1553452015'
p2047
aS'trial 33 phase 1 started at 54.2623791695'
p2048
aS'trial 33 phase 2 started at 54.7624590397'
p2049
aS'trial 33 phase 3 started at 54.9626560211'
p2050
aa(lp2051
S'trial 34 started at 55.5337231159'
p2052
aS'trial 34 phase 1 started at 55.6375911236'
p2053
aS'trial 34 phase 2 started at 56.1458342075'
p2054
aS'trial 34 phase 3 started at 56.3542191982'
p2055
aa(lp2056
S'trial 35 started at 56.9272480011'
p2057
aS'trial 35 phase 1 started at 57.0292441845'
p2058
aS'trial 35 phase 2 started at 57.5292551517'
p2059
aS'trial 35 phase 3 started at 57.7375400066'
p2060
aa(lp2061
S'trial 36 started at 58.3004071712'
p2062
aS'trial 36 phase 1 started at 58.4042651653'
p2063
aS'trial 36 phase 2 started at 58.9042780399'
p2064
aS'trial 36 phase 3 started at 59.1043012142'
p2065
aa(lp2066
S'trial 37 started at 59.6655540466'
p2067
aS'trial 37 phase 1 started at 59.7710311413'
p2068
aS'trial 37 phase 2 started at 60.2793710232'
p2069
aS'trial 37 phase 3 started at 60.4876430035'
p2070
aa(lp2071
S'trial 38 started at 61.0507512093'
p2072
aS'trial 38 phase 1 started at 61.1544401646'
p2073
aS'trial 38 phase 2 started at 61.6544752121'
p2074
aS'trial 38 phase 3 started at 61.8627891541'
p2075
aa(lp2076
S'trial 39 started at 62.4342651367'
p2077
aS'trial 39 phase 1 started at 62.5377311707'
p2078
aS'trial 39 phase 2 started at 63.0379052162'
p2079
aS'trial 39 phase 3 started at 63.2379140854'
p2080
aa(lp2081
S'trial 40 started at 63.8162631989'
p2082
aS'trial 40 phase 1 started at 63.9211502075'
p2083
aS'trial 40 phase 2 started at 64.4295330048'
p2084
aS'trial 40 phase 3 started at 64.6296980381'
p2085
aa(lp2086
S'trial 41 started at 65.2017450333'
p2087
aS'trial 41 phase 1 started at 65.3046300411'
p2088
aS'trial 41 phase 2 started at 65.8129191399'
p2089
aS'trial 41 phase 3 started at 66.0212330818'
p2090
aa(lp2091
S'trial 42 started at 66.5711171627'
p2092
aS'trial 42 phase 1 started at 66.6714630127'
p2093
aS'trial 42 phase 2 started at 67.179708004'
p2094
aS'trial 42 phase 3 started at 67.3797121048'
p2095
aa(lp2096
S'trial 43 started at 67.9320921898'
p2097
aS'trial 43 phase 1 started at 68.0380342007'
p2098
aS'trial 43 phase 2 started at 68.5381081104'
p2099
aS'trial 43 phase 3 started at 68.7464752197'
p2100
aa(lp2101
S'trial 44 started at 69.3098101616'
p2102
aS'trial 44 phase 1 started at 69.4133791924'
p2103
aS'trial 44 phase 2 started at 69.9213850498'
p2104
aS'trial 44 phase 3 started at 70.1215670109'
p2105
aa(lp2106
S'trial 45 started at 70.6828792095'
p2107
aS'trial 45 phase 1 started at 70.7882180214'
p2108
aS'trial 45 phase 2 started at 71.2966411114'
p2109
aS'trial 45 phase 3 started at 71.5049211979'
p2110
aa(lp2111
S'trial 46 started at 72.0674152374'
p2112
aS'trial 46 phase 1 started at 72.171610117'
p2113
aS'trial 46 phase 2 started at 72.6716611385'
p2114
aS'trial 46 phase 3 started at 72.8800370693'
p2115
aa(lp2116
S'trial 47 started at 73.4501330853'
p2117
aS'trial 47 phase 1 started at 73.5549230576'
p2118
aS'trial 47 phase 2 started at 74.0549380779'
p2119
aS'trial 47 phase 3 started at 74.2551071644'
p2120
aa(lp2121
S'trial 48 started at 74.8251571655'
p2122
aS'trial 48 phase 1 started at 74.9300050735'
p2123
aS'trial 48 phase 2 started at 75.4300231934'
p2124
aS'trial 48 phase 3 started at 75.6300830841'
p2125
aa(lp2126
S'trial 49 started at 76.202324152'
p2127
aS'trial 49 phase 1 started at 76.3050861359'
p2128
aS'trial 49 phase 2 started at 76.8051741123'
p2129
aS'trial 49 phase 3 started at 77.0134510994'
p2130
aa(lp2131
S'trial 50 started at 77.5738370419'
p2132
aS'trial 50 phase 1 started at 77.6801521778'
p2133
aS'trial 50 phase 2 started at 78.1885941029'
p2134
aS'trial 50 phase 3 started at 78.3969721794'
p2135
aa(lp2136
S'trial 51 started at 78.9690811634'
p2137
aS'trial 51 phase 1 started at 79.0719461441'
p2138
aS'trial 51 phase 2 started at 79.5802640915'
p2139
aS'trial 51 phase 3 started at 79.788531065'
p2140
aa(lp2141
S'trial 52 started at 80.351624012'
p2142
aS'trial 52 phase 1 started at 80.455270052'
p2143
aS'trial 52 phase 2 started at 80.9553060532'
p2144
aS'trial 52 phase 3 started at 81.1636080742'
p2145
aa(lp2146
S'trial 53 started at 81.7162070274'
p2147
aS'trial 53 phase 1 started at 81.8220031261'
p2148
aS'trial 53 phase 2 started at 82.3304820061'
p2149
aS'trial 53 phase 3 started at 82.5387020111'
p2150
aa(lp2151
S'trial 54 started at 83.1107771397'
p2152
aS'trial 54 phase 1 started at 83.2136240005'
p2153
aS'trial 54 phase 2 started at 83.7137942314'
p2154
aS'trial 54 phase 3 started at 83.922052145'
p2155
aa(lp2156
S'trial 55 started at 84.4889810085'
p2157
aS'trial 55 phase 1 started at 84.5971431732'
p2158
aS'trial 55 phase 2 started at 85.1053891182'
p2159
aS'trial 55 phase 3 started at 85.3054671288'
p2160
aa(lp2161
S'trial 56 started at 85.8688671589'
p2162
aS'trial 56 phase 1 started at 85.9722812176'
p2163
aS'trial 56 phase 2 started at 86.4806370735'
p2164
aS'trial 56 phase 3 started at 86.6889221668'
p2165
aa(lp2166
S'trial 57 started at 87.2615230083'
p2167
aS'trial 57 phase 1 started at 87.3656420708'
p2168
aS'trial 57 phase 2 started at 87.8725762367'
p2169
aS'trial 57 phase 3 started at 88.0806581974'
p2170
aa(lp2171
S'trial 58 started at 88.6387331486'
p2172
aS'trial 58 phase 1 started at 88.7389550209'
p2173
aS'trial 58 phase 2 started at 89.24725914'
p2174
aS'trial 58 phase 3 started at 89.4474401474'
p2175
aa(lp2176
S'trial 59 started at 90.0103621483'
p2177
aS'trial 59 phase 1 started at 90.113972187'
p2178
aS'trial 59 phase 2 started at 90.6140530109'
p2179
aS'trial 59 phase 3 started at 90.8141272068'
p2180
aa(lp2181
S'trial 60 started at 91.3863170147'
p2182
aS'trial 60 phase 1 started at 91.4891531467'
p2183
aS'trial 60 phase 2 started at 91.9975001812'
p2184
aS'trial 60 phase 3 started at 92.2058310509'
p2185
aa(lp2186
S'trial 61 started at 92.7768080235'
p2187
aS'trial 61 phase 1 started at 92.8807911873'
p2188
aS'trial 61 phase 2 started at 93.3809170723'
p2189
aS'trial 61 phase 3 started at 93.5892441273'
p2190
aa(lp2191
S'trial 62 started at 94.1479351521'
p2192
aS'trial 62 phase 1 started at 94.2558732033'
p2193
aS'trial 62 phase 2 started at 94.755877018'
p2194
aS'trial 62 phase 3 started at 94.9644141197'
p2195
aa(lp2196
S'trial 63 started at 95.530821085'
p2197
aS'trial 63 phase 1 started at 95.6310501099'
p2198
aS'trial 63 phase 2 started at 96.1393301487'
p2199
aS'trial 63 phase 3 started at 96.3476672173'
p2200
aa(lp2201
S'trial 64 started at 96.8974421024'
p2202
aS'trial 64 phase 1 started at 96.9977521896'
p2203
aS'trial 64 phase 2 started at 97.5061202049'
p2204
aS'trial 64 phase 3 started at 97.7143950462'
p2205
aa(lp2206
S'trial 65 started at 98.2642321587'
p2207
aS'trial 65 phase 1 started at 98.364372015'
p2208
aS'trial 65 phase 2 started at 98.8644502163'
p2209
aS'trial 65 phase 3 started at 99.06448102'
p2210
aa(lp2211
S'trial 66 started at 99.6177880764'
p2212
aS'trial 66 phase 1 started at 99.7228050232'
p2213
aS'trial 66 phase 2 started at 100.222839117'
p2214
aS'trial 66 phase 3 started at 100.422838211'
p2215
aa(lp2216
S'trial 67 started at 100.972865105'
p2217
aS'trial 67 phase 1 started at 101.072908163'
p2218
aS'trial 67 phase 2 started at 101.572967052'
p2219
aS'trial 67 phase 3 started at 101.773005009'
p2220
aa(lp2221
S'trial 68 started at 102.331130028'
p2222
aS'trial 68 phase 1 started at 102.431243181'
p2223
aS'trial 68 phase 2 started at 102.931321144'
p2224
aS'trial 68 phase 3 started at 103.13133502'
p2225
aa(lp2226
S'trial 69 started at 103.681267023'
p2227
aS'trial 69 phase 1 started at 103.781364202'
p2228
aS'trial 69 phase 2 started at 104.28967905'
p2229
aS'trial 69 phase 3 started at 104.49802804'
p2230
aa(lp2231
S'trial 70 started at 105.049139023'
p2232
aS'trial 70 phase 1 started at 105.156401157'
p2233
aS'trial 70 phase 2 started at 105.656427145'
p2234
aS'trial 70 phase 3 started at 105.85644412'
p2235
aa(lp2236
S'trial 71 started at 106.416245222'
p2237
aS'trial 71 phase 1 started at 106.523143053'
p2238
aS'trial 71 phase 2 started at 107.023232222'
p2239
aS'trial 71 phase 3 started at 107.231537104'
p2240
aa(lp2241
S'trial 72 started at 107.780554056'
p2242
aS'trial 72 phase 1 started at 107.881440163'
p2243
aS'trial 72 phase 2 started at 108.381554127'
p2244
aS'trial 72 phase 3 started at 108.581581116'
p2245
aa(lp2246
S'trial 73 started at 109.131199121'
p2247
aS'trial 73 phase 1 started at 109.231645107'
p2248
aS'trial 73 phase 2 started at 109.739937067'
p2249
aS'trial 73 phase 3 started at 109.948253155'
p2250
aa(lp2251
S'trial 74 started at 110.499371052'
p2252
aS'trial 74 phase 1 started at 110.606721163'
p2253
aS'trial 74 phase 2 started at 111.10672617'
p2254
aS'trial 74 phase 3 started at 111.314934015'
p2255
aa(lp2256
S'trial 75 started at 111.865144014'
p2257
aS'trial 75 phase 1 started at 111.973359108'
p2258
aS'trial 75 phase 2 started at 112.47340703'
p2259
aS'trial 75 phase 3 started at 112.673485041'
p2260
aa(lp2261
S'trial 76 started at 113.230149031'
p2262
aS'trial 76 phase 1 started at 113.331708193'
p2263
aS'trial 76 phase 2 started at 113.831741095'
p2264
aS'trial 76 phase 3 started at 114.031778097'
p2265
aa(lp2266
S'trial 77 started at 114.581978083'
p2267
aS'trial 77 phase 1 started at 114.690160036'
p2268
aS'trial 77 phase 2 started at 115.19021821'
p2269
aS'trial 77 phase 3 started at 115.398519039'
p2270
aa(lp2271
S'trial 78 started at 115.948166132'
p2272
aS'trial 78 phase 1 started at 116.048627138'
p2273
aS'trial 78 phase 2 started at 116.556942225'
p2274
aS'trial 78 phase 3 started at 116.765296221'
p2275
aa(lp2276
S'trial 79 started at 117.324286222'
p2277
aS'trial 79 phase 1 started at 117.431997061'
p2278
aS'trial 79 phase 2 started at 117.940336227'
p2279
aS'trial 79 phase 3 started at 118.140377045'
p2280
aa(lp2281
S'trial 80 started at 118.691883087'
p2282
aS'trial 80 phase 1 started at 118.798666'
p2283
aS'trial 80 phase 2 started at 119.298763037'
p2284
aS'trial 80 phase 3 started at 119.507047176'
p2285
aa(lp2286
S'trial 81 started at 120.056983232'
p2287
aS'trial 81 phase 1 started at 120.157143116'
p2288
aS'trial 81 phase 2 started at 120.665415049'
p2289
aS'trial 81 phase 3 started at 120.865460157'
p2290
aa(lp2291
S'trial 82 started at 121.416410208'
p2292
aS'trial 82 phase 1 started at 121.523789167'
p2293
aS'trial 82 phase 2 started at 122.02386117'
p2294
aS'trial 82 phase 3 started at 122.223895073'
p2295
aa(lp2296
S'trial 83 started at 122.781912088'
p2297
aS'trial 83 phase 1 started at 122.882271051'
p2298
aS'trial 83 phase 2 started at 123.390577078'
p2299
aS'trial 83 phase 3 started at 123.598868132'
p2300
aa(lp2301
S'trial 84 started at 124.149010181'
p2302
aS'trial 84 phase 1 started at 124.257230043'
p2303
aS'trial 84 phase 2 started at 124.757272005'
p2304
aS'trial 84 phase 3 started at 124.957303047'
p2305
aa(lp2306
S'trial 85 started at 125.507191181'
p2307
aS'trial 85 phase 1 started at 125.607390165'
p2308
aS'trial 85 phase 2 started at 126.115781069'
p2309
aS'trial 85 phase 3 started at 126.324112177'
p2310
aa(lp2311
S'trial 86 started at 126.883558035'
p2312
aS'trial 86 phase 1 started at 126.990701199'
p2313
aS'trial 86 phase 2 started at 127.490729094'
p2314
aS'trial 86 phase 3 started at 127.69911623'
p2315
aa(lp2316
S'trial 87 started at 128.248957157'
p2317
aS'trial 87 phase 1 started at 128.350705147'
p2318
aS'trial 87 phase 2 started at 128.857435226'
p2319
aS'trial 87 phase 3 started at 129.057459116'
p2320
aa(lp2321
S'trial 88 started at 129.608185053'
p2322
aS'trial 88 phase 1 started at 129.715882063'
p2323
aS'trial 88 phase 2 started at 130.215929031'
p2324
aS'trial 88 phase 3 started at 130.424250126'
p2325
aa(lp2326
S'trial 89 started at 130.982585192'
p2327
aS'trial 89 phase 1 started at 131.090900183'
p2328
aS'trial 89 phase 2 started at 131.590967178'
p2329
aS'trial 89 phase 3 started at 131.79938221'
p2330
aa(lp2331
S'trial 90 started at 132.350844145'
p2332
aS'trial 90 phase 1 started at 132.457638025'
p2333
aS'trial 90 phase 2 started at 132.957660198'
p2334
aS'trial 90 phase 3 started at 133.157699108'
p2335
aa(lp2336
S'trial 91 started at 133.706587076'
p2337
aS'trial 91 phase 1 started at 133.807751179'
p2338
aS'trial 91 phase 2 started at 134.307770014'
p2339
aS'trial 91 phase 3 started at 134.516085148'
p2340
aa(lp2341
S'trial 92 started at 135.077549219'
p2342
aS'trial 92 phase 1 started at 135.182874203'
p2343
aS'trial 92 phase 2 started at 135.682878017'
p2344
aS'trial 92 phase 3 started at 135.891137123'
p2345
aa(lp2346
S'trial 93 started at 136.442713022'
p2347
aS'trial 93 phase 1 started at 136.549524069'
p2348
aS'trial 93 phase 2 started at 137.049630165'
p2349
aS'trial 93 phase 3 started at 137.25794816'
p2350
aa(lp2351
S'trial 94 started at 137.82024622'
p2352
aS'trial 94 phase 1 started at 137.924603224'
p2353
aS'trial 94 phase 2 started at 138.432903051'
p2354
aS'trial 94 phase 3 started at 138.632917166'
p2355
aa(lp2356
S'trial 95 started at 139.184353113'
p2357
aS'trial 95 phase 1 started at 139.2913661'
p2358
aS'trial 95 phase 2 started at 139.799653053'
p2359
aS'trial 95 phase 3 started at 139.999704123'
p2360
aa(lp2361
S'trial 96 started at 140.560877085'
p2362
aS'trial 96 phase 1 started at 140.666314125'
p2363
aS'trial 96 phase 2 started at 141.166407108'
p2364
aS'trial 96 phase 3 started at 141.374790192'
p2365
aa(lp2366
S'trial 97 started at 141.931969166'
p2367
aS'trial 97 phase 1 started at 142.033004045'
p2368
aS'trial 97 phase 2 started at 142.533028126'
p2369
aS'trial 97 phase 3 started at 142.73312521'
p2370
aa(lp2371
S'trial 98 started at 143.284956217'
p2372
aS'trial 98 phase 1 started at 143.391514063'
p2373
aS'trial 98 phase 2 started at 143.899917126'
p2374
aS'trial 98 phase 3 started at 144.1082232'
p2375
aa(lp2376
S'trial 99 started at 144.671270132'
p2377
aS'trial 99 phase 1 started at 144.774937153'
p2378
aS'trial 99 phase 2 started at 145.283291101'
p2379
aS'trial 99 phase 3 started at 145.491519213'
p2380
aa(lp2381
S'trial 100 started at 146.040523052'
p2382
aS'trial 100 phase 1 started at 146.141587019'
p2383
aS'trial 100 phase 2 started at 146.641616106'
p2384
aS'trial 100 phase 3 started at 146.841670036'
p2385
aa(lp2386
S'trial 101 started at 147.39897418'
p2387
aS'trial 101 phase 1 started at 147.500049114'
p2388
aS'trial 101 phase 2 started at 148.000054121'
p2389
aS'trial 101 phase 3 started at 148.200078011'
p2390
aa(lp2391
S'trial 102 started at 148.752096176'
p2392
aS'trial 102 phase 1 started at 148.858412027'
p2393
aS'trial 102 phase 2 started at 149.358483076'
p2394
aS'trial 102 phase 3 started at 149.566703081'
p2395
aa(lp2396
S'trial 103 started at 150.117051125'
p2397
aS'trial 103 phase 1 started at 150.22512722'
p2398
aS'trial 103 phase 2 started at 150.725223064'
p2399
aS'trial 103 phase 3 started at 150.925233126'
p2400
aa(lp2401
S'trial 104 started at 151.483247042'
p2402
aS'trial 104 phase 1 started at 151.583466053'
p2403
aS'trial 104 phase 2 started at 152.083591223'
p2404
aS'trial 104 phase 3 started at 152.291880131'
p2405
aa(lp2406
S'trial 105 started at 152.84850812'
p2407
aS'trial 105 phase 1 started at 152.950270176'
p2408
aS'trial 105 phase 2 started at 153.458568096'
p2409
aS'trial 105 phase 3 started at 153.658649206'
p2410
aa(lp2411
S'trial 106 started at 154.21691823'
p2412
aS'trial 106 phase 1 started at 154.317069054'
p2413
aS'trial 106 phase 2 started at 154.825297117'
p2414
aS'trial 106 phase 3 started at 155.025529146'
p2415
aa(lp2416
S'trial 107 started at 155.589659214'
p2417
aS'trial 107 phase 1 started at 155.692072153'
p2418
aS'trial 107 phase 2 started at 156.192109108'
p2419
aS'trial 107 phase 3 started at 156.392145157'
p2420
aa(lp2421
S'trial 108 started at 156.941799164'
p2422
aS'trial 108 phase 1 started at 157.042029142'
p2423
aS'trial 108 phase 2 started at 157.542084217'
p2424
aS'trial 108 phase 3 started at 157.742167234'
p2425
aa(lp2426
S'trial 109 started at 158.292816162'
p2427
aS'trial 109 phase 1 started at 158.400578022'
p2428
aS'trial 109 phase 2 started at 158.908874035'
p2429
aS'trial 109 phase 3 started at 159.117253065'
p2430
aa(lp2431
S'trial 110 started at 159.677030087'
p2432
aS'trial 110 phase 1 started at 159.783908129'
p2433
aS'trial 110 phase 2 started at 160.28392601'
p2434
aS'trial 110 phase 3 started at 160.483926058'
p2435
aa(lp2436
S'trial 111 started at 161.033888102'
p2437
aS'trial 111 phase 1 started at 161.133959055'
p2438
aS'trial 111 phase 2 started at 161.642299175'
p2439
aS'trial 111 phase 3 started at 161.842382193'
p2440
aa(lp2441
S'trial 112 started at 162.392788172'
p2442
aS'trial 112 phase 1 started at 162.500581026'
p2443
aS'trial 112 phase 2 started at 163.000650167'
p2444
aS'trial 112 phase 3 started at 163.200670004'
p2445
aa(lp2446
S'trial 113 started at 163.750482082'
p2447
aS'trial 113 phase 1 started at 163.850806236'
p2448
aS'trial 113 phase 2 started at 164.359148026'
p2449
aS'trial 113 phase 3 started at 164.559180021'
p2450
aa(lp2451
S'trial 114 started at 165.117364168'
p2452
aS'trial 114 phase 1 started at 165.217455149'
p2453
aS'trial 114 phase 2 started at 165.717579126'
p2454
aS'trial 114 phase 3 started at 165.925882101'
p2455
aa(lp2456
S'trial 115 started at 166.481432199'
p2457
aS'trial 115 phase 1 started at 166.584242105'
p2458
aS'trial 115 phase 2 started at 167.092540026'
p2459
aS'trial 115 phase 3 started at 167.300937176'
p2460
aa(lp2461
S'trial 116 started at 167.855312109'
p2462
aS'trial 116 phase 1 started at 167.959272146'
p2463
aS'trial 116 phase 2 started at 168.459352016'
p2464
aS'trial 116 phase 3 started at 168.659372091'
p2465
aa(lp2466
S'trial 117 started at 169.222393036'
p2467
aS'trial 117 phase 1 started at 169.326038122'
p2468
aS'trial 117 phase 2 started at 169.826110125'
p2469
aS'trial 117 phase 3 started at 170.034316063'
p2470
aa(lp2471
S'trial 118 started at 170.587559223'
p2472
aS'trial 118 phase 1 started at 170.692735195'
p2473
aS'trial 118 phase 2 started at 171.201118231'
p2474
aS'trial 118 phase 3 started at 171.409486055'
p2475
aa(lp2476
S'trial 119 started at 171.962447166'
p2477
aS'trial 119 phase 1 started at 172.067758083'
p2478
aS'trial 119 phase 2 started at 172.567768097'
p2479
aS'trial 119 phase 3 started at 172.767855167'
p2480
aa(lp2481
S'trial 120 started at 173.319625139'
p2482
aS'trial 120 phase 1 started at 173.426281214'
p2483
aS'trial 120 phase 2 started at 173.926293135'
p2484
aS'trial 120 phase 3 started at 174.134572029'
p2485
aa(lp2486
S'trial 121 started at 174.694497108'
p2487
aS'trial 121 phase 1 started at 174.801258087'
p2488
aS'trial 121 phase 2 started at 175.301400185'
p2489
aS'trial 121 phase 3 started at 175.509712219'
p2490
aa(lp2491
S'trial 122 started at 176.067819118'
p2492
aS'trial 122 phase 1 started at 176.167979002'
p2493
aS'trial 122 phase 2 started at 176.676307201'
p2494
aS'trial 122 phase 3 started at 176.876361132'
p2495
aa(lp2496
S'trial 123 started at 177.426712036'
p2497
aS'trial 123 phase 1 started at 177.534691095'
p2498
aS'trial 123 phase 2 started at 178.034804106'
p2499
aS'trial 123 phase 3 started at 178.243096113'
p2500
aa(lp2501
S'trial 124 started at 178.801562071'
p2502
aS'trial 124 phase 1 started at 178.909836054'
p2503
aS'trial 124 phase 2 started at 179.418157101'
p2504
aS'trial 124 phase 3 started at 179.618164062'
p2505
aa(lp2506
S'trial 125 started at 180.176777124'
p2507
aS'trial 125 phase 1 started at 180.284884214'
p2508
aS'trial 125 phase 2 started at 180.79331708'
p2509
aS'trial 125 phase 3 started at 181.001582146'
p2510
aa(lp2511
S'trial 126 started at 181.551549196'
p2512
aS'trial 126 phase 1 started at 181.651581049'
p2513
aS'trial 126 phase 2 started at 182.15162611'
p2514
aS'trial 126 phase 3 started at 182.351635218'
p2515
aa(lp2516
S'trial 127 started at 182.901755095'
p2517
aS'trial 127 phase 1 started at 183.010051012'
p2518
aS'trial 127 phase 2 started at 183.510061026'
p2519
aS'trial 127 phase 3 started at 183.718370199'
p2520
aa(lp2521
S'trial 128 started at 184.276584148'
p2522
aS'trial 128 phase 1 started at 184.376716137'
p2523
aS'trial 128 phase 2 started at 184.876744032'
p2524
aS'trial 128 phase 3 started at 185.085078001'
p2525
aa(lp2526
S'trial 129 started at 185.634820223'
p2527
aS'trial 129 phase 1 started at 185.735035181'
p2528
aS'trial 129 phase 2 started at 186.235099077'
p2529
aS'trial 129 phase 3 started at 186.435120106'
p2530
aa(lp2531
S'trial 130 started at 186.988402128'
p2532
aS'trial 130 phase 1 started at 187.09347415'
p2533
aS'trial 130 phase 2 started at 187.593516111'
p2534
aS'trial 130 phase 3 started at 187.801887035'
p2535
aa(lp2536
S'trial 131 started at 188.360368013'
p2537
aS'trial 131 phase 1 started at 188.46860218'
p2538
aS'trial 131 phase 2 started at 188.968672037'
p2539
aS'trial 131 phase 3 started at 189.176961184'
p2540
aa(lp2541
S'trial 132 started at 189.729107141'
p2542
aS'trial 132 phase 1 started at 189.835312128'
p2543
aS'trial 132 phase 2 started at 190.33535409'
p2544
aS'trial 132 phase 3 started at 190.543665171'
p2545
aa(lp2546
S'trial 133 started at 191.09374404'
p2547
aS'trial 133 phase 1 started at 191.20206213'
p2548
aS'trial 133 phase 2 started at 191.710327148'
p2549
aS'trial 133 phase 3 started at 191.918690205'
p2550
aa(lp2551
S'trial 134 started at 192.471085072'
p2552
aS'trial 134 phase 1 started at 192.577074051'
p2553
aS'trial 134 phase 2 started at 193.077122211'
p2554
aS'trial 134 phase 3 started at 193.285438061'
p2555
aa(lp2556
S'trial 135 started at 193.843886137'
p2557
aS'trial 135 phase 1 started at 193.952090025'
p2558
aS'trial 135 phase 2 started at 194.452221155'
p2559
aS'trial 135 phase 3 started at 194.660508156'
p2560
aa(lp2561
S'trial 136 started at 195.218642235'
p2562
aS'trial 136 phase 1 started at 195.318875074'
p2563
aS'trial 136 phase 2 started at 195.818902016'
p2564
aS'trial 136 phase 3 started at 196.018935204'
p2565
aa(lp2566
S'trial 137 started at 196.567837'
p2567
aS'trial 137 phase 1 started at 196.668956041'
p2568
aS'trial 137 phase 2 started at 197.177341223'
p2569
aS'trial 137 phase 3 started at 197.38561511'
p2570
aa(lp2571
S'trial 138 started at 197.94720602'
p2572
aS'trial 138 phase 1 started at 198.05233407'
p2573
aS'trial 138 phase 2 started at 198.560692072'
p2574
aS'trial 138 phase 3 started at 198.7690382'
p2575
aa(lp2576
S'trial 139 started at 199.318321228'
p2577
aS'trial 139 phase 1 started at 199.419083118'
p2578
aS'trial 139 phase 2 started at 199.919114113'
p2579
aS'trial 139 phase 3 started at 200.127450228'
p2580
aa(lp2581
S'trial 140 started at 200.686548233'
p2582
aS'trial 140 phase 1 started at 200.794079065'
p2583
aS'trial 140 phase 2 started at 201.294114113'
p2584
aS'trial 140 phase 3 started at 201.494174004'
p2585
aa(lp2586
S'trial 141 started at 202.052751064'
p2587
aS'trial 141 phase 1 started at 202.160915136'
p2588
aS'trial 141 phase 2 started at 202.669230223'
p2589
aS'trial 141 phase 3 started at 202.877603054'
p2590
aa(lp2591
S'trial 142 started at 203.435703039'
p2592
aS'trial 142 phase 1 started at 203.53590703'
p2593
aS'trial 142 phase 2 started at 204.036053181'
p2594
aS'trial 142 phase 3 started at 204.244348049'
p2595
aa(lp2596
S'trial 143 started at 204.802567005'
p2597
aS'trial 143 phase 1 started at 204.90263319'
p2598
aS'trial 143 phase 2 started at 205.41099'
p2599
aS'trial 143 phase 3 started at 205.611057043'
p2600
aa(lp2601
S'trial 144 started at 206.170838118'
p2602
aS'trial 144 phase 1 started at 206.277756214'
p2603
aS'trial 144 phase 2 started at 206.786039114'
p2604
aS'trial 144 phase 3 started at 206.986039162'
p2605
aa(lp2606
S'trial 145 started at 207.536072016'
p2607
aS'trial 145 phase 1 started at 207.636176109'
p2608
aS'trial 145 phase 2 started at 208.136179209'
p2609
aS'trial 145 phase 3 started at 208.336209059'
p2610
aa(lp2611
S'trial 146 started at 208.894418001'
p2612
aS'trial 146 phase 1 started at 208.994445086'
p2613
aS'trial 146 phase 2 started at 209.502821207'
p2614
aS'trial 146 phase 3 started at 209.702857018'
p2615
aa(lp2616
S'trial 147 started at 210.265259027'
p2617
aS'trial 147 phase 1 started at 210.371140003'
p2618
aS'trial 147 phase 2 started at 210.877948046'
p2619
aS'trial 147 phase 3 started at 211.086246014'
p2620
aa(lp2621
S'trial 148 started at 211.635834217'
p2622
aS'trial 148 phase 1 started at 211.736294031'
p2623
aS'trial 148 phase 2 started at 212.236313105'
p2624
aS'trial 148 phase 3 started at 212.436341047'
p2625
aa(lp2626
S'trial 149 started at 212.985971212'
p2627
aS'trial 149 phase 1 started at 213.086299181'
p2628
aS'trial 149 phase 2 started at 213.586428165'
p2629
aS'trial 149 phase 3 started at 213.794746161'
p2630
aa(lp2631
S'trial 150 started at 214.346194029'
p2632
aS'trial 150 phase 1 started at 214.453016043'
p2633
aS'trial 150 phase 2 started at 214.953032017'
p2634
aS'trial 150 phase 3 started at 215.15311718'
p2635
aa(lp2636
S'trial 151 started at 215.70287919'
p2637
aS'trial 151 phase 1 started at 215.803108215'
p2638
aS'trial 151 phase 2 started at 216.303128004'
p2639
aS'trial 151 phase 3 started at 216.503142118'
p2640
aa(lp2641
S'trial 152 started at 217.057645082'
p2642
aS'trial 152 phase 1 started at 217.16161108'
p2643
aS'trial 152 phase 2 started at 217.669860125'
p2644
aS'trial 152 phase 3 started at 217.869898081'
p2645
aa(lp2646
S'trial 153 started at 218.427424192'
p2647
aS'trial 153 phase 1 started at 218.528192043'
p2648
aS'trial 153 phase 2 started at 219.028379202'
p2649
aS'trial 153 phase 3 started at 219.236681223'
p2650
aa(lp2651
S'trial 154 started at 219.796822071'
p2652
aS'trial 154 phase 1 started at 219.903277159'
p2653
aS'trial 154 phase 2 started at 220.403391123'
p2654
aS'trial 154 phase 3 started at 220.611624002'
p2655
aa(lp2656
S'trial 155 started at 221.161800146'
p2657
aS'trial 155 phase 1 started at 221.270010233'
p2658
aS'trial 155 phase 2 started at 221.770017147'
p2659
aS'trial 155 phase 3 started at 221.970094204'
p2660
aa(lp2661
S'trial 156 started at 222.530409098'
p2662
aS'trial 156 phase 1 started at 222.63690114'
p2663
aS'trial 156 phase 2 started at 223.145152092'
p2664
aS'trial 156 phase 3 started at 223.345165014'
p2665
aa(lp2666
S'trial 157 started at 223.904235125'
p2667
aS'trial 157 phase 1 started at 224.011815071'
p2668
aS'trial 157 phase 2 started at 224.511906147'
p2669
aS'trial 157 phase 3 started at 224.711965084'
p2670
aa(lp2671
S'trial 158 started at 225.270284176'
p2672
aS'trial 158 phase 1 started at 225.371918201'
p2673
aS'trial 158 phase 2 started at 225.878646135'
p2674
aS'trial 158 phase 3 started at 226.086858034'
p2675
aa(lp2676
S'trial 159 started at 226.636578083'
p2677
aS'trial 159 phase 1 started at 226.737011194'
p2678
aS'trial 159 phase 2 started at 227.237072229'
p2679
aS'trial 159 phase 3 started at 227.445357084'
p2680
aa(lp2681
S'trial 160 started at 227.997754097'
p2682
aS'trial 160 phase 1 started at 228.103721142'
p2683
aS'trial 160 phase 2 started at 228.60375905'
p2684
aS'trial 160 phase 3 started at 228.80380702'
p2685
aa(lp2686
S'trial 161 started at 229.366023064'
p2687
aS'trial 161 phase 1 started at 229.470430136'
p2688
aS'trial 161 phase 2 started at 229.970870018'
p2689
aS'trial 161 phase 3 started at 230.178918123'
p2690
aa(lp2691
S'trial 162 started at 230.737135172'
p2692
aS'trial 162 phase 1 started at 230.837172031'
p2693
aS'trial 162 phase 2 started at 231.337194204'
p2694
aS'trial 162 phase 3 started at 231.545575142'
p2695
aa(lp2696
S'trial 163 started at 232.105270147'
p2697
aS'trial 163 phase 1 started at 232.212289095'
p2698
aS'trial 163 phase 2 started at 232.72064805'
p2699
aS'trial 163 phase 3 started at 232.92892909'
p2700
aa(lp2701
S'trial 164 started at 233.487254143'
p2702
aS'trial 164 phase 1 started at 233.587291002'
p2703
aS'trial 164 phase 2 started at 234.087375164'
p2704
aS'trial 164 phase 3 started at 234.295697212'
p2705
aa(lp2706
S'trial 165 started at 234.850455046'
p2707
aS'trial 165 phase 1 started at 234.954005003'
p2708
aS'trial 165 phase 2 started at 235.462361097'
p2709
aS'trial 165 phase 3 started at 235.662412167'
p2710
aa(lp2711
S'trial 166 started at 236.220756054'
p2712
aS'trial 166 phase 1 started at 236.329107046'
p2713
aS'trial 166 phase 2 started at 236.829158068'
p2714
aS'trial 166 phase 3 started at 237.037486076'
p2715
aa(lp2716
S'trial 167 started at 237.601881027'
p2717
aS'trial 167 phase 1 started at 237.70450902'
p2718
aS'trial 167 phase 2 started at 238.212574005'
p2719
aS'trial 167 phase 3 started at 238.412578106'
p2720
aa(lp2721
S'trial 168 started at 238.974890232'
p2722
aS'trial 168 phase 1 started at 239.079169035'
p2723
aS'trial 168 phase 2 started at 239.579247236'
p2724
aS'trial 168 phase 3 started at 239.779290199'
p2725
aa(lp2726
S'trial 169 started at 240.338275194'
p2727
aS'trial 169 phase 1 started at 240.445873022'
p2728
aS'trial 169 phase 2 started at 240.94594717'
p2729
aS'trial 169 phase 3 started at 241.154381037'
p2730
aa(lp2731
S'trial 170 started at 241.712482214'
p2732
aS'trial 170 phase 1 started at 241.812718153'
p2733
aS'trial 170 phase 2 started at 242.312756062'
p2734
aS'trial 170 phase 3 started at 242.521044016'
p2735
aa(lp2736
S'trial 171 started at 243.074462175'
p2737
aS'trial 171 phase 1 started at 243.179372072'
p2738
aS'trial 171 phase 2 started at 243.679428101'
p2739
aS'trial 171 phase 3 started at 243.879471064'
p2740
aa(lp2741
S'trial 172 started at 244.429430008'
p2742
aS'trial 172 phase 1 started at 244.529459238'
p2743
aS'trial 172 phase 2 started at 245.029525042'
p2744
aS'trial 172 phase 3 started at 245.237778187'
p2745
aa(lp2746
S'trial 173 started at 245.792356014'
p2747
aS'trial 173 phase 1 started at 245.896228075'
p2748
aS'trial 173 phase 2 started at 246.396244049'
p2749
aS'trial 173 phase 3 started at 246.596260071'
p2750
aa(lp2751
S'trial 174 started at 247.15421319'
p2752
aS'trial 174 phase 1 started at 247.254505157'
p2753
aS'trial 174 phase 2 started at 247.754691124'
p2754
aS'trial 174 phase 3 started at 247.962934017'
p2755
aa(lp2756
S'trial 175 started at 248.511853218'
p2757
aS'trial 175 phase 1 started at 248.612968206'
p2758
aS'trial 175 phase 2 started at 249.112999201'
p2759
aS'trial 175 phase 3 started at 249.31301713'
p2760
aa(lp2761
S'trial 176 started at 249.862798214'
p2762
aS'trial 176 phase 1 started at 249.963056087'
p2763
aS'trial 176 phase 2 started at 250.471383095'
p2764
aS'trial 176 phase 3 started at 250.67142415'
p2765
aa(lp2766
S'trial 177 started at 251.221358061'
p2767
aS'trial 177 phase 1 started at 251.321463108'
p2768
aS'trial 177 phase 2 started at 251.82982707'
p2769
aS'trial 177 phase 3 started at 252.038152218'
p2770
aa(lp2771
S'trial 178 started at 252.596234083'
p2772
aS'trial 178 phase 1 started at 252.696575165'
p2773
aS'trial 178 phase 2 started at 253.196617126'
p2774
aS'trial 178 phase 3 started at 253.404896021'
p2775
aa(lp2776
S'trial 179 started at 253.954615116'
p2777
aS'trial 179 phase 1 started at 254.054901123'
p2778
aS'trial 179 phase 2 started at 254.554966211'
p2779
aS'trial 179 phase 3 started at 254.763224125'
p2780
aa(lp2781
S'trial 180 started at 255.313114166'
p2782
aS'trial 180 phase 1 started at 255.413377047'
p2783
aS'trial 180 phase 2 started at 255.921663046'
p2784
aS'trial 180 phase 3 started at 256.129967213'
p2785
aa(lp2786
S'trial 181 started at 256.67961216'
p2787
aS'trial 181 phase 1 started at 256.780025005'
p2788
aS'trial 181 phase 2 started at 257.280134201'
p2789
aS'trial 181 phase 3 started at 257.488406181'
p2790
aa(lp2791
S'trial 182 started at 258.046573162'
p2792
aS'trial 182 phase 1 started at 258.146777153'
p2793
aS'trial 182 phase 2 started at 258.646786213'
p2794
aS'trial 182 phase 3 started at 258.846823215'
p2795
aa(lp2796
S'trial 183 started at 259.3985672'
p2797
aS'trial 183 phase 1 started at 259.5051682'
p2798
aS'trial 183 phase 2 started at 260.005186081'
p2799
aS'trial 183 phase 3 started at 260.205188036'
p2800
aa(lp2801
S'trial 184 started at 260.755196095'
p2802
aS'trial 184 phase 1 started at 260.86364007'
p2803
aS'trial 184 phase 2 started at 261.371951103'
p2804
aS'trial 184 phase 3 started at 261.580304146'
p2805
aa(lp2806
S'trial 185 started at 262.138233185'
p2807
aS'trial 185 phase 1 started at 262.238636017'
p2808
aS'trial 185 phase 2 started at 262.738722086'
p2809
aS'trial 185 phase 3 started at 262.946996212'
p2810
aa(lp2811
S'trial 186 started at 263.49693203'
p2812
aS'trial 186 phase 1 started at 263.596981049'
p2813
aS'trial 186 phase 2 started at 264.097045183'
p2814
aS'trial 186 phase 3 started at 264.305332184'
p2815
aa(lp2816
S'trial 187 started at 264.855073214'
p2817
aS'trial 187 phase 1 started at 264.955478191'
p2818
aS'trial 187 phase 2 started at 265.463754177'
p2819
aS'trial 187 phase 3 started at 265.672147036'
p2820
aa(lp2821
S'trial 188 started at 266.230522156'
p2822
aS'trial 188 phase 1 started at 266.338669062'
p2823
aS'trial 188 phase 2 started at 266.838903189'
p2824
aS'trial 188 phase 3 started at 267.04717803'
p2825
aa(lp2826
S'trial 189 started at 267.596163034'
p2827
aS'trial 189 phase 1 started at 267.697236061'
p2828
aS'trial 189 phase 2 started at 268.205504179'
p2829
aS'trial 189 phase 3 started at 268.405591011'
p2830
aa(lp2831
S'trial 190 started at 268.960433006'
p2832
aS'trial 190 phase 1 started at 269.063878059'
p2833
aS'trial 190 phase 2 started at 269.563970089'
p2834
aS'trial 190 phase 3 started at 269.763990164'
p2835
aa(lp2836
S'trial 191 started at 270.322654009'
p2837
aS'trial 191 phase 1 started at 270.430668116'
p2838
aS'trial 191 phase 2 started at 270.939008236'
p2839
aS'trial 191 phase 3 started at 271.139059067'
p2840
aa(lp2841
S'trial 192 started at 271.69732213'
p2842
aS'trial 192 phase 1 started at 271.805698156'
p2843
aS'trial 192 phase 2 started at 272.305770159'
p2844
aS'trial 192 phase 3 started at 272.514076233'
p2845
aa(lp2846
S'trial 193 started at 273.072654009'
p2847
aS'trial 193 phase 1 started at 273.180830002'
p2848
aS'trial 193 phase 2 started at 273.689079046'
p2849
aS'trial 193 phase 3 started at 273.889144182'
p2850
aa(lp2851
S'trial 194 started at 274.439264059'
p2852
aS'trial 194 phase 1 started at 274.547561169'
p2853
aS'trial 194 phase 2 started at 275.055897236'
p2854
aS'trial 194 phase 3 started at 275.255897045'
p2855
aa(lp2856
S'trial 195 started at 275.805801153'
p2857
aS'trial 195 phase 1 started at 275.905973196'
p2858
aS'trial 195 phase 2 started at 276.414338112'
p2859
aS'trial 195 phase 3 started at 276.622600079'
p2860
aa(lp2861
S'trial 196 started at 277.180922031'
p2862
aS'trial 196 phase 1 started at 277.289202213'
p2863
aS'trial 196 phase 2 started at 277.789361'
p2864
aS'trial 196 phase 3 started at 277.989363194'
p2865
aa(lp2866
S'trial 197 started at 278.539175034'
p2867
aS'trial 197 phase 1 started at 278.639412165'
p2868
aS'trial 197 phase 2 started at 279.147651196'
p2869
aS'trial 197 phase 3 started at 279.347720146'
p2870
aa(lp2871
S'trial 198 started at 279.899922132'
p2872
aS'trial 198 phase 1 started at 280.006137133'
p2873
aS'trial 198 phase 2 started at 280.506152153'
p2874
aS'trial 198 phase 3 started at 280.714491129'
p2875
aa(lp2876
S'trial 199 started at 281.273019075'
p2877
aS'trial 199 phase 1 started at 281.381080151'
p2878
aS'trial 199 phase 2 started at 281.881235123'
p2879
aS'trial 199 phase 3 started at 282.081248045'
p2880
aa(lp2881
S'trial 200 started at 282.642593145'
p2882
aS'trial 200 phase 1 started at 282.747877121'
p2883
aS'trial 200 phase 2 started at 283.256179094'
p2884
aS'trial 200 phase 3 started at 283.456273079'
p2885
aa(lp2886
S'trial 201 started at 284.013630152'
p2887
aS'trial 201 phase 1 started at 284.11463213'
p2888
aS'trial 201 phase 2 started at 284.614684105'
p2889
aS'trial 201 phase 3 started at 284.822984219'
p2890
aa(lp2891
S'trial 202 started at 285.374420166'
p2892
aS'trial 202 phase 1 started at 285.481386185'
p2893
aS'trial 202 phase 2 started at 285.981392145'
p2894
aS'trial 202 phase 3 started at 286.189725161'
p2895
aa(lp2896
S'trial 203 started at 286.742298126'
p2897
aS'trial 203 phase 1 started at 286.848079205'
p2898
aS'trial 203 phase 2 started at 287.348157167'
p2899
aS'trial 203 phase 3 started at 287.548237085'
p2900
aa(lp2901
S'trial 204 started at 288.1099751'
p2902
aS'trial 204 phase 1 started at 288.214850187'
p2903
aS'trial 204 phase 2 started at 288.714857101'
p2904
aS'trial 204 phase 3 started at 288.92307806'
p2905
aa(lp2906
S'trial 205 started at 289.47320509'
p2907
aS'trial 205 phase 1 started at 289.573257208'
p2908
aS'trial 205 phase 2 started at 290.073259115'
p2909
aS'trial 205 phase 3 started at 290.281497002'
p2910
aa(lp2911
S'trial 206 started at 290.831643105'
p2912
aS'trial 206 phase 1 started at 290.939928055'
p2913
aS'trial 206 phase 2 started at 291.440042019'
p2914
aS'trial 206 phase 3 started at 291.648346186'
p2915
aa(lp2916
S'trial 207 started at 292.206660032'
p2917
aS'trial 207 phase 1 started at 292.314976215'
p2918
aS'trial 207 phase 2 started at 292.814986229'
p2919
aS'trial 207 phase 3 started at 293.015114069'
p2920
aa(lp2921
S'trial 208 started at 293.566648006'
p2922
aS'trial 208 phase 1 started at 293.67340517'
p2923
aS'trial 208 phase 2 started at 294.181716204'
p2924
aS'trial 208 phase 3 started at 294.381809235'
p2925
aa(lp2926
S'trial 209 started at 294.941865206'
p2927
aS'trial 209 phase 1 started at 295.048448086'
p2928
aS'trial 209 phase 2 started at 295.548462152'
p2929
aS'trial 209 phase 3 started at 295.748486042'
p2930
aa(lp2931
S'trial 210 started at 296.306753159'
p2932
aS'trial 210 phase 1 started at 296.408524036'
p2933
aS'trial 210 phase 2 started at 296.915182114'
p2934
aS'trial 210 phase 3 started at 297.123571157'
p2935
aa(lp2936
S'trial 211 started at 297.683147192'
p2937
aS'trial 211 phase 1 started at 297.790280104'
p2938
aS'trial 211 phase 2 started at 298.298534155'
p2939
aS'trial 211 phase 3 started at 298.506928205'
p2940
aa(lp2941
S'trial 212 started at 299.057141066'
p2942
aS'trial 212 phase 1 started at 299.165325165'
p2943
aS'trial 212 phase 2 started at 299.665348053'
p2944
aS'trial 212 phase 3 started at 299.873689175'
p2945
aa(lp2946
S'trial 213 started at 300.432554007'
p2947
aS'trial 213 phase 1 started at 300.5403862'
p2948
aS'trial 213 phase 2 started at 301.040476084'
p2949
aS'trial 213 phase 3 started at 301.240478039'
p2950
aa(lp2951
S'trial 214 started at 301.798509121'
p2952
aS'trial 214 phase 1 started at 301.898749113'
p2953
aS'trial 214 phase 2 started at 302.398787022'
p2954
aS'trial 214 phase 3 started at 302.607175112'
p2955
aa(lp2956
S'trial 215 started at 303.165672064'
p2957
aS'trial 215 phase 1 started at 303.273764133'
p2958
aS'trial 215 phase 2 started at 303.773866177'
p2959
aS'trial 215 phase 3 started at 303.982178211'
p2960
aa(lp2961
S'trial 216 started at 304.540518045'
p2962
aS'trial 216 phase 1 started at 304.640601158'
p2963
aS'trial 216 phase 2 started at 305.148936033'
p2964
aS'trial 216 phase 3 started at 305.357251167'
p2965
aa(lp2966
S'trial 217 started at 305.917278051'
p2967
aS'trial 217 phase 1 started at 306.023948193'
p2968
aS'trial 217 phase 2 started at 306.524028063'
p2969
aS'trial 217 phase 3 started at 306.732368231'
p2970
aa(lp2971
S'trial 218 started at 307.292213202'
p2972
aS'trial 218 phase 1 started at 307.392334223'
p2973
aS'trial 218 phase 2 started at 307.899032116'
p2974
aS'trial 218 phase 3 started at 308.107393026'
p2975
aa(lp2976
S'trial 219 started at 308.658390045'
p2977
aS'trial 219 phase 1 started at 308.765716076'
p2978
aS'trial 219 phase 2 started at 309.265752077'
p2979
aS'trial 219 phase 3 started at 309.465832233'
p2980
aa(lp2981
S'trial 220 started at 310.024065018'
p2982
aS'trial 220 phase 1 started at 310.132454157'
p2983
aS'trial 220 phase 2 started at 310.632635117'
p2984
aS'trial 220 phase 3 started at 310.840850115'
p2985
aa(lp2986
S'trial 221 started at 311.392579079'
p2987
aS'trial 221 phase 1 started at 311.499214172'
p2988
aS'trial 221 phase 2 started at 312.007559061'
p2989
aS'trial 221 phase 3 started at 312.207645178'
p2990
aa(lp2991
S'trial 222 started at 312.757488012'
p2992
aS'trial 222 phase 1 started at 312.857700109'
p2993
aS'trial 222 phase 2 started at 313.365980148'
p2994
aS'trial 222 phase 3 started at 313.574324131'
p2995
aa(lp2996
S'trial 223 started at 314.132935047'
p2997
aS'trial 223 phase 1 started at 314.241107225'
p2998
aS'trial 223 phase 2 started at 314.749416113'
p2999
aS'trial 223 phase 3 started at 314.949451208'
p3000
aa(lp3001
S'trial 224 started at 315.510131121'
p3002
aS'trial 224 phase 1 started at 315.616027117'
p3003
aS'trial 224 phase 2 started at 316.116036177'
p3004
aS'trial 224 phase 3 started at 316.316164017'
p3005
aa(lp3006
S'trial 225 started at 316.875533104'
p3007
aS'trial 225 phase 1 started at 316.982737064'
p3008
aS'trial 225 phase 2 started at 317.482853174'
p3009
aS'trial 225 phase 3 started at 317.691069126'
p3010
aa(lp3011
S'trial 226 started at 318.240377188'
p3012
aS'trial 226 phase 1 started at 318.341201067'
p3013
aS'trial 226 phase 2 started at 318.841233015'
p3014
aS'trial 226 phase 3 started at 319.049604177'
p3015
aa(lp3016
S'trial 227 started at 319.608126163'
p3017
aS'trial 227 phase 1 started at 319.716202021'
p3018
aS'trial 227 phase 2 started at 320.216210127'
p3019
aS'trial 227 phase 3 started at 320.41624403'
p3020
aa(lp3021
S'trial 228 started at 320.968154192'
p3022
aS'trial 228 phase 1 started at 321.074628115'
p3023
aS'trial 228 phase 2 started at 321.574670076'
p3024
aS'trial 228 phase 3 started at 321.774715185'
p3025
aa(lp3026
S'trial 229 started at 322.32570219'
p3027
aS'trial 229 phase 1 started at 322.433129072'
p3028
aS'trial 229 phase 2 started at 322.94131422'
p3029
aS'trial 229 phase 3 started at 323.141450167'
p3030
aa(lp3031
S'trial 230 started at 323.69950819'
p3032
aS'trial 230 phase 1 started at 323.799757004'
p3033
aS'trial 230 phase 2 started at 324.308169127'
p3034
aS'trial 230 phase 3 started at 324.516425133'
p3035
aa(lp3036
S'trial 231 started at 325.066659212'
p3037
aS'trial 231 phase 1 started at 325.174900055'
p3038
aS'trial 231 phase 2 started at 325.674929142'
p3039
aS'trial 231 phase 3 started at 325.883216143'
p3040
aa(lp3041
S'trial 232 started at 326.442878008'
p3042
aS'trial 232 phase 1 started at 326.549905062'
p3043
aS'trial 232 phase 2 started at 327.058189154'
p3044
aS'trial 232 phase 3 started at 327.266596079'
p3045
aa(lp3046
S'trial 233 started at 327.834247112'
p3047
aS'trial 233 phase 1 started at 327.941678047'
p3048
aS'trial 233 phase 2 started at 328.449982166'
p3049
aS'trial 233 phase 3 started at 328.650021076'
p3050
aa(lp3051
S'trial 234 started at 329.208962202'
p3052
aS'trial 234 phase 1 started at 329.316631079'
p3053
aS'trial 234 phase 2 started at 329.816686153'
p3054
aS'trial 234 phase 3 started at 330.025078058'
p3055
aa(lp3056
S'trial 235 started at 330.584163189'
p3057
aS'trial 235 phase 1 started at 330.691720009'
p3058
aS'trial 235 phase 2 started at 331.200159073'
p3059
aS'trial 235 phase 3 started at 331.408496141'
p3060
aa(lp3061
S'trial 236 started at 331.960190058'
p3062
aS'trial 236 phase 1 started at 332.066838026'
p3063
aS'trial 236 phase 2 started at 332.566850185'
p3064
aS'trial 236 phase 3 started at 332.775148153'
p3065
aa(lp3066
S'trial 237 started at 333.325411081'
p3067
aS'trial 237 phase 1 started at 333.433489084'
p3068
aS'trial 237 phase 2 started at 333.933524132'
p3069
aS'trial 237 phase 3 started at 334.133595228'
p3070
aa(lp3071
S'trial 238 started at 334.683701038'
p3072
aS'trial 238 phase 1 started at 334.791795015'
p3073
aS'trial 238 phase 2 started at 335.291834116'
p3074
aS'trial 238 phase 3 started at 335.491902113'
p3075
aa(lp3076
S'trial 239 started at 336.042000055'
p3077
aS'trial 239 phase 1 started at 336.142026186'
p3078
aS'trial 239 phase 2 started at 336.650405169'
p3079
aS'trial 239 phase 3 started at 336.858618021'
p3080
aa(lp3081
S'trial 240 started at 337.41815114'
p3082
aS'trial 240 phase 1 started at 337.525474072'
p3083
aS'trial 240 phase 2 started at 338.025490046'
p3084
aS'trial 240 phase 3 started at 338.233790159'
p3085
aa(lp3086
S'trial 241 started at 338.791792154'
p3087
aS'trial 241 phase 1 started at 338.892153025'
p3088
aS'trial 241 phase 2 started at 339.392258167'
p3089
aS'trial 241 phase 3 started at 339.600437164'
p3090
aa(lp3091
S'trial 242 started at 340.1612041'
p3092
aS'trial 242 phase 1 started at 340.267120123'
p3093
aS'trial 242 phase 2 started at 340.76725316'
p3094
aS'trial 242 phase 3 started at 340.975594044'
p3095
aa(lp3096
S'trial 243 started at 341.534743071'
p3097
aS'trial 243 phase 1 started at 341.642255068'
p3098
aS'trial 243 phase 2 started at 342.150493145'
p3099
aS'trial 243 phase 3 started at 342.350638151'
p3100
aa(lp3101
S'trial 244 started at 342.908780098'
p3102
aS'trial 244 phase 1 started at 343.008877039'
p3103
aS'trial 244 phase 2 started at 343.50902009'
p3104
aS'trial 244 phase 3 started at 343.709085226'
p3105
aa(lp3106
S'trial 245 started at 344.267240047'
p3107
aS'trial 245 phase 1 started at 344.367260218'
p3108
aS'trial 245 phase 2 started at 344.867320061'
p3109
aS'trial 245 phase 3 started at 345.067334175'
p3110
aa(lp3111
S'trial 246 started at 345.617387056'
p3112
aS'trial 246 phase 1 started at 345.717416048'
p3113
aS'trial 246 phase 2 started at 346.217486143'
p3114
aS'trial 246 phase 3 started at 346.425817013'
p3115
aa(lp3116
S'trial 247 started at 346.985051155'
p3117
aS'trial 247 phase 1 started at 347.092358112'
p3118
aS'trial 247 phase 2 started at 347.592513084'
p3119
aS'trial 247 phase 3 started at 347.792573214'
p3120
aa(lp3121
S'trial 248 started at 348.351259232'
p3122
aS'trial 248 phase 1 started at 348.459160089'
p3123
aS'trial 248 phase 2 started at 348.967417002'
p3124
aS'trial 248 phase 3 started at 349.16767621'
p3125
aa(lp3126
S'trial 249 started at 349.725809097'
p3127
aS'trial 249 phase 1 started at 349.826027155'
p3128
aS'trial 249 phase 2 started at 350.334215164'
p3129
aS'trial 249 phase 3 started at 350.534276009'
p3130
aa(lp3131
S'trial 250 started at 351.093037128'
p3132
aS'trial 250 phase 1 started at 351.200980186'
p3133
aS'trial 250 phase 2 started at 351.701050043'
p3134
aS'trial 250 phase 3 started at 351.901052237'
p3135
aa(lp3136
S'trial 251 started at 352.460464001'
p3137
aS'trial 251 phase 1 started at 352.567677021'
p3138
aS'trial 251 phase 2 started at 353.067815065'
p3139
aS'trial 251 phase 3 started at 353.27603817'
p3140
aa(lp3141
S'trial 252 started at 353.826148033'
p3142
aS'trial 252 phase 1 started at 353.934507132'
p3143
aS'trial 252 phase 2 started at 354.442790031'
p3144
aS'trial 252 phase 3 started at 354.642827034'
p3145
aa(lp3146
S'trial 253 started at 355.194280148'
p3147
aS'trial 253 phase 1 started at 355.30114913'
p3148
aS'trial 253 phase 2 started at 355.801216125'
p3149
aS'trial 253 phase 3 started at 356.001239061'
p3150
aa(lp3151
S'trial 254 started at 356.55945611'
p3152
aS'trial 254 phase 1 started at 356.659487009'
p3153
aS'trial 254 phase 2 started at 357.159522057'
p3154
aS'trial 254 phase 3 started at 357.359585047'
p3155
aa(lp3156
S'trial 255 started at 357.916736126'
p3157
aS'trial 255 phase 1 started at 358.017855167'
p3158
aS'trial 255 phase 2 started at 358.518030167'
p3159
aS'trial 255 phase 3 started at 358.718038082'
p3160
aa(lp3161
S'trial 256 started at 359.267896175'
p3162
aS'trial 256 phase 1 started at 359.36809206'
p3163
aS'trial 256 phase 2 started at 359.868094206'
p3164
aS'trial 256 phase 3 started at 360.068122149'
p3165
aa(lp3166
S'trial 257 started at 360.627552032'
p3167
aS'trial 257 phase 1 started at 360.734747171'
p3168
aS'trial 257 phase 2 started at 361.234804153'
p3169
aS'trial 257 phase 3 started at 361.434838057'
p3170
aa(lp3171
S'trial 258 started at 361.994092226'
p3172
aS'trial 258 phase 1 started at 362.101422071'
p3173
aS'trial 258 phase 2 started at 362.601477146'
p3174
aS'trial 258 phase 3 started at 362.801477194'
p3175
aa(lp3176
S'trial 259 started at 363.351438046'
p3177
aS'trial 259 phase 1 started at 363.451505184'
p3178
aS'trial 259 phase 2 started at 363.951538086'
p3179
aS'trial 259 phase 3 started at 364.151639223'
p3180
aas.