(dp0
S'parameterArray'
p1
(lp2
(dp3
Vprf_stim_barpass_duration
p4
I24
sVblobstim_fix_opacity
p5
F0.4
sVpixstim_fix_aperture_fraction
p6
F0.8
sVblobstim_fix_ecc_min
p7
F0.05
sVpost_fix_time
p8
F0.3
sVpixstim_bg_noise_n_textures
p9
I8
sVpixstim_fix_noise_n_textures
p10
I8
sVpixstim_bg_aperture_fraction
p11
F0.95
sVpsychometric_curve_nr_steps_oneside
p12
I6
sVsize_fixation_deg
p13
F0.4
sVpixstim_fix_tex_size
p14
I64
sVpsychometric_curve_interval
p15
F0.15
sVin_scanner
p16
I1
sVblobstim_fix_nr_blobrows_per_ring
p17
I2
sVTR
p18
F1.2
sVblobstim_bg_opacity
p19
F0.125
sVblobstim_fix_spacing_factor
p20
F0.9
sVpixstim_fix_amplitude_exponent
p21
I1
sS'answer'
p22
I-1
sVprf_checker_tex_nr_pix
p23
I512
sVblobstim_bg_spacing_factor
p24
F0.8
sVpixstim_bg_tex_size
p25
I1024
sVprf_checker_bar_width
p26
F0.125
sS'bg_trial_stimulus_value'
p27
cnumpy.core.multiarray
scalar
p28
(cnumpy
dtype
p29
(S'f8'
p30
I0
I1
tp31
Rp32
(I3
S'<'
p33
NNNI-1
I-1
I0
tp34
bS'\xb8\x1e\x85\xebQ\xb8\xbe?'
p35
tp36
Rp37
sVfix_time
p38
F0.5
sVprf_checker_cycles_in_bar
p39
I4
sVpixstim_bg_opacity
p40
F0.3
sVblobstim_bg_ecc_min
p41
F0.1
sVpixstim_fix_opacity
p42
F0.3
sVprf_checker_flicker_frequency
p43
I6
sVblobstim_bg_nr_blobrows_per_ring
p44
I12
sS'fix_trial_stimulus_value'
p45
g28
(g32
S'\n\xd7\xa3p=\n\xb7\xbf'
p46
tp47
Rp48
sVpixstim_bg_amplitude_exponent
p49
I1
sVwhich_stimulus_type
p50
I1
sVprf_stim_sequence_angles
p51
(lp52
I-1
aI0
aI-1
aI45
aI270
aI-1
aI315
aI180
aI-1
aI135
aI90
aI-1
aI225
aI-1
asVaperture_stim_sd
p53
F0.1225
sVblobstim_bg_nr_rings
p54
I1
sVblobstim_fix_nr_ring
p55
I1
sVstim_time
p56
F0.2
sVanswer_dictionary
p57
(dp58
Vy
p59
I1
sVb
p60
I0
ssVblobstim_bg_ecc_max
p61
I15
sa(dp62
g4
I24
sg5
F0.4
sg6
F0.8
sg7
F0.05
sg8
F0.3
sg9
I8
sg10
I8
sg11
F0.95
sg12
I6
sg13
F0.4
sg14
I64
sg15
F0.15
sg16
I1
sg17
I2
sg18
F1.2
sg19
F0.125
sg20
F0.9
sg21
I1
sg22
I-1
sg23
I512
sg24
F0.8
sg25
I1024
sg26
F0.125
sg27
g28
(g32
S'\xb8\x1e\x85\xebQ\xb8\xbe\xbf'
p63
tp64
Rp65
sg38
F0.5
sg39
I4
sg40
F0.3
sg41
F0.1
sg42
F0.3
sg43
I6
sg44
I12
sg45
g28
(g32
S'333333\xc3?'
p66
tp67
Rp68
sg49
I1
sg50
I1
sg51
g52
sg53
F0.1225
sg54
I1
sg55
I1
sg56
F0.2
sg57
g58
sg61
I15
sa(dp69
g4
I24
sg5
F0.4
sg6
F0.8
sg7
F0.05
sg8
F0.3
sg9
I8
sg10
I8
sg11
F0.95
sg12
I6
sg13
F0.4
sg14
I64
sg15
F0.15
sg16
I1
sg17
I2
sg18
F1.2
sg19
F0.125
sg20
F0.9
sg21
I1
sg22
I-1
sg23
I512
sg24
F0.8
sg25
I1024
sg26
F0.125
sg27
g28
(g32
S'\xb8\x1e\x85\xebQ\xb8\xae\xbf'
p70
tp71
Rp72
sg38
F0.5
sg39
I4
sg40
F0.3
sg41
F0.1
sg42
F0.3
sg43
I6
sg44
I12
sg45
g28
(g32
S'\xb8\x1e\x85\xebQ\xb8\xbe?'
p73
tp74
Rp75
sg49
I1
sg50
I1
sg51
g52
sg53
F0.1225
sg54
I1
sg55
I1
sg56
F0.2
sg57
g58
sg61
I15
sa(dp76
g4
I24
sg5
F0.4
sg6
F0.8
sg7
F0.05
sg8
F0.3
sg9
I8
sg10
I8
sg11
F0.95
sg12
I6
sg13
F0.4
sg14
I64
sg15
F0.15
sg16
I1
sg17
I2
sg18
F1.2
sg19
F0.125
sg20
F0.9
sg21
I1
sg22
I-1
sg23
I512
sg24
F0.8
sg25
I1024
sg26
F0.125
sg27
g28
(g32
S'\n\xd7\xa3p=\n\xb7?'
p77
tp78
Rp79
sg38
F0.5
sg39
I4
sg40
F0.3
sg41
F0.1
sg42
F0.3
sg43
I6
sg44
I12
sg45
g28
(g32
S'\n\xd7\xa3p=\n\xb7\xbf'
p80
tp81
Rp82
sg49
I1
sg50
I1
sg51
g52
sg53
F0.1225
sg54
I1
sg55
I1
sg56
F0.2
sg57
g58
sg61
I15
sa(dp83
g4
I24
sg5
F0.4
sg6
F0.8
sg7
F0.05
sg8
F0.3
sg9
I8
sg10
I8
sg11
F0.95
sg12
I6
sg13
F0.4
sg14
I64
sg15
F0.15
sg16
I1
sg17
I2
sg18
F1.2
sg19
F0.125
sg20
F0.9
sg21
I1
sg22
I-1
sg23
I512
sg24
F0.8
sg25
I1024
sg26
F0.125
sg27
g28
(g32
S'333333\xc3\xbf'
p84
tp85
Rp86
sg38
F0.5
sg39
I4
sg40
F0.3
sg41
F0.1
sg42
F0.3
sg43
I6
sg44
I12
sg45
g28
(g32
S'\xb8\x1e\x85\xebQ\xb8\xae?'
p87
tp88
Rp89
sg49
I1
sg50
I1
sg51
g52
sg53
F0.1225
sg54
I1
sg55
I1
sg56
F0.2
sg57
g58
sg61
I15
sa(dp90
g4
I24
sg5
F0.4
sg6
F0.8
sg7
F0.05
sg8
F0.3
sg9
I8
sg10
I8
sg11
F0.95
sg12
I6
sg13
F0.4
sg14
I64
sg15
F0.15
sg16
I1
sg17
I2
sg18
F1.2
sg19
F0.125
sg20
F0.9
sg21
I1
sg22
I-1
sg23
I512
sg24
F0.8
sg25
I1024
sg26
F0.125
sg27
g28
(g32
S'\x00\x00\x00\x00\x00\x00\x00\x00'
p91
tp92
Rp93
sg38
F0.5
sg39
I4
sg40
F0.3
sg41
F0.1
sg42
F0.3
sg43
I6
sg44
I12
sg45
g28
(g32
S'\xb8\x1e\x85\xebQ\xb8\xae\xbf'
p94
tp95
Rp96
sg49
I1
sg50
I1
sg51
g52
sg53
F0.1225
sg54
I1
sg55
I1
sg56
F0.2
sg57
g58
sg61
I15
sa(dp97
g4
I24
sg5
F0.4
sg6
F0.8
sg7
F0.05
sg8
F0.3
sg9
I8
sg10
I8
sg11
F0.95
sg12
I6
sg13
F0.4
sg14
I64
sg15
F0.15
sg16
I1
sg17
I2
sg18
F1.2
sg19
F0.125
sg20
F0.9
sg21
I1
sg22
I-1
sg23
I512
sg24
F0.8
sg25
I1024
sg26
F0.125
sg27
g28
(g32
S'\x00\x00\x00\x00\x00\x00\x00\x00'
p98
tp99
Rp100
sg38
F0.5
sg39
I4
sg40
F0.3
sg41
F0.1
sg42
F0.3
sg43
I6
sg44
I12
sg45
g28
(g32
S'\n\xd7\xa3p=\n\xb7?'
p101
tp102
Rp103
sg49
I1
sg50
I1
sg51
g52
sg53
F0.1225
sg54
I1
sg55
I1
sg56
F0.2
sg57
g58
sg61
I15
sa(dp104
g4
I24
sg5
F0.4
sg6
F0.8
sg7
F0.05
sg8
F0.3
sg9
I8
sg10
I8
sg11
F0.95
sg12
I6
sg13
F0.4
sg14
I64
sg15
F0.15
sg16
I1
sg17
I2
sg18
F1.2
sg19
F0.125
sg20
F0.9
sg21
I1
sg22
I-1
sg23
I512
sg24
F0.8
sg25
I1024
sg26
F0.125
sg27
g28
(g32
S'\n\xd7\xa3p=\n\xb7\xbf'
p105
tp106
Rp107
sg38
F0.5
sg39
I4
sg40
F0.3
sg41
F0.1
sg42
F0.3
sg43
I6
sg44
I12
sg45
g28
(g32
S'\xb8\x1e\x85\xebQ\xb8\x9e?'
p108
tp109
Rp110
sg49
I1
sg50
I1
sg51
g52
sg53
F0.1225
sg54
I1
sg55
I1
sg56
F0.2
sg57
g58
sg61
I15
sa(dp111
g4
I24
sg5
F0.4
sg6
F0.8
sg7
F0.05
sg8
F0.3
sg9
I8
sg10
I8
sg11
F0.95
sg12
I6
sg13
F0.4
sg14
I64
sg15
F0.15
sg16
I1
sg17
I2
sg18
F1.2
sg19
F0.125
sg20
F0.9
sg21
I1
sg22
I-1
sg23
I512
sg24
F0.8
sg25
I1024
sg26
F0.125
sg27
g28
(g32
S'\n\xd7\xa3p=\n\xb7\xbf'
p112
tp113
Rp114
sg38
F0.5
sg39
I4
sg40
F0.3
sg41
F0.1
sg42
F0.3
sg43
I6
sg44
I12
sg45
g28
(g32
S'\xb8\x1e\x85\xebQ\xb8\x9e\xbf'
p115
tp116
Rp117
sg49
I1
sg50
I1
sg51
g52
sg53
F0.1225
sg54
I1
sg55
I1
sg56
F0.2
sg57
g58
sg61
I15
sa(dp118
g4
I24
sg5
F0.4
sg6
F0.8
sg7
F0.05
sg8
F0.3
sg9
I8
sg10
I8
sg11
F0.95
sg12
I6
sg13
F0.4
sg14
I64
sg15
F0.15
sg16
I1
sg17
I2
sg18
F1.2
sg19
F0.125
sg20
F0.9
sg21
I1
sg22
I-1
sg23
I512
sg24
F0.8
sg25
I1024
sg26
F0.125
sg27
g28
(g32
S'\xb8\x1e\x85\xebQ\xb8\x9e\xbf'
p119
tp120
Rp121
sg38
F0.5
sg39
I4
sg40
F0.3
sg41
F0.1
sg42
F0.3
sg43
I6
sg44
I12
sg45
g28
(g32
S'\xb8\x1e\x85\xebQ\xb8\x9e\xbf'
p122
tp123
Rp124
sg49
I1
sg50
I1
sg51
g52
sg53
F0.1225
sg54
I1
sg55
I1
sg56
F0.2
sg57
g58
sg61
I15
sa(dp125
g4
I24
sg5
F0.4
sg6
F0.8
sg7
F0.05
sg8
F0.3
sg9
I8
sg10
I8
sg11
F0.95
sg12
I6
sg13
F0.4
sg14
I64
sg15
F0.15
sg16
I1
sg17
I2
sg18
F1.2
sg19
F0.125
sg20
F0.9
sg21
I1
sg22
I-1
sg23
I512
sg24
F0.8
sg25
I1024
sg26
F0.125
sg27
g28
(g32
S'\x00\x00\x00\x00\x00\x00\x00\x00'
p126
tp127
Rp128
sg38
F0.5
sg39
I4
sg40
F0.3
sg41
F0.1
sg42
F0.3
sg43
I6
sg44
I12
sg45
g28
(g32
S'\xb8\x1e\x85\xebQ\xb8\xbe\xbf'
p129
tp130
Rp131
sg49
I1
sg50
I1
sg51
g52
sg53
F0.1225
sg54
I1
sg55
I1
sg56
F0.2
sg57
g58
sg61
I15
sa(dp132
g4
I24
sg5
F0.4
sg6
F0.8
sg7
F0.05
sg8
F0.3
sg9
I8
sg10
I8
sg11
F0.95
sg12
I6
sg13
F0.4
sg14
I64
sg15
F0.15
sg16
I1
sg17
I2
sg18
F1.2
sg19
F0.125
sg20
F0.9
sg21
I1
sg22
I-1
sg23
I512
sg24
F0.8
sg25
I1024
sg26
F0.125
sg27
g28
(g32
S'\xb8\x1e\x85\xebQ\xb8\xae?'
p133
tp134
Rp135
sg38
F0.5
sg39
I4
sg40
F0.3
sg41
F0.1
sg42
F0.3
sg43
I6
sg44
I12
sg45
g28
(g32
S'\xb8\x1e\x85\xebQ\xb8\xbe\xbf'
p136
tp137
Rp138
sg49
I1
sg50
I1
sg51
g52
sg53
F0.1225
sg54
I1
sg55
I1
sg56
F0.2
sg57
g58
sg61
I15
sa(dp139
g4
I24
sg5
F0.4
sg6
F0.8
sg7
F0.05
sg8
F0.3
sg9
I8
sg10
I8
sg11
F0.95
sg12
I6
sg13
F0.4
sg14
I64
sg15
F0.15
sg16
I1
sg17
I2
sg18
F1.2
sg19
F0.125
sg20
F0.9
sg21
I1
sg22
I-1
sg23
I512
sg24
F0.8
sg25
I1024
sg26
F0.125
sg27
g28
(g32
S'333333\xc3?'
p140
tp141
Rp142
sg38
F0.5
sg39
I4
sg40
F0.3
sg41
F0.1
sg42
F0.3
sg43
I6
sg44
I12
sg45
g28
(g32
S'\xb8\x1e\x85\xebQ\xb8\x9e?'
p143
tp144
Rp145
sg49
I1
sg50
I1
sg51
g52
sg53
F0.1225
sg54
I1
sg55
I1
sg56
F0.2
sg57
g58
sg61
I15
sa(dp146
g4
I24
sg5
F0.4
sg6
F0.8
sg7
F0.05
sg8
F0.3
sg9
I8
sg10
I8
sg11
F0.95
sg12
I6
sg13
F0.4
sg14
I64
sg15
F0.15
sg16
I1
sg17
I2
sg18
F1.2
sg19
F0.125
sg20
F0.9
sg21
I1
sg22
I-1
sg23
I512
sg24
F0.8
sg25
I1024
sg26
F0.125
sg27
g28
(g32
S'\xb8\x1e\x85\xebQ\xb8\x9e\xbf'
p147
tp148
Rp149
sg38
F0.5
sg39
I4
sg40
F0.3
sg41
F0.1
sg42
F0.3
sg43
I6
sg44
I12
sg45
g28
(g32
S'\n\xd7\xa3p=\n\xb7\xbf'
p150
tp151
Rp152
sg49
I1
sg50
I1
sg51
g52
sg53
F0.1225
sg54
I1
sg55
I1
sg56
F0.2
sg57
g58
sg61
I15
sa(dp153
g4
I24
sg5
F0.4
sg6
F0.8
sg7
F0.05
sg8
F0.3
sg9
I8
sg10
I8
sg11
F0.95
sg12
I6
sg13
F0.4
sg14
I64
sg15
F0.15
sg16
I1
sg17
I2
sg18
F1.2
sg19
F0.125
sg20
F0.9
sg21
I1
sg22
I-1
sg23
I512
sg24
F0.8
sg25
I1024
sg26
F0.125
sg27
g28
(g32
S'\n\xd7\xa3p=\n\xb7\xbf'
p154
tp155
Rp156
sg38
F0.5
sg39
I4
sg40
F0.3
sg41
F0.1
sg42
F0.3
sg43
I6
sg44
I12
sg45
g28
(g32
S'\xb8\x1e\x85\xebQ\xb8\x9e\xbf'
p157
tp158
Rp159
sg49
I1
sg50
I1
sg51
g52
sg53
F0.1225
sg54
I1
sg55
I1
sg56
F0.2
sg57
g58
sg61
I15
sa(dp160
g4
I24
sg5
F0.4
sg6
F0.8
sg7
F0.05
sg8
F0.3
sg9
I8
sg10
I8
sg11
F0.95
sg12
I6
sg13
F0.4
sg14
I64
sg15
F0.15
sg16
I1
sg17
I2
sg18
F1.2
sg19
F0.125
sg20
F0.9
sg21
I1
sg22
I-1
sg23
I512
sg24
F0.8
sg25
I1024
sg26
F0.125
sg27
g28
(g32
S'333333\xc3\xbf'
p161
tp162
Rp163
sg38
F0.5
sg39
I4
sg40
F0.3
sg41
F0.1
sg42
F0.3
sg43
I6
sg44
I12
sg45
g28
(g32
S'\xb8\x1e\x85\xebQ\xb8\x9e\xbf'
p164
tp165
Rp166
sg49
I1
sg50
I1
sg51
g52
sg53
F0.1225
sg54
I1
sg55
I1
sg56
F0.2
sg57
g58
sg61
I15
sa(dp167
g4
I24
sg5
F0.4
sg6
F0.8
sg7
F0.05
sg8
F0.3
sg9
I8
sg10
I8
sg11
F0.95
sg12
I6
sg13
F0.4
sg14
I64
sg15
F0.15
sg16
I1
sg17
I2
sg18
F1.2
sg19
F0.125
sg20
F0.9
sg21
I1
sg22
I-1
sg23
I512
sg24
F0.8
sg25
I1024
sg26
F0.125
sg27
g28
(g32
S'\n\xd7\xa3p=\n\xb7?'
p168
tp169
Rp170
sg38
F0.5
sg39
I4
sg40
F0.3
sg41
F0.1
sg42
F0.3
sg43
I6
sg44
I12
sg45
g28
(g32
S'\xb8\x1e\x85\xebQ\xb8\x9e?'
p171
tp172
Rp173
sg49
I1
sg50
I1
sg51
g52
sg53
F0.1225
sg54
I1
sg55
I1
sg56
F0.2
sg57
g58
sg61
I15
sag167
asS'eventArray'
p174
(lp175
(lp176
S'trial 0 started at 6.7828168869'
p177
aS'trial 0 phase 1 started at 14.785558939'
p178
aS'trial 0 event t at 14.7855789661'
p179
aS'trial 0 phase 2 started at 15.2721099854'
p180
aS'trial 0 phase 3 started at 15.4725010395'
p181
aa(lp182
S'trial 1 started at 15.9336409569'
p183
aS'trial 1 phase 1 started at 19.5665428638'
p184
aS'trial 1 event t at 19.5665609837'
p185
aS'trial 1 phase 2 started at 20.0639939308'
p186
aS'trial 1 phase 3 started at 20.2640399933'
p187
aa(lp188
S'trial 2 started at 20.7227859497'
p189
aS'trial 2 phase 1 started at 22.3083438873'
p190
aS'trial 2 event t at 22.3083629608'
p191
aS'trial 2 phase 2 started at 22.8058400154'
p192
aS'trial 2 phase 3 started at 23.0140509605'
p193
aa(lp194
S'trial 3 started at 23.4664609432'
p195
aS'trial 3 phase 1 started at 24.5167059898'
p196
aS'trial 3 event t at 24.5167250633'
p197
aS'trial 3 phase 2 started at 25.005920887'
p198
aS'trial 3 phase 3 started at 25.2142210007'
p199
aa(lp200
S'trial 4 started at 25.6699149609'
p201
aS'trial 4 phase 1 started at 26.9667599201'
p202
aS'trial 4 event t at 26.9667789936'
p203
aS'trial 4 phase 2 started at 27.4559800625'
p204
aS'trial 4 phase 3 started at 27.6560070515'
p205
aa(lp206
S'trial 5 started at 28.1130299568'
p207
aS'trial 5 phase 1 started at 29.5254619122'
p208
aS'trial 5 event t at 29.5254878998'
p209
aS'trial 5 phase 2 started at 30.0144069195'
p210
aS'trial 5 phase 3 started at 30.214427948'
p211
aa(lp212
S'trial 6 started at 30.6633348465'
p213
aS'trial 6 phase 1 started at 31.9588639736'
p214
aS'trial 6 event t at 31.9588830471'
p215
aS'trial 6 phase 2 started at 32.4562289715'
p216
aS'trial 6 phase 3 started at 32.6562428474'
p217
aa(lp218
S'trial 7 started at 33.116920948'
p219
aS'trial 7 phase 1 started at 34.3255400658'
p220
aS'trial 7 event t at 34.3255589008'
p221
aS'trial 7 phase 2 started at 34.8230340481'
p222
aS'trial 7 phase 3 started at 35.0313360691'
p223
aa(lp224
S'trial 8 started at 35.4825809002'
p225
aS'trial 8 phase 1 started at 36.3005530834'
p226
aS'trial 8 event t at 36.3005728722'
p227
aS'trial 8 phase 2 started at 36.7980470657'
p228
aS'trial 8 phase 3 started at 37.0064589977'
p229
aa(lp230
S'trial 9 started at 37.4595639706'
p231
aS'trial 9 phase 1 started at 39.5924708843'
p232
aS'trial 9 event t at 39.5924918652'
p233
aS'trial 9 phase 2 started at 40.0815620422'
p234
aS'trial 9 phase 3 started at 40.2815978527'
p235
aa(lp236
S'trial 10 started at 40.7451169491'
p237
aS'trial 10 phase 1 started at 42.0008230209'
p238
aS'trial 10 event t at 42.000841856'
p239
aS'trial 10 phase 2 started at 42.4982988834'
p240
aS'trial 10 phase 3 started at 42.6984159946'
p241
aa(lp242
S'trial 11 started at 43.1619448662'
p243
aS'trial 11 phase 1 started at 47.2677919865'
p244
aS'trial 11 event t at 47.2678098679'
p245
aS'trial 11 phase 2 started at 47.7569260597'
p246
aS'trial 11 phase 3 started at 47.9569468498'
p247
aa(lp248
S'trial 12 started at 48.4132480621'
p249
aS'trial 12 phase 1 started at 49.3262550831'
p250
aS'trial 12 event t at 49.3262770176'
p251
aS'trial 12 phase 2 started at 49.8236129284'
p252
aS'trial 12 phase 3 started at 50.0236880779'
p253
aa(lp254
S'trial 13 started at 50.4817900658'
p255
aS'trial 13 phase 1 started at 52.8513140678'
p256
aS'trial 13 event t at 52.8513329029'
p257
aS'trial 13 phase 2 started at 53.3489449024'
p258
aS'trial 13 phase 3 started at 53.5572319031'
p259
aa(lp260
S'trial 14 started at 54.01978302'
p261
aS'trial 14 phase 1 started at 60.6268529892'
p262
aS'trial 14 event t at 60.6268708706'
p263
aS'trial 14 phase 2 started at 61.1158759594'
p264
aS'trial 14 phase 3 started at 61.3241889477'
p265
aa(lp266
S'trial 15 started at 61.7859940529'
p267
aS'trial 15 phase 1 started at 64.560199976'
p268
aS'trial 15 event t at 64.5602178574'
p269
aS'trial 15 phase 2 started at 65.0577030182'
p270
aS'trial 15 phase 3 started at 65.2577328682'
p271
aa(lp272
S'trial 16 started at 65.722288847'
p273
a(lp274
I-99
aF2.521144151687622
aaS'trial 16 event escape at 68.2434868813'
p275
aag272
as.