(dp0
S'parameterArray'
p1
(lp2
(dp3
Vprf_stim_barpass_duration
p4
I20
sVblobstim_fix_opacity
p5
F0.4
sVpixstim_fix_aperture_fraction
p6
F0.8
sVblobstim_fix_ecc_min
p7
F0.05
sVpost_fix_time
p8
F0.1
sVpixstim_bg_noise_n_textures
p9
I8
sVpixstim_fix_noise_n_textures
p10
I8
sVpixstim_bg_aperture_fraction
p11
F0.95
sVpsychometric_curve_nr_steps_oneside
p12
I6
sVsize_fixation_deg
p13
F0.4
sVpixstim_fix_tex_size
p14
I64
sVpsychometric_curve_interval
p15
F0.15
sVin_scanner
p16
I0
sVblobstim_fix_nr_blobrows_per_ring
p17
I2
sVTR
p18
F1.5
sVblobstim_bg_opacity
p19
F0.125
sVblobstim_fix_spacing_factor
p20
F0.9
sVpixstim_fix_amplitude_exponent
p21
I1
sS'answer'
p22
I-1
sVprf_checker_tex_nr_pix
p23
I512
sVblobstim_bg_spacing_factor
p24
F0.8
sVpixstim_bg_tex_size
p25
I1024
sVprf_checker_bar_width
p26
F0.125
sS'bg_trial_stimulus_value'
p27
cnumpy.core.multiarray
scalar
p28
(cnumpy
dtype
p29
(S'f8'
p30
I0
I1
tp31
Rp32
(I3
S'<'
p33
NNNI-1
I-1
I0
tp34
bS'\xb8\x1e\x85\xebQ\xb8\x9e\xbf'
p35
tp36
Rp37
sVfix_time
p38
F0.611
sVprf_checker_cycles_in_bar
p39
I4
sVpixstim_bg_opacity
p40
F0.3
sVblobstim_bg_ecc_min
p41
F0.1
sVpixstim_fix_opacity
p42
F0.3
sVprf_checker_flicker_frequency
p43
I6
sVblobstim_bg_nr_blobrows_per_ring
p44
I12
sS'fix_trial_stimulus_value'
p45
g28
(g32
S'\xb8\x1e\x85\xebQ\xb8\xbe?'
p46
tp47
Rp48
sVpixstim_bg_amplitude_exponent
p49
I1
sVwhich_stimulus_type
p50
I1
sVprf_stim_sequence_angles
p51
(lp52
I-1
aI0
aI-1
aI45
aI270
aI-1
aI315
aI180
aI-1
aI135
aI90
aI-1
aI225
aI-1
asVaperture_stim_sd
p53
F0.1225
sVblobstim_bg_nr_rings
p54
I1
sVblobstim_fix_nr_ring
p55
I1
sVstim_time
p56
F0.25
sVanswer_dictionary
p57
(dp58
Vy
p59
I1
sVb
p60
I0
ssVblobstim_bg_ecc_max
p61
I15
sa(dp62
g4
I20
sg5
F0.4
sg6
F0.8
sg7
F0.05
sg8
F0.1
sg9
I8
sg10
I8
sg11
F0.95
sg12
I6
sg13
F0.4
sg14
I64
sg15
F0.15
sg16
I0
sg17
I2
sg18
F1.5
sg19
F0.125
sg20
F0.9
sg21
I1
sg22
I0
sg23
I512
sg24
F0.8
sg25
I1024
sg26
F0.125
sg27
g28
(g32
S'\xb8\x1e\x85\xebQ\xb8\x9e?'
p63
tp64
Rp65
sg38
F0.611
sg39
I4
sg40
F0.3
sg41
F0.1
sg42
F0.3
sg43
I6
sg44
I12
sg45
g28
(g32
S'\xb8\x1e\x85\xebQ\xb8\xae\xbf'
p66
tp67
Rp68
sg49
I1
sg50
I1
sg51
g52
sg53
F0.1225
sg54
I1
sg55
I1
sg56
F0.25
sg57
g58
sg61
I15
sa(dp69
g4
I20
sg5
F0.4
sg6
F0.8
sg7
F0.05
sg8
F0.1
sg9
I8
sg10
I8
sg11
F0.95
sg12
I6
sg13
F0.4
sg14
I64
sg15
F0.15
sg16
I0
sg17
I2
sg18
F1.5
sg19
F0.125
sg20
F0.9
sg21
I1
sg22
I-1
sg23
I512
sg24
F0.8
sg25
I1024
sg26
F0.125
sg27
g28
(g32
S'\xb8\x1e\x85\xebQ\xb8\xae\xbf'
p70
tp71
Rp72
sg38
F0.611
sg39
I4
sg40
F0.3
sg41
F0.1
sg42
F0.3
sg43
I6
sg44
I12
sg45
g28
(g32
S'\xb8\x1e\x85\xebQ\xb8\xae?'
p73
tp74
Rp75
sg49
I1
sg50
I1
sg51
g52
sg53
F0.1225
sg54
I1
sg55
I1
sg56
F0.25
sg57
g58
sg61
I15
sa(dp76
g4
I20
sg5
F0.4
sg6
F0.8
sg7
F0.05
sg8
F0.1
sg9
I8
sg10
I8
sg11
F0.95
sg12
I6
sg13
F0.4
sg14
I64
sg15
F0.15
sg16
I0
sg17
I2
sg18
F1.5
sg19
F0.125
sg20
F0.9
sg21
I1
sg22
I1
sg23
I512
sg24
F0.8
sg25
I1024
sg26
F0.125
sg27
g28
(g32
S'\xb8\x1e\x85\xebQ\xb8\x9e\xbf'
p77
tp78
Rp79
sg38
F0.611
sg39
I4
sg40
F0.3
sg41
F0.1
sg42
F0.3
sg43
I6
sg44
I12
sg45
g28
(g32
S'\xb8\x1e\x85\xebQ\xb8\x9e\xbf'
p80
tp81
Rp82
sg49
I1
sg50
I1
sg51
g52
sg53
F0.1225
sg54
I1
sg55
I1
sg56
F0.25
sg57
g58
sg61
I15
sa(dp83
g4
I20
sg5
F0.4
sg6
F0.8
sg7
F0.05
sg8
F0.1
sg9
I8
sg10
I8
sg11
F0.95
sg12
I6
sg13
F0.4
sg14
I64
sg15
F0.15
sg16
I0
sg17
I2
sg18
F1.5
sg19
F0.125
sg20
F0.9
sg21
I1
sg22
I0
sg23
I512
sg24
F0.8
sg25
I1024
sg26
F0.125
sg27
g28
(g32
S'\n\xd7\xa3p=\n\xb7\xbf'
p84
tp85
Rp86
sg38
F0.611
sg39
I4
sg40
F0.3
sg41
F0.1
sg42
F0.3
sg43
I6
sg44
I12
sg45
g28
(g32
S'333333\xc3?'
p87
tp88
Rp89
sg49
I1
sg50
I1
sg51
g52
sg53
F0.1225
sg54
I1
sg55
I1
sg56
F0.25
sg57
g58
sg61
I15
sa(dp90
g4
I20
sg5
F0.4
sg6
F0.8
sg7
F0.05
sg8
F0.1
sg9
I8
sg10
I8
sg11
F0.95
sg12
I6
sg13
F0.4
sg14
I64
sg15
F0.15
sg16
I0
sg17
I2
sg18
F1.5
sg19
F0.125
sg20
F0.9
sg21
I1
sg22
I-1
sg23
I512
sg24
F0.8
sg25
I1024
sg26
F0.125
sg27
g28
(g32
S'333333\xc3?'
p91
tp92
Rp93
sg38
F0.611
sg39
I4
sg40
F0.3
sg41
F0.1
sg42
F0.3
sg43
I6
sg44
I12
sg45
g28
(g32
S'\xb8\x1e\x85\xebQ\xb8\x9e?'
p94
tp95
Rp96
sg49
I1
sg50
I1
sg51
g52
sg53
F0.1225
sg54
I1
sg55
I1
sg56
F0.25
sg57
g58
sg61
I15
sag90
asS'eventArray'
p97
(lp98
(lp99
S'trial 0 started at 6.62953782082'
p100
aS'trial 0 phase 1 started at 60.0785419941'
p101
aS'trial 0 event space at 60.0785629749'
p102
aS'trial 0 phase 2 started at 60.6642179489'
p103
aS'trial 0 phase 3 started at 60.9142489433'
p104
aa(lp105
S'trial 1 started at 61.2042958736'
p106
aS'trial 1 event b at 61.2227249146'
p107
aS'trial 1 phase 1 started at 61.7560069561'
p108
aS'trial 1 event g at 62.1927609444'
p109
aS'trial 1 phase 2 started at 62.372800827'
p110
aS'trial 1 phase 3 started at 62.6394119263'
p111
aS'trial 1 event g at 62.7088868618'
p112
aa(lp113
S'trial 2 started at 62.9014129639'
p114
aS'trial 2 phase 1 started at 63.4561369419'
p115
aS'trial 2 phase 2 started at 64.0813379288'
p116
aS'trial 2 phase 3 started at 64.3394579887'
p117
aa(lp118
S'trial 3 started at 64.6165380478'
p119
aS'trial 3 phase 1 started at 65.1645770073'
p120
aS'trial 3 phase 2 started at 65.7894909382'
p121
aS'trial 3 phase 3 started at 66.05626297'
p122
aS'trial 3 event y at 66.1089940071'
p123
aa(lp124
S'trial 4 started at 66.3188569546'
p125
aS'trial 4 phase 1 started at 66.8727879524'
p126
aS'trial 4 phase 2 started at 67.4895679951'
p127
aS'trial 4 event b at 67.5924088955'
p128
aS'trial 4 phase 3 started at 67.7396738529'
p129
aa(lp130
S'trial 5 started at 68.0192389488'
p131
a(lp132
I-99
aF0.2809879779815674
aaS'trial 5 event escape at 68.3002839088'
p133
aag130
as.