(dp0
S'parameterArray'
p1
(lp2
(dp3
Vprf_stim_barpass_duration
p4
I24
sVblobstim_fix_opacity
p5
F0.4
sVpixstim_fix_aperture_fraction
p6
F0.8
sVblobstim_fix_ecc_min
p7
F0.05
sVpost_fix_time
p8
F0.3
sVpixstim_bg_noise_n_textures
p9
I8
sVpixstim_fix_noise_n_textures
p10
I8
sVpixstim_bg_aperture_fraction
p11
F0.95
sVpsychometric_curve_nr_steps_oneside
p12
I6
sVsize_fixation_deg
p13
F0.4
sVpixstim_fix_tex_size
p14
I64
sVpsychometric_curve_interval
p15
F0.15
sVin_scanner
p16
I0
sVblobstim_fix_nr_blobrows_per_ring
p17
I2
sVTR
p18
F1.2
sVblobstim_bg_opacity
p19
F0.125
sVblobstim_fix_spacing_factor
p20
F0.9
sVpixstim_fix_amplitude_exponent
p21
I1
sS'answer'
p22
I-1
sVprf_checker_tex_nr_pix
p23
I512
sVblobstim_bg_spacing_factor
p24
F0.8
sVpixstim_bg_tex_size
p25
I1024
sVprf_checker_bar_width
p26
F0.125
sS'bg_trial_stimulus_value'
p27
cnumpy.core.multiarray
scalar
p28
(cnumpy
dtype
p29
(S'f8'
p30
I0
I1
tp31
Rp32
(I3
S'<'
p33
NNNI-1
I-1
I0
tp34
bS'\xb8\x1e\x85\xebQ\xb8\xae\xbf'
p35
tp36
Rp37
sVfix_time
p38
F0.5
sVprf_checker_cycles_in_bar
p39
I4
sVpixstim_bg_opacity
p40
F0.3
sVblobstim_bg_ecc_min
p41
F0.1
sVpixstim_fix_opacity
p42
F0.3
sVprf_checker_flicker_frequency
p43
I6
sVblobstim_bg_nr_blobrows_per_ring
p44
I12
sS'fix_trial_stimulus_value'
p45
g28
(g32
S'\xb8\x1e\x85\xebQ\xb8\x9e\xbf'
p46
tp47
Rp48
sVpixstim_bg_amplitude_exponent
p49
I1
sVwhich_stimulus_type
p50
I1
sVprf_stim_sequence_angles
p51
(lp52
I-1
aI0
aI-1
aI45
aI270
aI-1
aI315
aI180
aI-1
aI135
aI90
aI-1
aI225
aI-1
asVaperture_stim_sd
p53
F0.1225
sVblobstim_bg_nr_rings
p54
I1
sVblobstim_fix_nr_ring
p55
I1
sVstim_time
p56
F0.2
sVanswer_dictionary
p57
(dp58
Vy
p59
I1
sVb
p60
I0
ssVblobstim_bg_ecc_max
p61
I15
sa(dp62
g4
I24
sg5
F0.4
sg6
F0.8
sg7
F0.05
sg8
F0.3
sg9
I8
sg10
I8
sg11
F0.95
sg12
I6
sg13
F0.4
sg14
I64
sg15
F0.15
sg16
I0
sg17
I2
sg18
F1.2
sg19
F0.125
sg20
F0.9
sg21
I1
sg22
I-1
sg23
I512
sg24
F0.8
sg25
I1024
sg26
F0.125
sg27
g28
(g32
S'333333\xc3?'
p63
tp64
Rp65
sg38
F0.5
sg39
I4
sg40
F0.3
sg41
F0.1
sg42
F0.3
sg43
I6
sg44
I12
sg45
g28
(g32
S'333333\xc3?'
p66
tp67
Rp68
sg49
I1
sg50
I1
sg51
g52
sg53
F0.1225
sg54
I1
sg55
I1
sg56
F0.2
sg57
g58
sg61
I15
sa(dp69
g4
I24
sg5
F0.4
sg6
F0.8
sg7
F0.05
sg8
F0.3
sg9
I8
sg10
I8
sg11
F0.95
sg12
I6
sg13
F0.4
sg14
I64
sg15
F0.15
sg16
I0
sg17
I2
sg18
F1.2
sg19
F0.125
sg20
F0.9
sg21
I1
sg22
I-1
sg23
I512
sg24
F0.8
sg25
I1024
sg26
F0.125
sg27
g28
(g32
S'\n\xd7\xa3p=\n\xb7\xbf'
p70
tp71
Rp72
sg38
F0.5
sg39
I4
sg40
F0.3
sg41
F0.1
sg42
F0.3
sg43
I6
sg44
I12
sg45
g28
(g32
S'\xb8\x1e\x85\xebQ\xb8\xbe\xbf'
p73
tp74
Rp75
sg49
I1
sg50
I1
sg51
g52
sg53
F0.1225
sg54
I1
sg55
I1
sg56
F0.2
sg57
g58
sg61
I15
sa(dp76
g4
I24
sg5
F0.4
sg6
F0.8
sg7
F0.05
sg8
F0.3
sg9
I8
sg10
I8
sg11
F0.95
sg12
I6
sg13
F0.4
sg14
I64
sg15
F0.15
sg16
I0
sg17
I2
sg18
F1.2
sg19
F0.125
sg20
F0.9
sg21
I1
sg22
I-1
sg23
I512
sg24
F0.8
sg25
I1024
sg26
F0.125
sg27
g28
(g32
S'\n\xd7\xa3p=\n\xb7?'
p77
tp78
Rp79
sg38
F0.5
sg39
I4
sg40
F0.3
sg41
F0.1
sg42
F0.3
sg43
I6
sg44
I12
sg45
g28
(g32
S'\xb8\x1e\x85\xebQ\xb8\xae?'
p80
tp81
Rp82
sg49
I1
sg50
I1
sg51
g52
sg53
F0.1225
sg54
I1
sg55
I1
sg56
F0.2
sg57
g58
sg61
I15
sa(dp83
g4
I24
sg5
F0.4
sg6
F0.8
sg7
F0.05
sg8
F0.3
sg9
I8
sg10
I8
sg11
F0.95
sg12
I6
sg13
F0.4
sg14
I64
sg15
F0.15
sg16
I0
sg17
I2
sg18
F1.2
sg19
F0.125
sg20
F0.9
sg21
I1
sg22
I-1
sg23
I512
sg24
F0.8
sg25
I1024
sg26
F0.125
sg27
g28
(g32
S'\xb8\x1e\x85\xebQ\xb8\x9e\xbf'
p84
tp85
Rp86
sg38
F0.5
sg39
I4
sg40
F0.3
sg41
F0.1
sg42
F0.3
sg43
I6
sg44
I12
sg45
g28
(g32
S'\xb8\x1e\x85\xebQ\xb8\xae\xbf'
p87
tp88
Rp89
sg49
I1
sg50
I1
sg51
g52
sg53
F0.1225
sg54
I1
sg55
I1
sg56
F0.2
sg57
g58
sg61
I15
sa(dp90
g4
I24
sg5
F0.4
sg6
F0.8
sg7
F0.05
sg8
F0.3
sg9
I8
sg10
I8
sg11
F0.95
sg12
I6
sg13
F0.4
sg14
I64
sg15
F0.15
sg16
I0
sg17
I2
sg18
F1.2
sg19
F0.125
sg20
F0.9
sg21
I1
sg22
I-1
sg23
I512
sg24
F0.8
sg25
I1024
sg26
F0.125
sg27
g28
(g32
S'\xb8\x1e\x85\xebQ\xb8\xbe?'
p91
tp92
Rp93
sg38
F0.5
sg39
I4
sg40
F0.3
sg41
F0.1
sg42
F0.3
sg43
I6
sg44
I12
sg45
g28
(g32
S'\xb8\x1e\x85\xebQ\xb8\x9e\xbf'
p94
tp95
Rp96
sg49
I1
sg50
I1
sg51
g52
sg53
F0.1225
sg54
I1
sg55
I1
sg56
F0.2
sg57
g58
sg61
I15
sa(dp97
g4
I24
sg5
F0.4
sg6
F0.8
sg7
F0.05
sg8
F0.3
sg9
I8
sg10
I8
sg11
F0.95
sg12
I6
sg13
F0.4
sg14
I64
sg15
F0.15
sg16
I0
sg17
I2
sg18
F1.2
sg19
F0.125
sg20
F0.9
sg21
I1
sg22
I-1
sg23
I512
sg24
F0.8
sg25
I1024
sg26
F0.125
sg27
g28
(g32
S'\xb8\x1e\x85\xebQ\xb8\xae\xbf'
p98
tp99
Rp100
sg38
F0.5
sg39
I4
sg40
F0.3
sg41
F0.1
sg42
F0.3
sg43
I6
sg44
I12
sg45
g28
(g32
S'\xb8\x1e\x85\xebQ\xb8\xbe\xbf'
p101
tp102
Rp103
sg49
I1
sg50
I1
sg51
g52
sg53
F0.1225
sg54
I1
sg55
I1
sg56
F0.2
sg57
g58
sg61
I15
sag97
asS'eventArray'
p104
(lp105
(lp106
S'trial 0 started at 6.73604083061'
p107
aS'trial 0 phase 1 started at 13.8950300217'
p108
aS'trial 0 event t at 13.8950510025'
p109
aS'trial 0 phase 2 started at 14.3734369278'
p110
aS'trial 0 phase 3 started at 14.5734598637'
p111
aa(lp112
S'trial 1 started at 15.0234889984'
p113
aS'trial 1 phase 1 started at 15.2317698002'
p114
aS'trial 1 phase 2 started at 15.7401268482'
p115
aS'trial 1 phase 3 started at 15.9401979446'
p116
aa(lp117
S'trial 2 started at 16.3899519444'
p118
aS'trial 2 phase 1 started at 16.5901408195'
p119
aS'trial 2 phase 2 started at 17.0901939869'
p120
aS'trial 2 phase 3 started at 17.2985198498'
p121
aa(lp122
S'trial 3 started at 17.7478508949'
p123
aS'trial 3 phase 1 started at 17.9486479759'
p124
aS'trial 3 phase 2 started at 18.4570000172'
p125
aS'trial 3 phase 3 started at 18.6652739048'
p126
aa(lp127
S'trial 4 started at 19.1277968884'
p128
aS'trial 4 phase 1 started at 19.3318748474'
p129
aS'trial 4 phase 2 started at 19.8321218491'
p130
aS'trial 4 phase 3 started at 20.0403578281'
p131
aa(lp132
S'trial 5 started at 20.491132021'
p133
aS'trial 5 phase 1 started at 20.6986279488'
p134
aS'trial 5 phase 2 started at 21.1986968517'
p135
aS'trial 5 phase 3 started at 21.4070568085'
p136
aa(lp137
S'trial 6 started at 21.8596348763'
p138
aS'trial 6 phase 1 started at 22.065502882'
p139
aS'trial 6 phase 2 started at 22.5737879276'
p140
a(lp141
I-99
aF0.7248530387878418
aaS'trial 6 event escape at 22.5845398903'
p142
aag137
as.