(dp0
S'parameterArray'
p1
(lp2
(dp3
Vprf_stim_barpass_duration
p4
I20
sVblobstim_fix_opacity
p5
F0.4
sVpixstim_fix_aperture_fraction
p6
F0.8
sVblobstim_fix_ecc_min
p7
F0.05
sVpost_fix_time
p8
F0.1
sVpixstim_bg_noise_n_textures
p9
I8
sVpixstim_fix_noise_n_textures
p10
I8
sVpixstim_bg_aperture_fraction
p11
F0.95
sVpsychometric_curve_nr_steps_oneside
p12
I6
sVsize_fixation_deg
p13
F0.4
sVpixstim_fix_tex_size
p14
I64
sVpsychometric_curve_interval
p15
F0.15
sVin_scanner
p16
I0
sVblobstim_fix_nr_blobrows_per_ring
p17
I2
sVTR
p18
F1.5
sVblobstim_bg_opacity
p19
F0.125
sVblobstim_fix_spacing_factor
p20
F0.9
sVpixstim_fix_amplitude_exponent
p21
I1
sS'answer'
p22
I-1
sVprf_checker_tex_nr_pix
p23
I512
sVblobstim_bg_spacing_factor
p24
F0.8
sVpixstim_bg_tex_size
p25
I1024
sVprf_checker_bar_width
p26
F0.125
sS'bg_trial_stimulus_value'
p27
cnumpy.core.multiarray
scalar
p28
(cnumpy
dtype
p29
(S'f8'
p30
I0
I1
tp31
Rp32
(I3
S'<'
p33
NNNI-1
I-1
I0
tp34
bS'\xb8\x1e\x85\xebQ\xb8\xbe?'
p35
tp36
Rp37
sVfix_time
p38
F0.611
sVprf_checker_cycles_in_bar
p39
I4
sVpixstim_bg_opacity
p40
F0.3
sVblobstim_bg_ecc_min
p41
F0.1
sVpixstim_fix_opacity
p42
F0.3
sVprf_checker_flicker_frequency
p43
I6
sVblobstim_bg_nr_blobrows_per_ring
p44
I12
sS'fix_trial_stimulus_value'
p45
g28
(g32
S'\xb8\x1e\x85\xebQ\xb8\x9e?'
p46
tp47
Rp48
sVpixstim_bg_amplitude_exponent
p49
I1
sVwhich_stimulus_type
p50
I1
sVprf_stim_sequence_angles
p51
(lp52
I-1
aI0
aI-1
aI45
aI270
aI-1
aI315
aI180
aI-1
aI135
aI90
aI-1
aI225
aI-1
asVaperture_stim_sd
p53
F0.1225
sVblobstim_bg_nr_rings
p54
I1
sVblobstim_fix_nr_ring
p55
I1
sVstim_time
p56
F0.25
sVanswer_dictionary
p57
(dp58
Vy
p59
I1
sVb
p60
I0
ssVblobstim_bg_ecc_max
p61
I15
sag3
asS'eventArray'
p62
(lp63
(lp64
S'trial 0 started at 6.62426686287'
p65
a(lp66
I-99
aF0.047051191329956055
aaS'trial 0 event escape at 6.67137503624'
p67
aag64
as.