(dp0
S'parameterArray'
p1
(lp2
(dp3
Vprf_stim_barpass_duration
p4
I20
sVblobstim_fix_opacity
p5
F0.3
sVpixstim_fix_aperture_fraction
p6
F0.2
sVblobstim_fix_ecc_min
p7
F0.05
sVpost_fix_time
p8
F0.4
sVpixstim_bg_noise_n_textures
p9
I8
sVpixstim_fix_noise_n_textures
p10
I8
sVpixstim_bg_aperture_fraction
p11
F0.99
sVsize_fixation_deg
p12
F0.4
sVpixstim_fix_tex_size
p13
I64
sVfix_psychometric_curve_interval
p14
F0.18
sVin_scanner
p15
I0
sVblobstim_fix_nr_blobrows_per_ring
p16
I2
sVTR
p17
F1.2
sVblobstim_bg_opacity
p18
F0.125
sVblobstim_fix_spacing_factor
p19
F0.9
sVpixstim_fix_amplitude_exponent
p20
I1
sS'pos_in_bar_trajectory'
p21
cnumpy.core.multiarray
scalar
p22
(cnumpy
dtype
p23
(S'f8'
p24
I0
I1
tp25
Rp26
(I3
S'<'
p27
NNNI-1
I-1
I0
tp28
bS'\x00\x00\x00\x00\x00\x00\x00\x00'
p29
tp30
Rp31
sVfix_psychometric_curve_nr_steps_oneside
p32
I12
sS'answer'
p33
I-1
sVprf_checker_tex_nr_pix
p34
I512
sVblobstim_bg_spacing_factor
p35
F0.8
sVbg_psychometric_curve_interval
p36
F0.18
sVpixstim_bg_tex_size
p37
I1024
sVprf_checker_bar_width
p38
F0.125
sS'bg_trial_stimulus_value'
p39
g22
(g26
S'\xb7\x1e\x85\xebQ\xb8\xae\xbf'
p40
tp41
Rp42
sVfix_time
p43
F0.25
sVprf_checker_cycles_in_bar
p44
I2
sVpixstim_bg_opacity
p45
F0.2
sVblobstim_bg_ecc_min
p46
F0.1
sVpixstim_fix_opacity
p47
F0.9
sVprf_checker_flicker_frequency
p48
I2
sVblobstim_bg_nr_blobrows_per_ring
p49
I12
sS'fix_trial_stimulus_value'
p50
g22
(g26
S'233333\xc3?'
p51
tp52
Rp53
sVpixstim_bg_amplitude_exponent
p54
I1
sVwhich_stimulus_type
p55
I1
sVprf_stim_sequence_angles
p56
(lp57
I-1
aI0
aI225
aI-1
aI90
aI135
aI-1
aI180
aI45
aI-1
aI270
aI135
aI-1
asVprf_stim_blank_duration
p58
I10
sVaperture_stim_sd
p59
F0.1225
sVblobstim_bg_nr_rings
p60
I1
sVbg_psychometric_curve_nr_steps_oneside
p61
I12
sS'bar_orientation'
p62
g22
(g26
S'\x00\x00\x00\x00\x00\x00\xf0\xbf'
p63
tp64
Rp65
sVblobstim_fix_nr_ring
p66
I1
sVstim_time
p67
F0.5
sVanswer_dictionary
p68
(dp69
Vy
p70
I1
sVb
p71
I0
ssVblobstim_bg_ecc_max
p72
I15
sa(dp73
g4
I20
sg5
F0.3
sg6
F0.2
sg7
F0.05
sg8
F0.4
sg9
I8
sg10
I8
sg11
F0.99
sg12
F0.4
sg13
I64
sg14
F0.18
sg15
I0
sg16
I2
sg17
F1.2
sg18
F0.125
sg19
F0.9
sg20
I1
sg21
g22
(g26
S'\x00\x00\x00\x00\x00\x00\xf0?'
p74
tp75
Rp76
sg32
I12
sg33
I0
sg34
I512
sg35
F0.8
sg36
F0.18
sg37
I1024
sg38
F0.125
sg39
g22
(g26
S'233333\xc3?'
p77
tp78
Rp79
sg43
F0.25
sg44
I2
sg45
F0.2
sg46
F0.1
sg47
F0.9
sg48
I2
sg49
I12
sg50
g22
(g26
S'\xb8\x1e\x85\xebQ\xb8\x8e\xbf'
p80
tp81
Rp82
sg54
I1
sg55
I1
sg56
g57
sg58
I10
sg59
F0.1225
sg60
I1
sg61
I12
sg62
g22
(g26
S'\x00\x00\x00\x00\x00\x00\xf0\xbf'
p83
tp84
Rp85
sg66
I1
sg67
F0.5
sg68
g69
sg72
I15
sa(dp86
g4
I20
sg5
F0.3
sg6
F0.2
sg7
F0.05
sg8
F0.4
sg9
I8
sg10
I8
sg11
F0.99
sg12
F0.4
sg13
I64
sg14
F0.18
sg15
I0
sg16
I2
sg17
F1.2
sg18
F0.125
sg19
F0.9
sg20
I1
sg21
g22
(g26
S'\x00\x00\x00\x00\x00\x00\x00@'
p87
tp88
Rp89
sg32
I12
sg33
I1
sg34
I512
sg35
F0.8
sg36
F0.18
sg37
I1024
sg38
F0.125
sg39
g22
(g26
S'\n\xd7\xa3p=\n\xa7?'
p90
tp91
Rp92
sg43
F0.25
sg44
I2
sg45
F0.2
sg46
F0.1
sg47
F0.9
sg48
I2
sg49
I12
sg50
g22
(g26
S'\xb8\x1e\x85\xebQ\xb8\x8e?'
p93
tp94
Rp95
sg54
I1
sg55
I1
sg56
g57
sg58
I10
sg59
F0.1225
sg60
I1
sg61
I12
sg62
g22
(g26
S'\x00\x00\x00\x00\x00\x00\xf0\xbf'
p96
tp97
Rp98
sg66
I1
sg67
F0.5
sg68
g69
sg72
I15
sa(dp99
g4
I20
sg5
F0.3
sg6
F0.2
sg7
F0.05
sg8
F0.4
sg9
I8
sg10
I8
sg11
F0.99
sg12
F0.4
sg13
I64
sg14
F0.18
sg15
I0
sg16
I2
sg17
F1.2
sg18
F0.125
sg19
F0.9
sg20
I1
sg21
g22
(g26
S'\x00\x00\x00\x00\x00\x00\x08@'
p100
tp101
Rp102
sg32
I12
sg33
I0
sg34
I512
sg35
F0.8
sg36
F0.18
sg37
I1024
sg38
F0.125
sg39
g22
(g26
S'\xb7\x1e\x85\xebQ\xb8\xbe?'
p103
tp104
Rp105
sg43
F0.25
sg44
I2
sg45
F0.2
sg46
F0.1
sg47
F0.9
sg48
I2
sg49
I12
sg50
g22
(g26
S'233333\xc3\xbf'
p106
tp107
Rp108
sg54
I1
sg55
I1
sg56
g57
sg58
I10
sg59
F0.1225
sg60
I1
sg61
I12
sg62
g22
(g26
S'\x00\x00\x00\x00\x00\x00\xf0\xbf'
p109
tp110
Rp111
sg66
I1
sg67
F0.5
sg68
g69
sg72
I15
sa(dp112
g4
I20
sg5
F0.3
sg6
F0.2
sg7
F0.05
sg8
F0.4
sg9
I8
sg10
I8
sg11
F0.99
sg12
F0.4
sg13
I64
sg14
F0.18
sg15
I0
sg16
I2
sg17
F1.2
sg18
F0.125
sg19
F0.9
sg20
I1
sg21
g22
(g26
S'\x00\x00\x00\x00\x00\x00\x10@'
p113
tp114
Rp115
sg32
I12
sg33
I1
sg34
I512
sg35
F0.8
sg36
F0.18
sg37
I1024
sg38
F0.125
sg39
g22
(g26
S'\xb7\x1e\x85\xebQ\xb8\xae?'
p116
tp117
Rp118
sg43
F0.25
sg44
I2
sg45
F0.2
sg46
F0.1
sg47
F0.9
sg48
I2
sg49
I12
sg50
g22
(g26
S'\xb7\x1e\x85\xebQ\xb8\xbe\xbf'
p119
tp120
Rp121
sg54
I1
sg55
I1
sg56
g57
sg58
I10
sg59
F0.1225
sg60
I1
sg61
I12
sg62
g22
(g26
S'\x00\x00\x00\x00\x00\x00\xf0\xbf'
p122
tp123
Rp124
sg66
I1
sg67
F0.5
sg68
g69
sg72
I15
sa(dp125
g4
I20
sg5
F0.3
sg6
F0.2
sg7
F0.05
sg8
F0.4
sg9
I8
sg10
I8
sg11
F0.99
sg12
F0.4
sg13
I64
sg14
F0.18
sg15
I0
sg16
I2
sg17
F1.2
sg18
F0.125
sg19
F0.9
sg20
I1
sg21
g22
(g26
S'\x00\x00\x00\x00\x00\x00\x14@'
p126
tp127
Rp128
sg32
I12
sg33
I0
sg34
I512
sg35
F0.8
sg36
F0.18
sg37
I1024
sg38
F0.125
sg39
g22
(g26
S'\n\xd7\xa3p=\n\xa7\xbf'
p129
tp130
Rp131
sg43
F0.25
sg44
I2
sg45
F0.2
sg46
F0.1
sg47
F0.9
sg48
I2
sg49
I12
sg50
g22
(g26
S'233333\xb3\xbf'
p132
tp133
Rp134
sg54
I1
sg55
I1
sg56
g57
sg58
I10
sg59
F0.1225
sg60
I1
sg61
I12
sg62
g22
(g26
S'\x00\x00\x00\x00\x00\x00\xf0\xbf'
p135
tp136
Rp137
sg66
I1
sg67
F0.5
sg68
g69
sg72
I15
sa(dp138
g4
I20
sg5
F0.3
sg6
F0.2
sg7
F0.05
sg8
F0.4
sg9
I8
sg10
I8
sg11
F0.99
sg12
F0.4
sg13
I64
sg14
F0.18
sg15
I0
sg16
I2
sg17
F1.2
sg18
F0.125
sg19
F0.9
sg20
I1
sg21
g22
(g26
S'\x00\x00\x00\x00\x00\x00\x18@'
p139
tp140
Rp141
sg32
I12
sg33
I-1
sg34
I512
sg35
F0.8
sg36
F0.18
sg37
I1024
sg38
F0.125
sg39
g22
(g26
S'\xb7\x1e\x85\xebQ\xb8\xbe\xbf'
p142
tp143
Rp144
sg43
F0.25
sg44
I2
sg45
F0.2
sg46
F0.1
sg47
F0.9
sg48
I2
sg49
I12
sg50
g22
(g26
S'\xb7\x1e\x85\xebQ\xb8\xae\xbf'
p145
tp146
Rp147
sg54
I1
sg55
I1
sg56
g57
sg58
I10
sg59
F0.1225
sg60
I1
sg61
I12
sg62
g22
(g26
S'\x00\x00\x00\x00\x00\x00\xf0\xbf'
p148
tp149
Rp150
sg66
I1
sg67
F0.5
sg68
g69
sg72
I15
sag138
asS'eventArray'
p151
(lp152
(lp153
S'trial 0 started at 3.81164193153'
p154
aS'trial 0 phase 1 started at 17.9252970219'
p155
aS'trial 0 event space at 17.9253129959'
p156
aS'trial 0 phase 2 started at 18.1441309452'
p157
aS'trial 0 phase 3 started at 18.6604800224'
p158
aa(lp159
S'trial 1 started at 19.1527709961'
p160
aS'trial 1 phase 1 started at 19.152782917'
p161
aS'trial 1 event b at 19.1955828667'
p162
aS'trial 1 phase 2 started at 19.411108017'
p163
aS'trial 1 phase 3 started at 19.9111330509'
p164
aS'trial 1 event y at 20.1815369129'
p165
aa(lp166
S'trial 2 started at 20.392925024'
p167
aS'trial 2 phase 1 started at 20.3929359913'
p168
aS'trial 2 phase 2 started at 20.6439058781'
p169
aS'trial 2 phase 3 started at 21.1602809429'
p170
aS'trial 2 event y at 21.1936039925'
p171
aa(lp172
S'trial 3 started at 21.6300299168'
p173
aS'trial 3 phase 1 started at 21.6300470829'
p174
aS'trial 3 phase 2 started at 21.8934280872'
p175
aS'trial 3 event b at 22.3446910381'
p176
aS'trial 3 phase 3 started at 22.3938589096'
p177
aa(lp178
S'trial 4 started at 22.8770968914'
p179
aS'trial 4 phase 1 started at 22.8771090508'
p180
aS'trial 4 phase 2 started at 23.143830061'
p181
aS'trial 4 event y at 23.4805140495'
p182
aS'trial 4 phase 3 started at 23.6600790024'
p183
aa(lp184
S'trial 5 started at 24.142663002'
p185
aS'trial 5 phase 1 started at 24.1426739693'
p186
aS'trial 5 phase 2 started at 24.3927910328'
p187
aS'trial 5 event b at 24.8977999687'
p188
aS'trial 5 phase 3 started at 24.89782691'
p189
aa(lp190
S'trial 6 started at 25.3757860661'
p191
aS'trial 6 phase 1 started at 25.3757970333'
p192
aS'trial 6 phase 2 started at 25.6263020039'
p193
a(lp194
I-99
aF0.7531859874725342
aaS'trial 6 event escape at 26.1290090084'
p195
aag190
as.