(dp0
S'parameterArray'
p1
(lp2
(dp3
Vprf_stim_barpass_duration
p4
I20
sVblobstim_fix_opacity
p5
F0.3
sVpixstim_fix_aperture_fraction
p6
F0.2
sVblobstim_fix_ecc_min
p7
F0.05
sVpost_fix_time
p8
F0.7
sVpixstim_bg_noise_n_textures
p9
I8
sVpixstim_fix_noise_n_textures
p10
I8
sVpixstim_bg_aperture_fraction
p11
F0.99
sVsize_fixation_deg
p12
F0.4
sVpixstim_fix_tex_size
p13
I64
sVfix_psychometric_curve_interval
p14
F0.18
sVin_scanner
p15
I0
sVblobstim_fix_nr_blobrows_per_ring
p16
I2
sVTR
p17
F1.5
sVblobstim_bg_opacity
p18
F0.125
sVblobstim_fix_spacing_factor
p19
F0.9
sVpixstim_fix_amplitude_exponent
p20
I1
sS'pos_in_bar_trajectory'
p21
cnumpy.core.multiarray
scalar
p22
(cnumpy
dtype
p23
(S'f8'
p24
I0
I1
tp25
Rp26
(I3
S'<'
p27
NNNI-1
I-1
I0
tp28
bS'\x00\x00\x00\x00\x00\x00\x00\x00'
p29
tp30
Rp31
sVfix_psychometric_curve_nr_steps_oneside
p32
I12
sS'answer'
p33
I0
sVprf_checker_tex_nr_pix
p34
I512
sVblobstim_bg_spacing_factor
p35
F0.8
sVbg_psychometric_curve_interval
p36
F0.18
sVpixstim_bg_tex_size
p37
I1024
sVprf_checker_bar_width
p38
F0.125
sS'bg_trial_stimulus_value'
p39
g22
(g26
S'\xb7\x1e\x85\xebQ\xb8\xbe\xbf'
p40
tp41
Rp42
sVfix_time
p43
F0.25
sVprf_checker_cycles_in_bar
p44
I2
sVpixstim_bg_opacity
p45
F0.1
sVblobstim_bg_ecc_min
p46
F0.1
sVpixstim_fix_opacity
p47
F0.6
sVprf_checker_flicker_frequency
p48
I2
sVblobstim_bg_nr_blobrows_per_ring
p49
I12
sS'fix_trial_stimulus_value'
p50
g22
(g26
S'\xb8\x1e\x85\xebQ\xb8\x8e\xbf'
p51
tp52
Rp53
sVpixstim_bg_amplitude_exponent
p54
I1
sVwhich_stimulus_type
p55
I1
sVprf_stim_sequence_angles
p56
(lp57
I-1
aI0
aI225
aI-1
aI90
aI135
aI-1
aI180
aI45
aI-1
aI270
aI135
aI-1
asVprf_stim_blank_duration
p58
I10
sVaperture_stim_sd
p59
F0.1225
sVblobstim_bg_nr_rings
p60
I1
sVbg_psychometric_curve_nr_steps_oneside
p61
I12
sS'bar_orientation'
p62
g22
(g26
S'\x00\x00\x00\x00\x00\x00\xf0\xbf'
p63
tp64
Rp65
sVblobstim_fix_nr_ring
p66
I1
sVstim_time
p67
F0.5
sVanswer_dictionary
p68
(dp69
Vy
p70
I1
sVb
p71
I0
ssVblobstim_bg_ecc_max
p72
I15
sa(dp73
g4
I20
sg5
F0.3
sg6
F0.2
sg7
F0.05
sg8
F0.7
sg9
I8
sg10
I8
sg11
F0.99
sg12
F0.4
sg13
I64
sg14
F0.18
sg15
I0
sg16
I2
sg17
F1.5
sg18
F0.125
sg19
F0.9
sg20
I1
sg21
g22
(g26
S'\x00\x00\x00\x00\x00\x00\xf0?'
p74
tp75
Rp76
sg32
I12
sg33
I0
sg34
I512
sg35
F0.8
sg36
F0.18
sg37
I1024
sg38
F0.125
sg39
g22
(g26
S'233333\xc3\xbf'
p77
tp78
Rp79
sg43
F0.25
sg44
I2
sg45
F0.1
sg46
F0.1
sg47
F0.6
sg48
I2
sg49
I12
sg50
g22
(g26
S'\n\xd7\xa3p=\n\xc7\xbf'
p80
tp81
Rp82
sg54
I1
sg55
I1
sg56
g57
sg58
I10
sg59
F0.1225
sg60
I1
sg61
I12
sg62
g22
(g26
S'\x00\x00\x00\x00\x00\x00\xf0\xbf'
p83
tp84
Rp85
sg66
I1
sg67
F0.5
sg68
g69
sg72
I15
sa(dp86
g4
I20
sg5
F0.3
sg6
F0.2
sg7
F0.05
sg8
F0.7
sg9
I8
sg10
I8
sg11
F0.99
sg12
F0.4
sg13
I64
sg14
F0.18
sg15
I0
sg16
I2
sg17
F1.5
sg18
F0.125
sg19
F0.9
sg20
I1
sg21
g22
(g26
S'\x00\x00\x00\x00\x00\x00\x00@'
p87
tp88
Rp89
sg32
I12
sg33
I0
sg34
I512
sg35
F0.8
sg36
F0.18
sg37
I1024
sg38
F0.125
sg39
g22
(g26
S'\t\xd7\xa3p=\n\xb7\xbf'
p90
tp91
Rp92
sg43
F0.25
sg44
I2
sg45
F0.1
sg46
F0.1
sg47
F0.6
sg48
I2
sg49
I12
sg50
g22
(g26
S'233333\xc3\xbf'
p93
tp94
Rp95
sg54
I1
sg55
I1
sg56
g57
sg58
I10
sg59
F0.1225
sg60
I1
sg61
I12
sg62
g22
(g26
S'\x00\x00\x00\x00\x00\x00\xf0\xbf'
p96
tp97
Rp98
sg66
I1
sg67
F0.5
sg68
g69
sg72
I15
sa(dp99
g4
I20
sg5
F0.3
sg6
F0.2
sg7
F0.05
sg8
F0.7
sg9
I8
sg10
I8
sg11
F0.99
sg12
F0.4
sg13
I64
sg14
F0.18
sg15
I0
sg16
I2
sg17
F1.5
sg18
F0.125
sg19
F0.9
sg20
I1
sg21
g22
(g26
S'\x00\x00\x00\x00\x00\x00\x08@'
p100
tp101
Rp102
sg32
I12
sg33
I1
sg34
I512
sg35
F0.8
sg36
F0.18
sg37
I1024
sg38
F0.125
sg39
g22
(g26
S'\xb8\x1e\x85\xebQ\xb8\x8e\xbf'
p103
tp104
Rp105
sg43
F0.25
sg44
I2
sg45
F0.1
sg46
F0.1
sg47
F0.6
sg48
I2
sg49
I12
sg50
g22
(g26
S'\xe0z\x14\xaeG\xe1\xba\xbf'
p106
tp107
Rp108
sg54
I1
sg55
I1
sg56
g57
sg58
I10
sg59
F0.1225
sg60
I1
sg61
I12
sg62
g22
(g26
S'\x00\x00\x00\x00\x00\x00\xf0\xbf'
p109
tp110
Rp111
sg66
I1
sg67
F0.5
sg68
g69
sg72
I15
sa(dp112
g4
I20
sg5
F0.3
sg6
F0.2
sg7
F0.05
sg8
F0.7
sg9
I8
sg10
I8
sg11
F0.99
sg12
F0.4
sg13
I64
sg14
F0.18
sg15
I0
sg16
I2
sg17
F1.5
sg18
F0.125
sg19
F0.9
sg20
I1
sg21
g22
(g26
S'\x00\x00\x00\x00\x00\x00\x10@'
p113
tp114
Rp115
sg32
I12
sg33
I0
sg34
I512
sg35
F0.8
sg36
F0.18
sg37
I1024
sg38
F0.125
sg39
g22
(g26
S'\n\xd7\xa3p=\n\xa7\xbf'
p116
tp117
Rp118
sg43
F0.25
sg44
I2
sg45
F0.1
sg46
F0.1
sg47
F0.6
sg48
I2
sg49
I12
sg50
g22
(g26
S'G\xe1z\x14\xaeG\xc1\xbf'
p119
tp120
Rp121
sg54
I1
sg55
I1
sg56
g57
sg58
I10
sg59
F0.1225
sg60
I1
sg61
I12
sg62
g22
(g26
S'\x00\x00\x00\x00\x00\x00\xf0\xbf'
p122
tp123
Rp124
sg66
I1
sg67
F0.5
sg68
g69
sg72
I15
sa(dp125
g4
I20
sg5
F0.3
sg6
F0.2
sg7
F0.05
sg8
F0.7
sg9
I8
sg10
I8
sg11
F0.99
sg12
F0.4
sg13
I64
sg14
F0.18
sg15
I0
sg16
I2
sg17
F1.5
sg18
F0.125
sg19
F0.9
sg20
I1
sg21
g22
(g26
S'\x00\x00\x00\x00\x00\x00\x14@'
p126
tp127
Rp128
sg32
I12
sg33
I0
sg34
I512
sg35
F0.8
sg36
F0.18
sg37
I1024
sg38
F0.125
sg39
g22
(g26
S'\n\xd7\xa3p=\n\xc7\xbf'
p129
tp130
Rp131
sg43
F0.25
sg44
I2
sg45
F0.1
sg46
F0.1
sg47
F0.6
sg48
I2
sg49
I12
sg50
g22
(g26
S'\xb7\x1e\x85\xebQ\xb8\xbe\xbf'
p132
tp133
Rp134
sg54
I1
sg55
I1
sg56
g57
sg58
I10
sg59
F0.1225
sg60
I1
sg61
I12
sg62
g22
(g26
S'\x00\x00\x00\x00\x00\x00\xf0\xbf'
p135
tp136
Rp137
sg66
I1
sg67
F0.5
sg68
g69
sg72
I15
sa(dp138
g4
I20
sg5
F0.3
sg6
F0.2
sg7
F0.05
sg8
F0.7
sg9
I8
sg10
I8
sg11
F0.99
sg12
F0.4
sg13
I64
sg14
F0.18
sg15
I0
sg16
I2
sg17
F1.5
sg18
F0.125
sg19
F0.9
sg20
I1
sg21
g22
(g26
S'\x00\x00\x00\x00\x00\x00\x18@'
p139
tp140
Rp141
sg32
I12
sg33
I1
sg34
I512
sg35
F0.8
sg36
F0.18
sg37
I1024
sg38
F0.125
sg39
g22
(g26
S'\xb8\x1e\x85\xebQ\xb8\x8e?'
p142
tp143
Rp144
sg43
F0.25
sg44
I2
sg45
F0.1
sg46
F0.1
sg47
F0.6
sg48
I2
sg49
I12
sg50
g22
(g26
S'233333\xb3\xbf'
p145
tp146
Rp147
sg54
I1
sg55
I1
sg56
g57
sg58
I10
sg59
F0.1225
sg60
I1
sg61
I12
sg62
g22
(g26
S'\x00\x00\x00\x00\x00\x00\xf0\xbf'
p148
tp149
Rp150
sg66
I1
sg67
F0.5
sg68
g69
sg72
I15
sa(dp151
g4
I20
sg5
F0.3
sg6
F0.2
sg7
F0.05
sg8
F0.7
sg9
I8
sg10
I8
sg11
F0.99
sg12
F0.4
sg13
I64
sg14
F0.18
sg15
I0
sg16
I2
sg17
F1.5
sg18
F0.125
sg19
F0.9
sg20
I1
sg21
g22
(g26
S'\x00\x00\x00\x00\x00\x00\x1c@'
p152
tp153
Rp154
sg32
I12
sg33
I1
sg34
I512
sg35
F0.8
sg36
F0.18
sg37
I1024
sg38
F0.125
sg39
g22
(g26
S'\t\xd7\xa3p=\n\xb7?'
p155
tp156
Rp157
sg43
F0.25
sg44
I2
sg45
F0.1
sg46
F0.1
sg47
F0.6
sg48
I2
sg49
I12
sg50
g22
(g26
S'G\xe1z\x14\xaeG\xc1\xbf'
p158
tp159
Rp160
sg54
I1
sg55
I1
sg56
g57
sg58
I10
sg59
F0.1225
sg60
I1
sg61
I12
sg62
g22
(g26
S'\x00\x00\x00\x00\x00\x00\xf0\xbf'
p161
tp162
Rp163
sg66
I1
sg67
F0.5
sg68
g69
sg72
I15
sa(dp164
g4
I20
sg5
F0.3
sg6
F0.2
sg7
F0.05
sg8
F0.7
sg9
I8
sg10
I8
sg11
F0.99
sg12
F0.4
sg13
I64
sg14
F0.18
sg15
I0
sg16
I2
sg17
F1.5
sg18
F0.125
sg19
F0.9
sg20
I1
sg21
g22
(g26
S'\x00\x00\x00\x00\x00\x00 @'
p165
tp166
Rp167
sg32
I12
sg33
I0
sg34
I512
sg35
F0.8
sg36
F0.18
sg37
I1024
sg38
F0.125
sg39
g22
(g26
S'233333\xb3\xbf'
p168
tp169
Rp170
sg43
F0.25
sg44
I2
sg45
F0.1
sg46
F0.1
sg47
F0.6
sg48
I2
sg49
I12
sg50
g22
(g26
S'\xb8\x1e\x85\xebQ\xb8\x8e?'
p171
tp172
Rp173
sg54
I1
sg55
I1
sg56
g57
sg58
I10
sg59
F0.1225
sg60
I1
sg61
I12
sg62
g22
(g26
S'\x00\x00\x00\x00\x00\x00\xf0\xbf'
p174
tp175
Rp176
sg66
I1
sg67
F0.5
sg68
g69
sg72
I15
sa(dp177
g4
I20
sg5
F0.3
sg6
F0.2
sg7
F0.05
sg8
F0.7
sg9
I8
sg10
I8
sg11
F0.99
sg12
F0.4
sg13
I64
sg14
F0.18
sg15
I0
sg16
I2
sg17
F1.5
sg18
F0.125
sg19
F0.9
sg20
I1
sg21
g22
(g26
S'\x00\x00\x00\x00\x00\x00"@'
p178
tp179
Rp180
sg32
I12
sg33
I-1
sg34
I512
sg35
F0.8
sg36
F0.18
sg37
I1024
sg38
F0.125
sg39
g22
(g26
S'\t\xd7\xa3p=\n\xb7?'
p181
tp182
Rp183
sg43
F0.25
sg44
I2
sg45
F0.1
sg46
F0.1
sg47
F0.6
sg48
I2
sg49
I12
sg50
g22
(g26
S'\xb8\x1e\x85\xebQ\xb8\x8e\xbf'
p184
tp185
Rp186
sg54
I1
sg55
I1
sg56
g57
sg58
I10
sg59
F0.1225
sg60
I1
sg61
I12
sg62
g22
(g26
S'\x00\x00\x00\x00\x00\x00\xf0\xbf'
p187
tp188
Rp189
sg66
I1
sg67
F0.5
sg68
g69
sg72
I15
sag177
asS'eventArray'
p190
(lp191
(lp192
S'trial 0 started at 3.74564886093'
p193
aS'trial 0 phase 1 started at 34.5248270035'
p194
aS'trial 0 event space at 34.5248420238'
p195
aS'trial 0 phase 2 started at 34.762212038'
p196
aS'trial 0 phase 3 started at 35.2784609795'
p197
aS'trial 0 event b at 35.4653818607'
p198
aa(lp199
S'trial 1 started at 36.068146944'
p200
aS'trial 1 phase 1 started at 36.0681579113'
p201
aS'trial 1 phase 2 started at 36.328305006'
p202
aS'trial 1 phase 3 started at 36.8289320469'
p203
aS'trial 1 event b at 36.9654910564'
p204
aa(lp205
S'trial 2 started at 37.6108059883'
p206
aS'trial 2 phase 1 started at 37.6108179092'
p207
aS'trial 2 phase 2 started at 37.8621809483'
p208
aS'trial 2 phase 3 started at 38.3622319698'
p209
aS'trial 2 event b at 38.4490449429'
p210
aa(lp211
S'trial 3 started at 39.1471068859'
p212
aS'trial 3 phase 1 started at 39.1471259594'
p213
aS'trial 3 phase 2 started at 39.4115378857'
p214
aS'trial 3 event y at 39.8958539963'
p215
aS'trial 3 phase 3 started at 39.928000927'
p216
aa(lp217
S'trial 4 started at 40.7108328342'
p218
aS'trial 4 phase 1 started at 40.7108449936'
p219
aS'trial 4 phase 2 started at 40.961261034'
p220
aS'trial 4 phase 3 started at 41.4778549671'
p221
aS'trial 4 event b at 41.5629980564'
p222
aa(lp223
S'trial 5 started at 42.2416298389'
p224
aS'trial 5 phase 1 started at 42.2416419983'
p225
aS'trial 5 phase 2 started at 42.4948458672'
p226
aS'trial 5 phase 3 started at 43.0118980408'
p227
aS'trial 5 event b at 43.0314369202'
p228
aa(lp229
S'trial 6 started at 43.7906720638'
p230
aS'trial 6 phase 1 started at 43.7906839848'
p231
aS'trial 6 phase 2 started at 44.0426828861'
p232
aS'trial 6 phase 3 started at 44.5442590714'
p233
aS'trial 6 event y at 44.6805300713'
p234
aa(lp235
S'trial 7 started at 45.3138768673'
p236
aS'trial 7 phase 1 started at 45.3138949871'
p237
aS'trial 7 phase 2 started at 45.5779008865'
p238
aS'trial 7 phase 3 started at 46.0940759182'
p239
aS'trial 7 event y at 46.1938269138'
p240
aa(lp241
S'trial 8 started at 46.8600389957'
p242
aS'trial 8 phase 1 started at 46.860049963'
p243
aS'trial 8 phase 2 started at 47.1110670567'
p244
aS'trial 8 phase 3 started at 47.6279790401'
p245
aS'trial 8 event b at 47.7313098907'
p246
aa(lp247
S'trial 9 started at 48.4107890129'
p248
aS'trial 9 phase 1 started at 48.4107999802'
p249
a(lp250
I-99
aF0.05313396453857422
aaS'trial 9 event escape at 48.463973999'
p251
aag247
as.