(dp0
S'parameterArray'
p1
(lp2
(dp3
Vprf_stim_barpass_duration
p4
I20
sVblobstim_fix_opacity
p5
F0.3
sVpixstim_fix_aperture_fraction
p6
F0.2
sVblobstim_fix_ecc_min
p7
F0.05
sVpost_fix_time
p8
F0.4
sVpixstim_bg_noise_n_textures
p9
I8
sVpixstim_fix_noise_n_textures
p10
I8
sVpixstim_bg_aperture_fraction
p11
F0.99
sVsize_fixation_deg
p12
F0.4
sVpixstim_fix_tex_size
p13
I64
sVfix_psychometric_curve_interval
p14
F0.15
sVin_scanner
p15
I0
sVblobstim_fix_nr_blobrows_per_ring
p16
I2
sVTR
p17
F1.2
sVblobstim_bg_opacity
p18
F0.125
sVblobstim_fix_spacing_factor
p19
F0.9
sVpixstim_fix_amplitude_exponent
p20
I1
sS'pos_in_bar_trajectory'
p21
cnumpy.core.multiarray
scalar
p22
(cnumpy
dtype
p23
(S'f8'
p24
I0
I1
tp25
Rp26
(I3
S'<'
p27
NNNI-1
I-1
I0
tp28
bS'\x00\x00\x00\x00\x00\x00\x00\x00'
p29
tp30
Rp31
sVfix_psychometric_curve_nr_steps_oneside
p32
I6
sS'answer'
p33
I-1
sVprf_checker_tex_nr_pix
p34
I512
sVblobstim_bg_spacing_factor
p35
F0.8
sVbg_psychometric_curve_interval
p36
F0.15
sVpixstim_bg_tex_size
p37
I1024
sVprf_checker_bar_width
p38
F0.125
sS'bg_trial_stimulus_value'
p39
g22
(g26
S'\x9a\x99\x99\x99\x99\x99\xa9\xbf'
p40
tp41
Rp42
sVfix_time
p43
F0.25
sVprf_checker_cycles_in_bar
p44
I2
sVpixstim_bg_opacity
p45
F0.2
sVblobstim_bg_ecc_min
p46
F0.1
sVpixstim_fix_opacity
p47
F0.6
sVprf_checker_flicker_frequency
p48
I6
sVblobstim_bg_nr_blobrows_per_ring
p49
I12
sS'fix_trial_stimulus_value'
p50
g22
(g26
S'\x99\x99\x99\x99\x99\x99\x99?'
p51
tp52
Rp53
sVpixstim_bg_amplitude_exponent
p54
I1
sVwhich_stimulus_type
p55
I1
sVprf_stim_sequence_angles
p56
(lp57
I-1
aI0
aI225
aI-1
aI90
aI135
aI-1
aI180
aI45
aI-1
aI270
aI135
aI-1
asVprf_stim_blank_duration
p58
I10
sVaperture_stim_sd
p59
F0.1225
sVblobstim_bg_nr_rings
p60
I1
sVbg_psychometric_curve_nr_steps_oneside
p61
I6
sS'bar_orientation'
p62
g22
(g26
S'\x00\x00\x00\x00\x00\x00\xf0\xbf'
p63
tp64
Rp65
sVblobstim_fix_nr_ring
p66
I1
sVstim_time
p67
F0.2
sVanswer_dictionary
p68
(dp69
Vy
p70
I1
sVb
p71
I0
ssVblobstim_bg_ecc_max
p72
I15
sa(dp73
g4
I20
sg5
F0.3
sg6
F0.2
sg7
F0.05
sg8
F0.4
sg9
I8
sg10
I8
sg11
F0.99
sg12
F0.4
sg13
I64
sg14
F0.15
sg15
I0
sg16
I2
sg17
F1.2
sg18
F0.125
sg19
F0.9
sg20
I1
sg21
g22
(g26
S'\x00\x00\x00\x00\x00\x00\xf0?'
p74
tp75
Rp76
sg32
I6
sg33
I-1
sg34
I512
sg35
F0.8
sg36
F0.15
sg37
I1024
sg38
F0.125
sg39
g22
(g26
S'\x9a\x99\x99\x99\x99\x99\xb9\xbf'
p77
tp78
Rp79
sg43
F0.25
sg44
I2
sg45
F0.2
sg46
F0.1
sg47
F0.6
sg48
I6
sg49
I12
sg50
g22
(g26
S'\x99\x99\x99\x99\x99\x99\x99\xbf'
p80
tp81
Rp82
sg54
I1
sg55
I1
sg56
g57
sg58
I10
sg59
F0.1225
sg60
I1
sg61
I6
sg62
g22
(g26
S'\x00\x00\x00\x00\x00\x00\xf0\xbf'
p83
tp84
Rp85
sg66
I1
sg67
F0.2
sg68
g69
sg72
I15
sa(dp86
g4
I20
sg5
F0.3
sg6
F0.2
sg7
F0.05
sg8
F0.4
sg9
I8
sg10
I8
sg11
F0.99
sg12
F0.4
sg13
I64
sg14
F0.15
sg15
I0
sg16
I2
sg17
F1.2
sg18
F0.125
sg19
F0.9
sg20
I1
sg21
g22
(g26
S'\x00\x00\x00\x00\x00\x00\x00@'
p87
tp88
Rp89
sg32
I6
sg33
I-1
sg34
I512
sg35
F0.8
sg36
F0.15
sg37
I1024
sg38
F0.125
sg39
g22
(g26
S'\x00\x00\x00\x00\x00\x00\xc0?'
p90
tp91
Rp92
sg43
F0.25
sg44
I2
sg45
F0.2
sg46
F0.1
sg47
F0.6
sg48
I6
sg49
I12
sg50
g22
(g26
S'\x99\x99\x99\x99\x99\x99\x99?'
p93
tp94
Rp95
sg54
I1
sg55
I1
sg56
g57
sg58
I10
sg59
F0.1225
sg60
I1
sg61
I6
sg62
g22
(g26
S'\x00\x00\x00\x00\x00\x00\xf0\xbf'
p96
tp97
Rp98
sg66
I1
sg67
F0.2
sg68
g69
sg72
I15
sa(dp99
g4
I20
sg5
F0.3
sg6
F0.2
sg7
F0.05
sg8
F0.4
sg9
I8
sg10
I8
sg11
F0.99
sg12
F0.4
sg13
I64
sg14
F0.15
sg15
I0
sg16
I2
sg17
F1.2
sg18
F0.125
sg19
F0.9
sg20
I1
sg21
g22
(g26
S'\x00\x00\x00\x00\x00\x00\x08@'
p100
tp101
Rp102
sg32
I6
sg33
I-1
sg34
I512
sg35
F0.8
sg36
F0.15
sg37
I1024
sg38
F0.125
sg39
g22
(g26
S'333333\xb3?'
p103
tp104
Rp105
sg43
F0.25
sg44
I2
sg45
F0.2
sg46
F0.1
sg47
F0.6
sg48
I6
sg49
I12
sg50
g22
(g26
S'\x9a\x99\x99\x99\x99\x99\xb9?'
p106
tp107
Rp108
sg54
I1
sg55
I1
sg56
g57
sg58
I10
sg59
F0.1225
sg60
I1
sg61
I6
sg62
g22
(g26
S'\x00\x00\x00\x00\x00\x00\xf0\xbf'
p109
tp110
Rp111
sg66
I1
sg67
F0.2
sg68
g69
sg72
I15
sa(dp112
g4
I20
sg5
F0.3
sg6
F0.2
sg7
F0.05
sg8
F0.4
sg9
I8
sg10
I8
sg11
F0.99
sg12
F0.4
sg13
I64
sg14
F0.15
sg15
I0
sg16
I2
sg17
F1.2
sg18
F0.125
sg19
F0.9
sg20
I1
sg21
g22
(g26
S'\x00\x00\x00\x00\x00\x00\x10@'
p113
tp114
Rp115
sg32
I6
sg33
I-1
sg34
I512
sg35
F0.8
sg36
F0.15
sg37
I1024
sg38
F0.125
sg39
g22
(g26
S'\x9a\x99\x99\x99\x99\x99\xa9?'
p116
tp117
Rp118
sg43
F0.25
sg44
I2
sg45
F0.2
sg46
F0.1
sg47
F0.6
sg48
I6
sg49
I12
sg50
g22
(g26
S'\x00\x00\x00\x00\x00\x00\xc0?'
p119
tp120
Rp121
sg54
I1
sg55
I1
sg56
g57
sg58
I10
sg59
F0.1225
sg60
I1
sg61
I6
sg62
g22
(g26
S'\x00\x00\x00\x00\x00\x00\xf0\xbf'
p122
tp123
Rp124
sg66
I1
sg67
F0.2
sg68
g69
sg72
I15
sa(dp125
g4
I20
sg5
F0.3
sg6
F0.2
sg7
F0.05
sg8
F0.4
sg9
I8
sg10
I8
sg11
F0.99
sg12
F0.4
sg13
I64
sg14
F0.15
sg15
I0
sg16
I2
sg17
F1.2
sg18
F0.125
sg19
F0.9
sg20
I1
sg21
g22
(g26
S'\x00\x00\x00\x00\x00\x00\x14@'
p126
tp127
Rp128
sg32
I6
sg33
I-1
sg34
I512
sg35
F0.8
sg36
F0.15
sg37
I1024
sg38
F0.125
sg39
g22
(g26
S'333333\xb3?'
p129
tp130
Rp131
sg43
F0.25
sg44
I2
sg45
F0.2
sg46
F0.1
sg47
F0.6
sg48
I6
sg49
I12
sg50
g22
(g26
S'333333\xc3?'
p132
tp133
Rp134
sg54
I1
sg55
I1
sg56
g57
sg58
I10
sg59
F0.1225
sg60
I1
sg61
I6
sg62
g22
(g26
S'\x00\x00\x00\x00\x00\x00\xf0\xbf'
p135
tp136
Rp137
sg66
I1
sg67
F0.2
sg68
g69
sg72
I15
sa(dp138
g4
I20
sg5
F0.3
sg6
F0.2
sg7
F0.05
sg8
F0.4
sg9
I8
sg10
I8
sg11
F0.99
sg12
F0.4
sg13
I64
sg14
F0.15
sg15
I0
sg16
I2
sg17
F1.2
sg18
F0.125
sg19
F0.9
sg20
I1
sg21
g22
(g26
S'\x00\x00\x00\x00\x00\x00\x18@'
p139
tp140
Rp141
sg32
I6
sg33
I-1
sg34
I512
sg35
F0.8
sg36
F0.15
sg37
I1024
sg38
F0.125
sg39
g22
(g26
S'\x99\x99\x99\x99\x99\x99\x99?'
p142
tp143
Rp144
sg43
F0.25
sg44
I2
sg45
F0.2
sg46
F0.1
sg47
F0.6
sg48
I6
sg49
I12
sg50
g22
(g26
S'\x9a\x99\x99\x99\x99\x99\xa9?'
p145
tp146
Rp147
sg54
I1
sg55
I1
sg56
g57
sg58
I10
sg59
F0.1225
sg60
I1
sg61
I6
sg62
g22
(g26
S'\x00\x00\x00\x00\x00\x00\xf0\xbf'
p148
tp149
Rp150
sg66
I1
sg67
F0.2
sg68
g69
sg72
I15
sa(dp151
g4
I20
sg5
F0.3
sg6
F0.2
sg7
F0.05
sg8
F0.4
sg9
I8
sg10
I8
sg11
F0.99
sg12
F0.4
sg13
I64
sg14
F0.15
sg15
I0
sg16
I2
sg17
F1.2
sg18
F0.125
sg19
F0.9
sg20
I1
sg21
g22
(g26
S'\x00\x00\x00\x00\x00\x00\x1c@'
p152
tp153
Rp154
sg32
I6
sg33
I-1
sg34
I512
sg35
F0.8
sg36
F0.15
sg37
I1024
sg38
F0.125
sg39
g22
(g26
S'333333\xb3\xbf'
p155
tp156
Rp157
sg43
F0.25
sg44
I2
sg45
F0.2
sg46
F0.1
sg47
F0.6
sg48
I6
sg49
I12
sg50
g22
(g26
S'\x9a\x99\x99\x99\x99\x99\xa9\xbf'
p158
tp159
Rp160
sg54
I1
sg55
I1
sg56
g57
sg58
I10
sg59
F0.1225
sg60
I1
sg61
I6
sg62
g22
(g26
S'\x00\x00\x00\x00\x00\x00\xf0\xbf'
p161
tp162
Rp163
sg66
I1
sg67
F0.2
sg68
g69
sg72
I15
sa(dp164
g4
I20
sg5
F0.3
sg6
F0.2
sg7
F0.05
sg8
F0.4
sg9
I8
sg10
I8
sg11
F0.99
sg12
F0.4
sg13
I64
sg14
F0.15
sg15
I0
sg16
I2
sg17
F1.2
sg18
F0.125
sg19
F0.9
sg20
I1
sg21
g22
(g26
S'\x00\x00\x00\x00\x00\x00 @'
p165
tp166
Rp167
sg32
I6
sg33
I-1
sg34
I512
sg35
F0.8
sg36
F0.15
sg37
I1024
sg38
F0.125
sg39
g22
(g26
S'333333\xc3?'
p168
tp169
Rp170
sg43
F0.25
sg44
I2
sg45
F0.2
sg46
F0.1
sg47
F0.6
sg48
I6
sg49
I12
sg50
g22
(g26
S'\x00\x00\x00\x00\x00\x00\xc0?'
p171
tp172
Rp173
sg54
I1
sg55
I1
sg56
g57
sg58
I10
sg59
F0.1225
sg60
I1
sg61
I6
sg62
g22
(g26
S'\x00\x00\x00\x00\x00\x00\xf0\xbf'
p174
tp175
Rp176
sg66
I1
sg67
F0.2
sg68
g69
sg72
I15
sa(dp177
g4
I20
sg5
F0.3
sg6
F0.2
sg7
F0.05
sg8
F0.4
sg9
I8
sg10
I8
sg11
F0.99
sg12
F0.4
sg13
I64
sg14
F0.15
sg15
I0
sg16
I2
sg17
F1.2
sg18
F0.125
sg19
F0.9
sg20
I1
sg21
g22
(g26
S'\x00\x00\x00\x00\x00\x00"@'
p178
tp179
Rp180
sg32
I6
sg33
I-1
sg34
I512
sg35
F0.8
sg36
F0.15
sg37
I1024
sg38
F0.125
sg39
g22
(g26
S'333333\xc3\xbf'
p181
tp182
Rp183
sg43
F0.25
sg44
I2
sg45
F0.2
sg46
F0.1
sg47
F0.6
sg48
I6
sg49
I12
sg50
g22
(g26
S'\x9a\x99\x99\x99\x99\x99\xa9?'
p184
tp185
Rp186
sg54
I1
sg55
I1
sg56
g57
sg58
I10
sg59
F0.1225
sg60
I1
sg61
I6
sg62
g22
(g26
S'\x00\x00\x00\x00\x00\x00\xf0\xbf'
p187
tp188
Rp189
sg66
I1
sg67
F0.2
sg68
g69
sg72
I15
sa(dp190
g4
I20
sg5
F0.3
sg6
F0.2
sg7
F0.05
sg8
F0.4
sg9
I8
sg10
I8
sg11
F0.99
sg12
F0.4
sg13
I64
sg14
F0.15
sg15
I0
sg16
I2
sg17
F1.2
sg18
F0.125
sg19
F0.9
sg20
I1
sg21
g22
(g26
S'\x00\x00\x00\x00\x00\x00\x00\x00'
p191
tp192
Rp193
sg32
I6
sg33
I-1
sg34
I512
sg35
F0.8
sg36
F0.15
sg37
I1024
sg38
F0.125
sg39
g22
(g26
S'\x00\x00\x00\x00\x00\x00\xc0?'
p194
tp195
Rp196
sg43
F0.25
sg44
I2
sg45
F0.2
sg46
F0.1
sg47
F0.6
sg48
I6
sg49
I12
sg50
g22
(g26
S'\x9a\x99\x99\x99\x99\x99\xa9\xbf'
p197
tp198
Rp199
sg54
I1
sg55
I1
sg56
g57
sg58
I10
sg59
F0.1225
sg60
I1
sg61
I6
sg62
g22
(g26
S'\x00\x00\x00\x00\x00\x00\x00\x00'
p200
tp201
Rp202
sg66
I1
sg67
F0.2
sg68
g69
sg72
I15
sa(dp203
g4
I20
sg5
F0.3
sg6
F0.2
sg7
F0.05
sg8
F0.4
sg9
I8
sg10
I8
sg11
F0.99
sg12
F0.4
sg13
I64
sg14
F0.15
sg15
I0
sg16
I2
sg17
F1.2
sg18
F0.125
sg19
F0.9
sg20
I1
sg21
g22
(g26
S'\x00\x00\x00\x00\x00\x00\xf0?'
p204
tp205
Rp206
sg32
I6
sg33
I0
sg34
I512
sg35
F0.8
sg36
F0.15
sg37
I1024
sg38
F0.125
sg39
g22
(g26
S'\x9a\x99\x99\x99\x99\x99\xb9?'
p207
tp208
Rp209
sg43
F0.25
sg44
I2
sg45
F0.2
sg46
F0.1
sg47
F0.6
sg48
I6
sg49
I12
sg50
g22
(g26
S'333333\xb3\xbf'
p210
tp211
Rp212
sg54
I1
sg55
I1
sg56
g57
sg58
I10
sg59
F0.1225
sg60
I1
sg61
I6
sg62
g22
(g26
S'\x00\x00\x00\x00\x00\x00\x00\x00'
p213
tp214
Rp215
sg66
I1
sg67
F0.2
sg68
g69
sg72
I15
sa(dp216
g4
I20
sg5
F0.3
sg6
F0.2
sg7
F0.05
sg8
F0.4
sg9
I8
sg10
I8
sg11
F0.99
sg12
F0.4
sg13
I64
sg14
F0.15
sg15
I0
sg16
I2
sg17
F1.2
sg18
F0.125
sg19
F0.9
sg20
I1
sg21
g22
(g26
S'\x00\x00\x00\x00\x00\x00\x00@'
p217
tp218
Rp219
sg32
I6
sg33
I-1
sg34
I512
sg35
F0.8
sg36
F0.15
sg37
I1024
sg38
F0.125
sg39
g22
(g26
S'333333\xc3?'
p220
tp221
Rp222
sg43
F0.25
sg44
I2
sg45
F0.2
sg46
F0.1
sg47
F0.6
sg48
I6
sg49
I12
sg50
g22
(g26
S'\x9a\x99\x99\x99\x99\x99\xa9?'
p223
tp224
Rp225
sg54
I1
sg55
I1
sg56
g57
sg58
I10
sg59
F0.1225
sg60
I1
sg61
I6
sg62
g22
(g26
S'\x00\x00\x00\x00\x00\x00\x00\x00'
p226
tp227
Rp228
sg66
I1
sg67
F0.2
sg68
g69
sg72
I15
sa(dp229
g4
I20
sg5
F0.3
sg6
F0.2
sg7
F0.05
sg8
F0.4
sg9
I8
sg10
I8
sg11
F0.99
sg12
F0.4
sg13
I64
sg14
F0.15
sg15
I0
sg16
I2
sg17
F1.2
sg18
F0.125
sg19
F0.9
sg20
I1
sg21
g22
(g26
S'\x00\x00\x00\x00\x00\x00\x08@'
p230
tp231
Rp232
sg32
I6
sg33
I0
sg34
I512
sg35
F0.8
sg36
F0.15
sg37
I1024
sg38
F0.125
sg39
g22
(g26
S'\x9a\x99\x99\x99\x99\x99\xb9\xbf'
p233
tp234
Rp235
sg43
F0.25
sg44
I2
sg45
F0.2
sg46
F0.1
sg47
F0.6
sg48
I6
sg49
I12
sg50
g22
(g26
S'333333\xc3?'
p236
tp237
Rp238
sg54
I1
sg55
I1
sg56
g57
sg58
I10
sg59
F0.1225
sg60
I1
sg61
I6
sg62
g22
(g26
S'\x00\x00\x00\x00\x00\x00\x00\x00'
p239
tp240
Rp241
sg66
I1
sg67
F0.2
sg68
g69
sg72
I15
sa(dp242
g4
I20
sg5
F0.3
sg6
F0.2
sg7
F0.05
sg8
F0.4
sg9
I8
sg10
I8
sg11
F0.99
sg12
F0.4
sg13
I64
sg14
F0.15
sg15
I0
sg16
I2
sg17
F1.2
sg18
F0.125
sg19
F0.9
sg20
I1
sg21
g22
(g26
S'\x00\x00\x00\x00\x00\x00\x10@'
p243
tp244
Rp245
sg32
I6
sg33
I0
sg34
I512
sg35
F0.8
sg36
F0.15
sg37
I1024
sg38
F0.125
sg39
g22
(g26
S'333333\xb3\xbf'
p246
tp247
Rp248
sg43
F0.25
sg44
I2
sg45
F0.2
sg46
F0.1
sg47
F0.6
sg48
I6
sg49
I12
sg50
g22
(g26
S'\x9a\x99\x99\x99\x99\x99\xa9?'
p249
tp250
Rp251
sg54
I1
sg55
I1
sg56
g57
sg58
I10
sg59
F0.1225
sg60
I1
sg61
I6
sg62
g22
(g26
S'\x00\x00\x00\x00\x00\x00\x00\x00'
p252
tp253
Rp254
sg66
I1
sg67
F0.2
sg68
g69
sg72
I15
sa(dp255
g4
I20
sg5
F0.3
sg6
F0.2
sg7
F0.05
sg8
F0.4
sg9
I8
sg10
I8
sg11
F0.99
sg12
F0.4
sg13
I64
sg14
F0.15
sg15
I0
sg16
I2
sg17
F1.2
sg18
F0.125
sg19
F0.9
sg20
I1
sg21
g22
(g26
S'\x00\x00\x00\x00\x00\x00\x14@'
p256
tp257
Rp258
sg32
I6
sg33
I1
sg34
I512
sg35
F0.8
sg36
F0.15
sg37
I1024
sg38
F0.125
sg39
g22
(g26
S'\x9a\x99\x99\x99\x99\x99\xb9?'
p259
tp260
Rp261
sg43
F0.25
sg44
I2
sg45
F0.2
sg46
F0.1
sg47
F0.6
sg48
I6
sg49
I12
sg50
g22
(g26
S'\x9a\x99\x99\x99\x99\x99\xa9?'
p262
tp263
Rp264
sg54
I1
sg55
I1
sg56
g57
sg58
I10
sg59
F0.1225
sg60
I1
sg61
I6
sg62
g22
(g26
S'\x00\x00\x00\x00\x00\x00\x00\x00'
p265
tp266
Rp267
sg66
I1
sg67
F0.2
sg68
g69
sg72
I15
sa(dp268
g4
I20
sg5
F0.3
sg6
F0.2
sg7
F0.05
sg8
F0.4
sg9
I8
sg10
I8
sg11
F0.99
sg12
F0.4
sg13
I64
sg14
F0.15
sg15
I0
sg16
I2
sg17
F1.2
sg18
F0.125
sg19
F0.9
sg20
I1
sg21
g22
(g26
S'\x00\x00\x00\x00\x00\x00\x18@'
p269
tp270
Rp271
sg32
I6
sg33
I1
sg34
I512
sg35
F0.8
sg36
F0.15
sg37
I1024
sg38
F0.125
sg39
g22
(g26
S'\x99\x99\x99\x99\x99\x99\x99?'
p272
tp273
Rp274
sg43
F0.25
sg44
I2
sg45
F0.2
sg46
F0.1
sg47
F0.6
sg48
I6
sg49
I12
sg50
g22
(g26
S'\x99\x99\x99\x99\x99\x99\x99?'
p275
tp276
Rp277
sg54
I1
sg55
I1
sg56
g57
sg58
I10
sg59
F0.1225
sg60
I1
sg61
I6
sg62
g22
(g26
S'\x00\x00\x00\x00\x00\x00\x00\x00'
p278
tp279
Rp280
sg66
I1
sg67
F0.2
sg68
g69
sg72
I15
sa(dp281
g4
I20
sg5
F0.3
sg6
F0.2
sg7
F0.05
sg8
F0.4
sg9
I8
sg10
I8
sg11
F0.99
sg12
F0.4
sg13
I64
sg14
F0.15
sg15
I0
sg16
I2
sg17
F1.2
sg18
F0.125
sg19
F0.9
sg20
I1
sg21
g22
(g26
S'\x00\x00\x00\x00\x00\x00\x1c@'
p282
tp283
Rp284
sg32
I6
sg33
I1
sg34
I512
sg35
F0.8
sg36
F0.15
sg37
I1024
sg38
F0.125
sg39
g22
(g26
S'\x99\x99\x99\x99\x99\x99\x99\xbf'
p285
tp286
Rp287
sg43
F0.25
sg44
I2
sg45
F0.2
sg46
F0.1
sg47
F0.6
sg48
I6
sg49
I12
sg50
g22
(g26
S'\x99\x99\x99\x99\x99\x99\x99?'
p288
tp289
Rp290
sg54
I1
sg55
I1
sg56
g57
sg58
I10
sg59
F0.1225
sg60
I1
sg61
I6
sg62
g22
(g26
S'\x00\x00\x00\x00\x00\x00\x00\x00'
p291
tp292
Rp293
sg66
I1
sg67
F0.2
sg68
g69
sg72
I15
sa(dp294
g4
I20
sg5
F0.3
sg6
F0.2
sg7
F0.05
sg8
F0.4
sg9
I8
sg10
I8
sg11
F0.99
sg12
F0.4
sg13
I64
sg14
F0.15
sg15
I0
sg16
I2
sg17
F1.2
sg18
F0.125
sg19
F0.9
sg20
I1
sg21
g22
(g26
S'\x00\x00\x00\x00\x00\x00 @'
p295
tp296
Rp297
sg32
I6
sg33
I-1
sg34
I512
sg35
F0.8
sg36
F0.15
sg37
I1024
sg38
F0.125
sg39
g22
(g26
S'333333\xc3\xbf'
p298
tp299
Rp300
sg43
F0.25
sg44
I2
sg45
F0.2
sg46
F0.1
sg47
F0.6
sg48
I6
sg49
I12
sg50
g22
(g26
S'\x9a\x99\x99\x99\x99\x99\xb9\xbf'
p301
tp302
Rp303
sg54
I1
sg55
I1
sg56
g57
sg58
I10
sg59
F0.1225
sg60
I1
sg61
I6
sg62
g22
(g26
S'\x00\x00\x00\x00\x00\x00\x00\x00'
p304
tp305
Rp306
sg66
I1
sg67
F0.2
sg68
g69
sg72
I15
sa(dp307
g4
I20
sg5
F0.3
sg6
F0.2
sg7
F0.05
sg8
F0.4
sg9
I8
sg10
I8
sg11
F0.99
sg12
F0.4
sg13
I64
sg14
F0.15
sg15
I0
sg16
I2
sg17
F1.2
sg18
F0.125
sg19
F0.9
sg20
I1
sg21
g22
(g26
S'\x00\x00\x00\x00\x00\x00"@'
p308
tp309
Rp310
sg32
I6
sg33
I-1
sg34
I512
sg35
F0.8
sg36
F0.15
sg37
I1024
sg38
F0.125
sg39
g22
(g26
S'333333\xc3\xbf'
p311
tp312
Rp313
sg43
F0.25
sg44
I2
sg45
F0.2
sg46
F0.1
sg47
F0.6
sg48
I6
sg49
I12
sg50
g22
(g26
S'\x00\x00\x00\x00\x00\x00\xc0?'
p314
tp315
Rp316
sg54
I1
sg55
I1
sg56
g57
sg58
I10
sg59
F0.1225
sg60
I1
sg61
I6
sg62
g22
(g26
S'\x00\x00\x00\x00\x00\x00\x00\x00'
p317
tp318
Rp319
sg66
I1
sg67
F0.2
sg68
g69
sg72
I15
sa(dp320
g4
I20
sg5
F0.3
sg6
F0.2
sg7
F0.05
sg8
F0.4
sg9
I8
sg10
I8
sg11
F0.99
sg12
F0.4
sg13
I64
sg14
F0.15
sg15
I0
sg16
I2
sg17
F1.2
sg18
F0.125
sg19
F0.9
sg20
I1
sg21
g22
(g26
S'\x00\x00\x00\x00\x00\x00$@'
p321
tp322
Rp323
sg32
I6
sg33
I-1
sg34
I512
sg35
F0.8
sg36
F0.15
sg37
I1024
sg38
F0.125
sg39
g22
(g26
S'\x99\x99\x99\x99\x99\x99\x99\xbf'
p324
tp325
Rp326
sg43
F0.25
sg44
I2
sg45
F0.2
sg46
F0.1
sg47
F0.6
sg48
I6
sg49
I12
sg50
g22
(g26
S'\x00\x00\x00\x00\x00\x00\xc0?'
p327
tp328
Rp329
sg54
I1
sg55
I1
sg56
g57
sg58
I10
sg59
F0.1225
sg60
I1
sg61
I6
sg62
g22
(g26
S'\x00\x00\x00\x00\x00\x00\x00\x00'
p330
tp331
Rp332
sg66
I1
sg67
F0.2
sg68
g69
sg72
I15
sa(dp333
g4
I20
sg5
F0.3
sg6
F0.2
sg7
F0.05
sg8
F0.4
sg9
I8
sg10
I8
sg11
F0.99
sg12
F0.4
sg13
I64
sg14
F0.15
sg15
I0
sg16
I2
sg17
F1.2
sg18
F0.125
sg19
F0.9
sg20
I1
sg21
g22
(g26
S'\x00\x00\x00\x00\x00\x00&@'
p334
tp335
Rp336
sg32
I6
sg33
I-1
sg34
I512
sg35
F0.8
sg36
F0.15
sg37
I1024
sg38
F0.125
sg39
g22
(g26
S'\x00\x00\x00\x00\x00\x00\xc0?'
p337
tp338
Rp339
sg43
F0.25
sg44
I2
sg45
F0.2
sg46
F0.1
sg47
F0.6
sg48
I6
sg49
I12
sg50
g22
(g26
S'333333\xb3\xbf'
p340
tp341
Rp342
sg54
I1
sg55
I1
sg56
g57
sg58
I10
sg59
F0.1225
sg60
I1
sg61
I6
sg62
g22
(g26
S'\x00\x00\x00\x00\x00\x00\x00\x00'
p343
tp344
Rp345
sg66
I1
sg67
F0.2
sg68
g69
sg72
I15
sa(dp346
g4
I20
sg5
F0.3
sg6
F0.2
sg7
F0.05
sg8
F0.4
sg9
I8
sg10
I8
sg11
F0.99
sg12
F0.4
sg13
I64
sg14
F0.15
sg15
I0
sg16
I2
sg17
F1.2
sg18
F0.125
sg19
F0.9
sg20
I1
sg21
g22
(g26
S'\x00\x00\x00\x00\x00\x00(@'
p347
tp348
Rp349
sg32
I6
sg33
I-1
sg34
I512
sg35
F0.8
sg36
F0.15
sg37
I1024
sg38
F0.125
sg39
g22
(g26
S'\x00\x00\x00\x00\x00\x00\xc0?'
p350
tp351
Rp352
sg43
F0.25
sg44
I2
sg45
F0.2
sg46
F0.1
sg47
F0.6
sg48
I6
sg49
I12
sg50
g22
(g26
S'333333\xc3\xbf'
p353
tp354
Rp355
sg54
I1
sg55
I1
sg56
g57
sg58
I10
sg59
F0.1225
sg60
I1
sg61
I6
sg62
g22
(g26
S'\x00\x00\x00\x00\x00\x00\x00\x00'
p356
tp357
Rp358
sg66
I1
sg67
F0.2
sg68
g69
sg72
I15
sag346
asS'eventArray'
p359
(lp360
(lp361
S'trial 0 started at 7.21306800842'
p362
aS'trial 0 phase 1 started at 14.8840270042'
p363
aS'trial 0 event space at 14.8840491772'
p364
aS'trial 0 phase 2 started at 15.1012611389'
p365
aS'trial 0 phase 3 started at 15.317950964'
p366
aa(lp367
S'trial 1 started at 15.8688890934'
p368
aS'trial 1 phase 1 started at 16.1845080853'
p369
aS'trial 1 phase 2 started at 16.4345240593'
p370
aS'trial 1 phase 3 started at 16.6345601082'
p371
aa(lp372
S'trial 2 started at 17.1741600037'
p373
aS'trial 2 phase 1 started at 17.484621048'
p374
aS'trial 2 phase 2 started at 17.7346460819'
p375
aS'trial 2 phase 3 started at 17.9513349533'
p376
aa(lp377
S'trial 3 started at 18.5036251545'
p378
aS'trial 3 phase 1 started at 18.8180081844'
p379
aS'trial 3 phase 2 started at 19.0680730343'
p380
aS'trial 3 phase 3 started at 19.2845981121'
p381
aa(lp382
S'trial 4 started at 19.8169519901'
p383
aS'trial 4 phase 1 started at 20.1180021763'
p384
aS'trial 4 phase 2 started at 20.384688139'
p385
aS'trial 4 phase 3 started at 20.6013550758'
p386
aa(lp387
S'trial 5 started at 21.1328730583'
p388
aS'trial 5 phase 1 started at 21.4347641468'
p389
aS'trial 5 phase 2 started at 21.701333046'
p390
aS'trial 5 phase 3 started at 21.901455164'
p391
aa(lp392
S'trial 6 started at 22.4374160767'
p393
aS'trial 6 phase 1 started at 22.7514631748'
p394
aS'trial 6 phase 2 started at 23.0181310177'
p395
aS'trial 6 phase 3 started at 23.2347919941'
p396
aa(lp397
S'trial 7 started at 23.7869081497'
p398
aS'trial 7 phase 1 started at 24.1004421711'
p399
aS'trial 7 phase 2 started at 24.3505151272'
p400
aS'trial 7 phase 3 started at 24.5671420097'
p401
aa(lp402
S'trial 8 started at 25.1028220654'
p403
aS'trial 8 phase 1 started at 25.4181599617'
p404
aS'trial 8 phase 2 started at 25.6848380566'
p405
aS'trial 8 phase 3 started at 25.8849229813'
p406
aa(lp407
S'trial 9 started at 26.4341361523'
p408
aS'trial 9 phase 1 started at 26.7349040508'
p409
aS'trial 9 phase 2 started at 26.984937191'
p410
aS'trial 9 phase 3 started at 27.1850030422'
p411
aa(lp412
S'trial 10 started at 27.7366890907'
p413
aS'trial 10 phase 1 started at 28.0515561104'
p414
aS'trial 10 phase 2 started at 28.301582098'
p415
aS'trial 10 phase 3 started at 28.518335104'
p416
aa(lp417
S'trial 11 started at 29.0707950592'
p418
aS'trial 11 phase 1 started at 29.385007143'
p419
aS'trial 11 phase 2 started at 29.6516859531'
p420
aS'trial 11 phase 3 started at 29.8517081738'
p421
aS'trial 11 event b at 30.1046290398'
p422
aa(lp423
S'trial 12 started at 30.4025371075'
p424
aS'trial 12 phase 1 started at 30.7183790207'
p425
aS'trial 12 phase 2 started at 30.9850530624'
p426
aS'trial 12 phase 3 started at 31.2016470432'
p427
aa(lp428
S'trial 13 started at 31.7535409927'
p429
aS'trial 13 phase 1 started at 32.0673999786'
p430
aS'trial 13 phase 2 started at 32.3341090679'
p431
aS'trial 13 event b at 32.3879899979'
p432
aS'trial 13 phase 3 started at 32.5514121056'
p433
aa(lp434
S'trial 14 started at 33.1025521755'
p435
aS'trial 14 event b at 33.2045090199'
p436
aS'trial 14 phase 1 started at 33.4184091091'
p437
aS'trial 14 phase 2 started at 33.6850311756'
p438
aS'trial 14 phase 3 started at 33.8851010799'
p439
aa(lp440
S'trial 15 started at 34.4418570995'
p441
aS'trial 15 event y at 34.4879260063'
p442
aS'trial 15 phase 1 started at 34.7517561913'
p443
aS'trial 15 phase 2 started at 35.0184049606'
p444
aS'trial 15 phase 3 started at 35.2184100151'
p445
aa(lp446
S'trial 16 started at 35.7707149982'
p447
aS'trial 16 event y at 35.8536550999'
p448
aS'trial 16 phase 1 started at 36.0841729641'
p449
aS'trial 16 phase 2 started at 36.3341741562'
p450
aS'trial 16 phase 3 started at 36.5342099667'
p451
aa(lp452
S'trial 17 started at 37.0859639645'
p453
aS'trial 17 event y at 37.1019291878'
p454
aS'trial 17 phase 1 started at 37.4018440247'
p455
aS'trial 17 phase 2 started at 37.6519069672'
p456
aS'trial 17 phase 3 started at 37.8684980869'
p457
aa(lp458
S'trial 18 started at 38.406026125'
p459
aS'trial 18 phase 1 started at 38.71854496'
p460
aS'trial 18 phase 2 started at 38.9685480595'
p461
aS'trial 18 phase 3 started at 39.1685931683'
p462
aa(lp463
S'trial 19 started at 39.7227170467'
p464
aS'trial 19 phase 1 started at 40.0352361202'
p465
aS'trial 19 phase 2 started at 40.2853109837'
p466
aS'trial 19 phase 3 started at 40.4853270054'
p467
aa(lp468
S'trial 20 started at 41.0220680237'
p469
aS'trial 20 phase 1 started at 41.3354270458'
p470
aS'trial 20 phase 2 started at 41.6020040512'
p471
aS'trial 20 phase 3 started at 41.8020401001'
p472
aa(lp473
S'trial 21 started at 42.3535811901'
p474
aS'trial 21 phase 1 started at 42.6675951481'
p475
aS'trial 21 phase 2 started at 42.9176659584'
p476
aS'trial 21 phase 3 started at 43.1177010536'
p477
aa(lp478
S'trial 22 started at 43.654045105'
p479
a(lp480
I-99
aF0.11822199821472168
aaS'trial 22 event escape at 43.7723400593'
p481
aag478
as.