(dp0
S'parameterArray'
p1
(lp2
(dp3
Vprf_stim_barpass_duration
p4
I20
sVblobstim_fix_opacity
p5
F0.3
sVpixstim_fix_aperture_fraction
p6
F0.2
sVblobstim_fix_ecc_min
p7
F0.05
sVpost_fix_time
p8
F0.4
sVpixstim_bg_noise_n_textures
p9
I8
sVpixstim_fix_noise_n_textures
p10
I8
sVpixstim_bg_aperture_fraction
p11
F0.99
sVsize_fixation_deg
p12
F0.4
sVpixstim_fix_tex_size
p13
I64
sVfix_psychometric_curve_interval
p14
F0.15
sVin_scanner
p15
I0
sVblobstim_fix_nr_blobrows_per_ring
p16
I2
sVTR
p17
F1.2
sVblobstim_bg_opacity
p18
F0.125
sVblobstim_fix_spacing_factor
p19
F0.9
sVpixstim_fix_amplitude_exponent
p20
I1
sS'pos_in_bar_trajectory'
p21
cnumpy.core.multiarray
scalar
p22
(cnumpy
dtype
p23
(S'f8'
p24
I0
I1
tp25
Rp26
(I3
S'<'
p27
NNNI-1
I-1
I0
tp28
bS'\x00\x00\x00\x00\x00\x00\x00\x00'
p29
tp30
Rp31
sVfix_psychometric_curve_nr_steps_oneside
p32
I6
sS'answer'
p33
I-1
sVprf_checker_tex_nr_pix
p34
I512
sVblobstim_bg_spacing_factor
p35
F0.8
sVbg_psychometric_curve_interval
p36
F0.15
sVpixstim_bg_tex_size
p37
I1024
sVprf_checker_bar_width
p38
F0.125
sS'bg_trial_stimulus_value'
p39
g22
(g26
S'\x99\x99\x99\x99\x99\x99\x99\xbf'
p40
tp41
Rp42
sVfix_time
p43
F0.25
sVprf_checker_cycles_in_bar
p44
I2
sVpixstim_bg_opacity
p45
F0.2
sVblobstim_bg_ecc_min
p46
F0.1
sVpixstim_fix_opacity
p47
F0.6
sVprf_checker_flicker_frequency
p48
I6
sVblobstim_bg_nr_blobrows_per_ring
p49
I12
sS'fix_trial_stimulus_value'
p50
g22
(g26
S'\x99\x99\x99\x99\x99\x99\x99?'
p51
tp52
Rp53
sVpixstim_bg_amplitude_exponent
p54
I1
sVwhich_stimulus_type
p55
I1
sVprf_stim_sequence_angles
p56
(lp57
I-1
aI0
aI225
aI-1
aI90
aI135
aI-1
aI180
aI45
aI-1
aI270
aI135
aI-1
asVprf_stim_blank_duration
p58
I10
sVaperture_stim_sd
p59
F0.1225
sVblobstim_bg_nr_rings
p60
I1
sVbg_psychometric_curve_nr_steps_oneside
p61
I6
sS'bar_orientation'
p62
g22
(g26
S'\x00\x00\x00\x00\x00\x00\xf0\xbf'
p63
tp64
Rp65
sVblobstim_fix_nr_ring
p66
I1
sVstim_time
p67
F0.2
sVanswer_dictionary
p68
(dp69
Vy
p70
I1
sVb
p71
I0
ssVblobstim_bg_ecc_max
p72
I15
sa(dp73
g4
I20
sg5
F0.3
sg6
F0.2
sg7
F0.05
sg8
F0.4
sg9
I8
sg10
I8
sg11
F0.99
sg12
F0.4
sg13
I64
sg14
F0.15
sg15
I0
sg16
I2
sg17
F1.2
sg18
F0.125
sg19
F0.9
sg20
I1
sg21
g22
(g26
S'\x00\x00\x00\x00\x00\x00\xf0?'
p74
tp75
Rp76
sg32
I6
sg33
I-1
sg34
I512
sg35
F0.8
sg36
F0.15
sg37
I1024
sg38
F0.125
sg39
g22
(g26
S'\x9a\x99\x99\x99\x99\x99\xa9\xbf'
p77
tp78
Rp79
sg43
F0.25
sg44
I2
sg45
F0.2
sg46
F0.1
sg47
F0.6
sg48
I6
sg49
I12
sg50
g22
(g26
S'\x9a\x99\x99\x99\x99\x99\xa9?'
p80
tp81
Rp82
sg54
I1
sg55
I1
sg56
g57
sg58
I10
sg59
F0.1225
sg60
I1
sg61
I6
sg62
g22
(g26
S'\x00\x00\x00\x00\x00\x00\xf0\xbf'
p83
tp84
Rp85
sg66
I1
sg67
F0.2
sg68
g69
sg72
I15
sa(dp86
g4
I20
sg5
F0.3
sg6
F0.2
sg7
F0.05
sg8
F0.4
sg9
I8
sg10
I8
sg11
F0.99
sg12
F0.4
sg13
I64
sg14
F0.15
sg15
I0
sg16
I2
sg17
F1.2
sg18
F0.125
sg19
F0.9
sg20
I1
sg21
g22
(g26
S'\x00\x00\x00\x00\x00\x00\x00@'
p87
tp88
Rp89
sg32
I6
sg33
I-1
sg34
I512
sg35
F0.8
sg36
F0.15
sg37
I1024
sg38
F0.125
sg39
g22
(g26
S'\x9a\x99\x99\x99\x99\x99\xb9?'
p90
tp91
Rp92
sg43
F0.25
sg44
I2
sg45
F0.2
sg46
F0.1
sg47
F0.6
sg48
I6
sg49
I12
sg50
g22
(g26
S'\x00\x00\x00\x00\x00\x00\xc0\xbf'
p93
tp94
Rp95
sg54
I1
sg55
I1
sg56
g57
sg58
I10
sg59
F0.1225
sg60
I1
sg61
I6
sg62
g22
(g26
S'\x00\x00\x00\x00\x00\x00\xf0\xbf'
p96
tp97
Rp98
sg66
I1
sg67
F0.2
sg68
g69
sg72
I15
sa(dp99
g4
I20
sg5
F0.3
sg6
F0.2
sg7
F0.05
sg8
F0.4
sg9
I8
sg10
I8
sg11
F0.99
sg12
F0.4
sg13
I64
sg14
F0.15
sg15
I0
sg16
I2
sg17
F1.2
sg18
F0.125
sg19
F0.9
sg20
I1
sg21
g22
(g26
S'\x00\x00\x00\x00\x00\x00\x08@'
p100
tp101
Rp102
sg32
I6
sg33
I-1
sg34
I512
sg35
F0.8
sg36
F0.15
sg37
I1024
sg38
F0.125
sg39
g22
(g26
S'333333\xc3\xbf'
p103
tp104
Rp105
sg43
F0.25
sg44
I2
sg45
F0.2
sg46
F0.1
sg47
F0.6
sg48
I6
sg49
I12
sg50
g22
(g26
S'333333\xc3\xbf'
p106
tp107
Rp108
sg54
I1
sg55
I1
sg56
g57
sg58
I10
sg59
F0.1225
sg60
I1
sg61
I6
sg62
g22
(g26
S'\x00\x00\x00\x00\x00\x00\xf0\xbf'
p109
tp110
Rp111
sg66
I1
sg67
F0.2
sg68
g69
sg72
I15
sa(dp112
g4
I20
sg5
F0.3
sg6
F0.2
sg7
F0.05
sg8
F0.4
sg9
I8
sg10
I8
sg11
F0.99
sg12
F0.4
sg13
I64
sg14
F0.15
sg15
I0
sg16
I2
sg17
F1.2
sg18
F0.125
sg19
F0.9
sg20
I1
sg21
g22
(g26
S'\x00\x00\x00\x00\x00\x00\x10@'
p113
tp114
Rp115
sg32
I6
sg33
I-1
sg34
I512
sg35
F0.8
sg36
F0.15
sg37
I1024
sg38
F0.125
sg39
g22
(g26
S'333333\xc3?'
p116
tp117
Rp118
sg43
F0.25
sg44
I2
sg45
F0.2
sg46
F0.1
sg47
F0.6
sg48
I6
sg49
I12
sg50
g22
(g26
S'\x00\x00\x00\x00\x00\x00\xc0\xbf'
p119
tp120
Rp121
sg54
I1
sg55
I1
sg56
g57
sg58
I10
sg59
F0.1225
sg60
I1
sg61
I6
sg62
g22
(g26
S'\x00\x00\x00\x00\x00\x00\xf0\xbf'
p122
tp123
Rp124
sg66
I1
sg67
F0.2
sg68
g69
sg72
I15
sa(dp125
g4
I20
sg5
F0.3
sg6
F0.2
sg7
F0.05
sg8
F0.4
sg9
I8
sg10
I8
sg11
F0.99
sg12
F0.4
sg13
I64
sg14
F0.15
sg15
I0
sg16
I2
sg17
F1.2
sg18
F0.125
sg19
F0.9
sg20
I1
sg21
g22
(g26
S'\x00\x00\x00\x00\x00\x00\x14@'
p126
tp127
Rp128
sg32
I6
sg33
I-1
sg34
I512
sg35
F0.8
sg36
F0.15
sg37
I1024
sg38
F0.125
sg39
g22
(g26
S'\x99\x99\x99\x99\x99\x99\x99?'
p129
tp130
Rp131
sg43
F0.25
sg44
I2
sg45
F0.2
sg46
F0.1
sg47
F0.6
sg48
I6
sg49
I12
sg50
g22
(g26
S'\x00\x00\x00\x00\x00\x00\xc0\xbf'
p132
tp133
Rp134
sg54
I1
sg55
I1
sg56
g57
sg58
I10
sg59
F0.1225
sg60
I1
sg61
I6
sg62
g22
(g26
S'\x00\x00\x00\x00\x00\x00\xf0\xbf'
p135
tp136
Rp137
sg66
I1
sg67
F0.2
sg68
g69
sg72
I15
sa(dp138
g4
I20
sg5
F0.3
sg6
F0.2
sg7
F0.05
sg8
F0.4
sg9
I8
sg10
I8
sg11
F0.99
sg12
F0.4
sg13
I64
sg14
F0.15
sg15
I0
sg16
I2
sg17
F1.2
sg18
F0.125
sg19
F0.9
sg20
I1
sg21
g22
(g26
S'\x00\x00\x00\x00\x00\x00\x18@'
p139
tp140
Rp141
sg32
I6
sg33
I-1
sg34
I512
sg35
F0.8
sg36
F0.15
sg37
I1024
sg38
F0.125
sg39
g22
(g26
S'\x00\x00\x00\x00\x00\x00\xc0?'
p142
tp143
Rp144
sg43
F0.25
sg44
I2
sg45
F0.2
sg46
F0.1
sg47
F0.6
sg48
I6
sg49
I12
sg50
g22
(g26
S'333333\xc3?'
p145
tp146
Rp147
sg54
I1
sg55
I1
sg56
g57
sg58
I10
sg59
F0.1225
sg60
I1
sg61
I6
sg62
g22
(g26
S'\x00\x00\x00\x00\x00\x00\xf0\xbf'
p148
tp149
Rp150
sg66
I1
sg67
F0.2
sg68
g69
sg72
I15
sa(dp151
g4
I20
sg5
F0.3
sg6
F0.2
sg7
F0.05
sg8
F0.4
sg9
I8
sg10
I8
sg11
F0.99
sg12
F0.4
sg13
I64
sg14
F0.15
sg15
I0
sg16
I2
sg17
F1.2
sg18
F0.125
sg19
F0.9
sg20
I1
sg21
g22
(g26
S'\x00\x00\x00\x00\x00\x00\x1c@'
p152
tp153
Rp154
sg32
I6
sg33
I-1
sg34
I512
sg35
F0.8
sg36
F0.15
sg37
I1024
sg38
F0.125
sg39
g22
(g26
S'\x9a\x99\x99\x99\x99\x99\xb9?'
p155
tp156
Rp157
sg43
F0.25
sg44
I2
sg45
F0.2
sg46
F0.1
sg47
F0.6
sg48
I6
sg49
I12
sg50
g22
(g26
S'333333\xc3?'
p158
tp159
Rp160
sg54
I1
sg55
I1
sg56
g57
sg58
I10
sg59
F0.1225
sg60
I1
sg61
I6
sg62
g22
(g26
S'\x00\x00\x00\x00\x00\x00\xf0\xbf'
p161
tp162
Rp163
sg66
I1
sg67
F0.2
sg68
g69
sg72
I15
sa(dp164
g4
I20
sg5
F0.3
sg6
F0.2
sg7
F0.05
sg8
F0.4
sg9
I8
sg10
I8
sg11
F0.99
sg12
F0.4
sg13
I64
sg14
F0.15
sg15
I0
sg16
I2
sg17
F1.2
sg18
F0.125
sg19
F0.9
sg20
I1
sg21
g22
(g26
S'\x00\x00\x00\x00\x00\x00 @'
p165
tp166
Rp167
sg32
I6
sg33
I-1
sg34
I512
sg35
F0.8
sg36
F0.15
sg37
I1024
sg38
F0.125
sg39
g22
(g26
S'\x9a\x99\x99\x99\x99\x99\xa9\xbf'
p168
tp169
Rp170
sg43
F0.25
sg44
I2
sg45
F0.2
sg46
F0.1
sg47
F0.6
sg48
I6
sg49
I12
sg50
g22
(g26
S'\x00\x00\x00\x00\x00\x00\xc0\xbf'
p171
tp172
Rp173
sg54
I1
sg55
I1
sg56
g57
sg58
I10
sg59
F0.1225
sg60
I1
sg61
I6
sg62
g22
(g26
S'\x00\x00\x00\x00\x00\x00\xf0\xbf'
p174
tp175
Rp176
sg66
I1
sg67
F0.2
sg68
g69
sg72
I15
sa(dp177
g4
I20
sg5
F0.3
sg6
F0.2
sg7
F0.05
sg8
F0.4
sg9
I8
sg10
I8
sg11
F0.99
sg12
F0.4
sg13
I64
sg14
F0.15
sg15
I0
sg16
I2
sg17
F1.2
sg18
F0.125
sg19
F0.9
sg20
I1
sg21
g22
(g26
S'\x00\x00\x00\x00\x00\x00"@'
p178
tp179
Rp180
sg32
I6
sg33
I-1
sg34
I512
sg35
F0.8
sg36
F0.15
sg37
I1024
sg38
F0.125
sg39
g22
(g26
S'333333\xc3\xbf'
p181
tp182
Rp183
sg43
F0.25
sg44
I2
sg45
F0.2
sg46
F0.1
sg47
F0.6
sg48
I6
sg49
I12
sg50
g22
(g26
S'\x99\x99\x99\x99\x99\x99\x99?'
p184
tp185
Rp186
sg54
I1
sg55
I1
sg56
g57
sg58
I10
sg59
F0.1225
sg60
I1
sg61
I6
sg62
g22
(g26
S'\x00\x00\x00\x00\x00\x00\xf0\xbf'
p187
tp188
Rp189
sg66
I1
sg67
F0.2
sg68
g69
sg72
I15
sa(dp190
g4
I20
sg5
F0.3
sg6
F0.2
sg7
F0.05
sg8
F0.4
sg9
I8
sg10
I8
sg11
F0.99
sg12
F0.4
sg13
I64
sg14
F0.15
sg15
I0
sg16
I2
sg17
F1.2
sg18
F0.125
sg19
F0.9
sg20
I1
sg21
g22
(g26
S'\x00\x00\x00\x00\x00\x00\x00\x00'
p191
tp192
Rp193
sg32
I6
sg33
I-1
sg34
I512
sg35
F0.8
sg36
F0.15
sg37
I1024
sg38
F0.125
sg39
g22
(g26
S'333333\xc3?'
p194
tp195
Rp196
sg43
F0.25
sg44
I2
sg45
F0.2
sg46
F0.1
sg47
F0.6
sg48
I6
sg49
I12
sg50
g22
(g26
S'\x00\x00\x00\x00\x00\x00\xc0\xbf'
p197
tp198
Rp199
sg54
I1
sg55
I1
sg56
g57
sg58
I10
sg59
F0.1225
sg60
I1
sg61
I6
sg62
g22
(g26
S'\x00\x00\x00\x00\x00\x00\x00\x00'
p200
tp201
Rp202
sg66
I1
sg67
F0.2
sg68
g69
sg72
I15
sa(dp203
g4
I20
sg5
F0.3
sg6
F0.2
sg7
F0.05
sg8
F0.4
sg9
I8
sg10
I8
sg11
F0.99
sg12
F0.4
sg13
I64
sg14
F0.15
sg15
I0
sg16
I2
sg17
F1.2
sg18
F0.125
sg19
F0.9
sg20
I1
sg21
g22
(g26
S'\x00\x00\x00\x00\x00\x00\xf0?'
p204
tp205
Rp206
sg32
I6
sg33
I-1
sg34
I512
sg35
F0.8
sg36
F0.15
sg37
I1024
sg38
F0.125
sg39
g22
(g26
S'333333\xc3?'
p207
tp208
Rp209
sg43
F0.25
sg44
I2
sg45
F0.2
sg46
F0.1
sg47
F0.6
sg48
I6
sg49
I12
sg50
g22
(g26
S'\x9a\x99\x99\x99\x99\x99\xb9?'
p210
tp211
Rp212
sg54
I1
sg55
I1
sg56
g57
sg58
I10
sg59
F0.1225
sg60
I1
sg61
I6
sg62
g22
(g26
S'\x00\x00\x00\x00\x00\x00\x00\x00'
p213
tp214
Rp215
sg66
I1
sg67
F0.2
sg68
g69
sg72
I15
sa(dp216
g4
I20
sg5
F0.3
sg6
F0.2
sg7
F0.05
sg8
F0.4
sg9
I8
sg10
I8
sg11
F0.99
sg12
F0.4
sg13
I64
sg14
F0.15
sg15
I0
sg16
I2
sg17
F1.2
sg18
F0.125
sg19
F0.9
sg20
I1
sg21
g22
(g26
S'\x00\x00\x00\x00\x00\x00\x00@'
p217
tp218
Rp219
sg32
I6
sg33
I0
sg34
I512
sg35
F0.8
sg36
F0.15
sg37
I1024
sg38
F0.125
sg39
g22
(g26
S'333333\xc3?'
p220
tp221
Rp222
sg43
F0.25
sg44
I2
sg45
F0.2
sg46
F0.1
sg47
F0.6
sg48
I6
sg49
I12
sg50
g22
(g26
S'\x00\x00\x00\x00\x00\x00\xc0?'
p223
tp224
Rp225
sg54
I1
sg55
I1
sg56
g57
sg58
I10
sg59
F0.1225
sg60
I1
sg61
I6
sg62
g22
(g26
S'\x00\x00\x00\x00\x00\x00\x00\x00'
p226
tp227
Rp228
sg66
I1
sg67
F0.2
sg68
g69
sg72
I15
sa(dp229
g4
I20
sg5
F0.3
sg6
F0.2
sg7
F0.05
sg8
F0.4
sg9
I8
sg10
I8
sg11
F0.99
sg12
F0.4
sg13
I64
sg14
F0.15
sg15
I0
sg16
I2
sg17
F1.2
sg18
F0.125
sg19
F0.9
sg20
I1
sg21
g22
(g26
S'\x00\x00\x00\x00\x00\x00\x08@'
p230
tp231
Rp232
sg32
I6
sg33
I0
sg34
I512
sg35
F0.8
sg36
F0.15
sg37
I1024
sg38
F0.125
sg39
g22
(g26
S'333333\xc3?'
p233
tp234
Rp235
sg43
F0.25
sg44
I2
sg45
F0.2
sg46
F0.1
sg47
F0.6
sg48
I6
sg49
I12
sg50
g22
(g26
S'\x00\x00\x00\x00\x00\x00\xc0\xbf'
p236
tp237
Rp238
sg54
I1
sg55
I1
sg56
g57
sg58
I10
sg59
F0.1225
sg60
I1
sg61
I6
sg62
g22
(g26
S'\x00\x00\x00\x00\x00\x00\x00\x00'
p239
tp240
Rp241
sg66
I1
sg67
F0.2
sg68
g69
sg72
I15
sa(dp242
g4
I20
sg5
F0.3
sg6
F0.2
sg7
F0.05
sg8
F0.4
sg9
I8
sg10
I8
sg11
F0.99
sg12
F0.4
sg13
I64
sg14
F0.15
sg15
I0
sg16
I2
sg17
F1.2
sg18
F0.125
sg19
F0.9
sg20
I1
sg21
g22
(g26
S'\x00\x00\x00\x00\x00\x00\x10@'
p243
tp244
Rp245
sg32
I6
sg33
I0
sg34
I512
sg35
F0.8
sg36
F0.15
sg37
I1024
sg38
F0.125
sg39
g22
(g26
S'\x9a\x99\x99\x99\x99\x99\xb9\xbf'
p246
tp247
Rp248
sg43
F0.25
sg44
I2
sg45
F0.2
sg46
F0.1
sg47
F0.6
sg48
I6
sg49
I12
sg50
g22
(g26
S'\x9a\x99\x99\x99\x99\x99\xa9\xbf'
p249
tp250
Rp251
sg54
I1
sg55
I1
sg56
g57
sg58
I10
sg59
F0.1225
sg60
I1
sg61
I6
sg62
g22
(g26
S'\x00\x00\x00\x00\x00\x00\x00\x00'
p252
tp253
Rp254
sg66
I1
sg67
F0.2
sg68
g69
sg72
I15
sa(dp255
g4
I20
sg5
F0.3
sg6
F0.2
sg7
F0.05
sg8
F0.4
sg9
I8
sg10
I8
sg11
F0.99
sg12
F0.4
sg13
I64
sg14
F0.15
sg15
I0
sg16
I2
sg17
F1.2
sg18
F0.125
sg19
F0.9
sg20
I1
sg21
g22
(g26
S'\x00\x00\x00\x00\x00\x00\x14@'
p256
tp257
Rp258
sg32
I6
sg33
I0
sg34
I512
sg35
F0.8
sg36
F0.15
sg37
I1024
sg38
F0.125
sg39
g22
(g26
S'\x99\x99\x99\x99\x99\x99\x99?'
p259
tp260
Rp261
sg43
F0.25
sg44
I2
sg45
F0.2
sg46
F0.1
sg47
F0.6
sg48
I6
sg49
I12
sg50
g22
(g26
S'333333\xb3?'
p262
tp263
Rp264
sg54
I1
sg55
I1
sg56
g57
sg58
I10
sg59
F0.1225
sg60
I1
sg61
I6
sg62
g22
(g26
S'\x00\x00\x00\x00\x00\x00\x00\x00'
p265
tp266
Rp267
sg66
I1
sg67
F0.2
sg68
g69
sg72
I15
sa(dp268
g4
I20
sg5
F0.3
sg6
F0.2
sg7
F0.05
sg8
F0.4
sg9
I8
sg10
I8
sg11
F0.99
sg12
F0.4
sg13
I64
sg14
F0.15
sg15
I0
sg16
I2
sg17
F1.2
sg18
F0.125
sg19
F0.9
sg20
I1
sg21
g22
(g26
S'\x00\x00\x00\x00\x00\x00\x18@'
p269
tp270
Rp271
sg32
I6
sg33
I1
sg34
I512
sg35
F0.8
sg36
F0.15
sg37
I1024
sg38
F0.125
sg39
g22
(g26
S'\x9a\x99\x99\x99\x99\x99\xa9?'
p272
tp273
Rp274
sg43
F0.25
sg44
I2
sg45
F0.2
sg46
F0.1
sg47
F0.6
sg48
I6
sg49
I12
sg50
g22
(g26
S'333333\xb3\xbf'
p275
tp276
Rp277
sg54
I1
sg55
I1
sg56
g57
sg58
I10
sg59
F0.1225
sg60
I1
sg61
I6
sg62
g22
(g26
S'\x00\x00\x00\x00\x00\x00\x00\x00'
p278
tp279
Rp280
sg66
I1
sg67
F0.2
sg68
g69
sg72
I15
sa(dp281
g4
I20
sg5
F0.3
sg6
F0.2
sg7
F0.05
sg8
F0.4
sg9
I8
sg10
I8
sg11
F0.99
sg12
F0.4
sg13
I64
sg14
F0.15
sg15
I0
sg16
I2
sg17
F1.2
sg18
F0.125
sg19
F0.9
sg20
I1
sg21
g22
(g26
S'\x00\x00\x00\x00\x00\x00\x1c@'
p282
tp283
Rp284
sg32
I6
sg33
I-1
sg34
I512
sg35
F0.8
sg36
F0.15
sg37
I1024
sg38
F0.125
sg39
g22
(g26
S'\x9a\x99\x99\x99\x99\x99\xa9\xbf'
p285
tp286
Rp287
sg43
F0.25
sg44
I2
sg45
F0.2
sg46
F0.1
sg47
F0.6
sg48
I6
sg49
I12
sg50
g22
(g26
S'\x99\x99\x99\x99\x99\x99\x99?'
p288
tp289
Rp290
sg54
I1
sg55
I1
sg56
g57
sg58
I10
sg59
F0.1225
sg60
I1
sg61
I6
sg62
g22
(g26
S'\x00\x00\x00\x00\x00\x00\x00\x00'
p291
tp292
Rp293
sg66
I1
sg67
F0.2
sg68
g69
sg72
I15
sa(dp294
g4
I20
sg5
F0.3
sg6
F0.2
sg7
F0.05
sg8
F0.4
sg9
I8
sg10
I8
sg11
F0.99
sg12
F0.4
sg13
I64
sg14
F0.15
sg15
I0
sg16
I2
sg17
F1.2
sg18
F0.125
sg19
F0.9
sg20
I1
sg21
g22
(g26
S'\x00\x00\x00\x00\x00\x00 @'
p295
tp296
Rp297
sg32
I6
sg33
I0
sg34
I512
sg35
F0.8
sg36
F0.15
sg37
I1024
sg38
F0.125
sg39
g22
(g26
S'333333\xc3\xbf'
p298
tp299
Rp300
sg43
F0.25
sg44
I2
sg45
F0.2
sg46
F0.1
sg47
F0.6
sg48
I6
sg49
I12
sg50
g22
(g26
S'333333\xc3\xbf'
p301
tp302
Rp303
sg54
I1
sg55
I1
sg56
g57
sg58
I10
sg59
F0.1225
sg60
I1
sg61
I6
sg62
g22
(g26
S'\x00\x00\x00\x00\x00\x00\x00\x00'
p304
tp305
Rp306
sg66
I1
sg67
F0.2
sg68
g69
sg72
I15
sa(dp307
g4
I20
sg5
F0.3
sg6
F0.2
sg7
F0.05
sg8
F0.4
sg9
I8
sg10
I8
sg11
F0.99
sg12
F0.4
sg13
I64
sg14
F0.15
sg15
I0
sg16
I2
sg17
F1.2
sg18
F0.125
sg19
F0.9
sg20
I1
sg21
g22
(g26
S'\x00\x00\x00\x00\x00\x00"@'
p308
tp309
Rp310
sg32
I6
sg33
I0
sg34
I512
sg35
F0.8
sg36
F0.15
sg37
I1024
sg38
F0.125
sg39
g22
(g26
S'\x9a\x99\x99\x99\x99\x99\xb9?'
p311
tp312
Rp313
sg43
F0.25
sg44
I2
sg45
F0.2
sg46
F0.1
sg47
F0.6
sg48
I6
sg49
I12
sg50
g22
(g26
S'\x00\x00\x00\x00\x00\x00\xc0?'
p314
tp315
Rp316
sg54
I1
sg55
I1
sg56
g57
sg58
I10
sg59
F0.1225
sg60
I1
sg61
I6
sg62
g22
(g26
S'\x00\x00\x00\x00\x00\x00\x00\x00'
p317
tp318
Rp319
sg66
I1
sg67
F0.2
sg68
g69
sg72
I15
sa(dp320
g4
I20
sg5
F0.3
sg6
F0.2
sg7
F0.05
sg8
F0.4
sg9
I8
sg10
I8
sg11
F0.99
sg12
F0.4
sg13
I64
sg14
F0.15
sg15
I0
sg16
I2
sg17
F1.2
sg18
F0.125
sg19
F0.9
sg20
I1
sg21
g22
(g26
S'\x00\x00\x00\x00\x00\x00$@'
p321
tp322
Rp323
sg32
I6
sg33
I0
sg34
I512
sg35
F0.8
sg36
F0.15
sg37
I1024
sg38
F0.125
sg39
g22
(g26
S'\x9a\x99\x99\x99\x99\x99\xb9\xbf'
p324
tp325
Rp326
sg43
F0.25
sg44
I2
sg45
F0.2
sg46
F0.1
sg47
F0.6
sg48
I6
sg49
I12
sg50
g22
(g26
S'333333\xb3?'
p327
tp328
Rp329
sg54
I1
sg55
I1
sg56
g57
sg58
I10
sg59
F0.1225
sg60
I1
sg61
I6
sg62
g22
(g26
S'\x00\x00\x00\x00\x00\x00\x00\x00'
p330
tp331
Rp332
sg66
I1
sg67
F0.2
sg68
g69
sg72
I15
sa(dp333
g4
I20
sg5
F0.3
sg6
F0.2
sg7
F0.05
sg8
F0.4
sg9
I8
sg10
I8
sg11
F0.99
sg12
F0.4
sg13
I64
sg14
F0.15
sg15
I0
sg16
I2
sg17
F1.2
sg18
F0.125
sg19
F0.9
sg20
I1
sg21
g22
(g26
S'\x00\x00\x00\x00\x00\x00&@'
p334
tp335
Rp336
sg32
I6
sg33
I0
sg34
I512
sg35
F0.8
sg36
F0.15
sg37
I1024
sg38
F0.125
sg39
g22
(g26
S'\x9a\x99\x99\x99\x99\x99\xb9\xbf'
p337
tp338
Rp339
sg43
F0.25
sg44
I2
sg45
F0.2
sg46
F0.1
sg47
F0.6
sg48
I6
sg49
I12
sg50
g22
(g26
S'333333\xb3\xbf'
p340
tp341
Rp342
sg54
I1
sg55
I1
sg56
g57
sg58
I10
sg59
F0.1225
sg60
I1
sg61
I6
sg62
g22
(g26
S'\x00\x00\x00\x00\x00\x00\x00\x00'
p343
tp344
Rp345
sg66
I1
sg67
F0.2
sg68
g69
sg72
I15
sa(dp346
g4
I20
sg5
F0.3
sg6
F0.2
sg7
F0.05
sg8
F0.4
sg9
I8
sg10
I8
sg11
F0.99
sg12
F0.4
sg13
I64
sg14
F0.15
sg15
I0
sg16
I2
sg17
F1.2
sg18
F0.125
sg19
F0.9
sg20
I1
sg21
g22
(g26
S'\x00\x00\x00\x00\x00\x00(@'
p347
tp348
Rp349
sg32
I6
sg33
I0
sg34
I512
sg35
F0.8
sg36
F0.15
sg37
I1024
sg38
F0.125
sg39
g22
(g26
S'\x00\x00\x00\x00\x00\x00\xc0\xbf'
p350
tp351
Rp352
sg43
F0.25
sg44
I2
sg45
F0.2
sg46
F0.1
sg47
F0.6
sg48
I6
sg49
I12
sg50
g22
(g26
S'\x9a\x99\x99\x99\x99\x99\xb9\xbf'
p353
tp354
Rp355
sg54
I1
sg55
I1
sg56
g57
sg58
I10
sg59
F0.1225
sg60
I1
sg61
I6
sg62
g22
(g26
S'\x00\x00\x00\x00\x00\x00\x00\x00'
p356
tp357
Rp358
sg66
I1
sg67
F0.2
sg68
g69
sg72
I15
sa(dp359
g4
I20
sg5
F0.3
sg6
F0.2
sg7
F0.05
sg8
F0.4
sg9
I8
sg10
I8
sg11
F0.99
sg12
F0.4
sg13
I64
sg14
F0.15
sg15
I0
sg16
I2
sg17
F1.2
sg18
F0.125
sg19
F0.9
sg20
I1
sg21
g22
(g26
S'\x00\x00\x00\x00\x00\x00*@'
p360
tp361
Rp362
sg32
I6
sg33
I0
sg34
I512
sg35
F0.8
sg36
F0.15
sg37
I1024
sg38
F0.125
sg39
g22
(g26
S'\x9a\x99\x99\x99\x99\x99\xa9?'
p363
tp364
Rp365
sg43
F0.25
sg44
I2
sg45
F0.2
sg46
F0.1
sg47
F0.6
sg48
I6
sg49
I12
sg50
g22
(g26
S'\x00\x00\x00\x00\x00\x00\xc0?'
p366
tp367
Rp368
sg54
I1
sg55
I1
sg56
g57
sg58
I10
sg59
F0.1225
sg60
I1
sg61
I6
sg62
g22
(g26
S'\x00\x00\x00\x00\x00\x00\x00\x00'
p369
tp370
Rp371
sg66
I1
sg67
F0.2
sg68
g69
sg72
I15
sa(dp372
g4
I20
sg5
F0.3
sg6
F0.2
sg7
F0.05
sg8
F0.4
sg9
I8
sg10
I8
sg11
F0.99
sg12
F0.4
sg13
I64
sg14
F0.15
sg15
I0
sg16
I2
sg17
F1.2
sg18
F0.125
sg19
F0.9
sg20
I1
sg21
g22
(g26
S'\x00\x00\x00\x00\x00\x00,@'
p373
tp374
Rp375
sg32
I6
sg33
I1
sg34
I512
sg35
F0.8
sg36
F0.15
sg37
I1024
sg38
F0.125
sg39
g22
(g26
S'\x9a\x99\x99\x99\x99\x99\xa9\xbf'
p376
tp377
Rp378
sg43
F0.25
sg44
I2
sg45
F0.2
sg46
F0.1
sg47
F0.6
sg48
I6
sg49
I12
sg50
g22
(g26
S'333333\xb3\xbf'
p379
tp380
Rp381
sg54
I1
sg55
I1
sg56
g57
sg58
I10
sg59
F0.1225
sg60
I1
sg61
I6
sg62
g22
(g26
S'\x00\x00\x00\x00\x00\x00\x00\x00'
p382
tp383
Rp384
sg66
I1
sg67
F0.2
sg68
g69
sg72
I15
sa(dp385
g4
I20
sg5
F0.3
sg6
F0.2
sg7
F0.05
sg8
F0.4
sg9
I8
sg10
I8
sg11
F0.99
sg12
F0.4
sg13
I64
sg14
F0.15
sg15
I0
sg16
I2
sg17
F1.2
sg18
F0.125
sg19
F0.9
sg20
I1
sg21
g22
(g26
S'\x00\x00\x00\x00\x00\x00.@'
p386
tp387
Rp388
sg32
I6
sg33
I1
sg34
I512
sg35
F0.8
sg36
F0.15
sg37
I1024
sg38
F0.125
sg39
g22
(g26
S'\x00\x00\x00\x00\x00\x00\xc0?'
p389
tp390
Rp391
sg43
F0.25
sg44
I2
sg45
F0.2
sg46
F0.1
sg47
F0.6
sg48
I6
sg49
I12
sg50
g22
(g26
S'\x00\x00\x00\x00\x00\x00\xc0\xbf'
p392
tp393
Rp394
sg54
I1
sg55
I1
sg56
g57
sg58
I10
sg59
F0.1225
sg60
I1
sg61
I6
sg62
g22
(g26
S'\x00\x00\x00\x00\x00\x00\x00\x00'
p395
tp396
Rp397
sg66
I1
sg67
F0.2
sg68
g69
sg72
I15
sa(dp398
g4
I20
sg5
F0.3
sg6
F0.2
sg7
F0.05
sg8
F0.4
sg9
I8
sg10
I8
sg11
F0.99
sg12
F0.4
sg13
I64
sg14
F0.15
sg15
I0
sg16
I2
sg17
F1.2
sg18
F0.125
sg19
F0.9
sg20
I1
sg21
g22
(g26
S'\x00\x00\x00\x00\x00\x000@'
p399
tp400
Rp401
sg32
I6
sg33
I1
sg34
I512
sg35
F0.8
sg36
F0.15
sg37
I1024
sg38
F0.125
sg39
g22
(g26
S'\x9a\x99\x99\x99\x99\x99\xb9\xbf'
p402
tp403
Rp404
sg43
F0.25
sg44
I2
sg45
F0.2
sg46
F0.1
sg47
F0.6
sg48
I6
sg49
I12
sg50
g22
(g26
S'\x00\x00\x00\x00\x00\x00\xc0\xbf'
p405
tp406
Rp407
sg54
I1
sg55
I1
sg56
g57
sg58
I10
sg59
F0.1225
sg60
I1
sg61
I6
sg62
g22
(g26
S'\x00\x00\x00\x00\x00\x00\x00\x00'
p408
tp409
Rp410
sg66
I1
sg67
F0.2
sg68
g69
sg72
I15
sa(dp411
g4
I20
sg5
F0.3
sg6
F0.2
sg7
F0.05
sg8
F0.4
sg9
I8
sg10
I8
sg11
F0.99
sg12
F0.4
sg13
I64
sg14
F0.15
sg15
I0
sg16
I2
sg17
F1.2
sg18
F0.125
sg19
F0.9
sg20
I1
sg21
g22
(g26
S'\x00\x00\x00\x00\x00\x001@'
p412
tp413
Rp414
sg32
I6
sg33
I-1
sg34
I512
sg35
F0.8
sg36
F0.15
sg37
I1024
sg38
F0.125
sg39
g22
(g26
S'\x00\x00\x00\x00\x00\x00\xc0?'
p415
tp416
Rp417
sg43
F0.25
sg44
I2
sg45
F0.2
sg46
F0.1
sg47
F0.6
sg48
I6
sg49
I12
sg50
g22
(g26
S'\x9a\x99\x99\x99\x99\x99\xb9?'
p418
tp419
Rp420
sg54
I1
sg55
I1
sg56
g57
sg58
I10
sg59
F0.1225
sg60
I1
sg61
I6
sg62
g22
(g26
S'\x00\x00\x00\x00\x00\x00\x00\x00'
p421
tp422
Rp423
sg66
I1
sg67
F0.2
sg68
g69
sg72
I15
sa(dp424
g4
I20
sg5
F0.3
sg6
F0.2
sg7
F0.05
sg8
F0.4
sg9
I8
sg10
I8
sg11
F0.99
sg12
F0.4
sg13
I64
sg14
F0.15
sg15
I0
sg16
I2
sg17
F1.2
sg18
F0.125
sg19
F0.9
sg20
I1
sg21
g22
(g26
S'\x00\x00\x00\x00\x00\x002@'
p425
tp426
Rp427
sg32
I6
sg33
I0
sg34
I512
sg35
F0.8
sg36
F0.15
sg37
I1024
sg38
F0.125
sg39
g22
(g26
S'333333\xc3\xbf'
p428
tp429
Rp430
sg43
F0.25
sg44
I2
sg45
F0.2
sg46
F0.1
sg47
F0.6
sg48
I6
sg49
I12
sg50
g22
(g26
S'\x9a\x99\x99\x99\x99\x99\xb9?'
p431
tp432
Rp433
sg54
I1
sg55
I1
sg56
g57
sg58
I10
sg59
F0.1225
sg60
I1
sg61
I6
sg62
g22
(g26
S'\x00\x00\x00\x00\x00\x00\x00\x00'
p434
tp435
Rp436
sg66
I1
sg67
F0.2
sg68
g69
sg72
I15
sa(dp437
g4
I20
sg5
F0.3
sg6
F0.2
sg7
F0.05
sg8
F0.4
sg9
I8
sg10
I8
sg11
F0.99
sg12
F0.4
sg13
I64
sg14
F0.15
sg15
I0
sg16
I2
sg17
F1.2
sg18
F0.125
sg19
F0.9
sg20
I1
sg21
g22
(g26
S'\x00\x00\x00\x00\x00\x003@'
p438
tp439
Rp440
sg32
I6
sg33
I1
sg34
I512
sg35
F0.8
sg36
F0.15
sg37
I1024
sg38
F0.125
sg39
g22
(g26
S'\x00\x00\x00\x00\x00\x00\xc0\xbf'
p441
tp442
Rp443
sg43
F0.25
sg44
I2
sg45
F0.2
sg46
F0.1
sg47
F0.6
sg48
I6
sg49
I12
sg50
g22
(g26
S'333333\xb3?'
p444
tp445
Rp446
sg54
I1
sg55
I1
sg56
g57
sg58
I10
sg59
F0.1225
sg60
I1
sg61
I6
sg62
g22
(g26
S'\x00\x00\x00\x00\x00\x00\x00\x00'
p447
tp448
Rp449
sg66
I1
sg67
F0.2
sg68
g69
sg72
I15
sa(dp450
g4
I20
sg5
F0.3
sg6
F0.2
sg7
F0.05
sg8
F0.4
sg9
I8
sg10
I8
sg11
F0.99
sg12
F0.4
sg13
I64
sg14
F0.15
sg15
I0
sg16
I2
sg17
F1.2
sg18
F0.125
sg19
F0.9
sg20
I1
sg21
g22
(g26
S'\x00\x00\x00\x00\x00\x00\x00\x00'
p451
tp452
Rp453
sg32
I6
sg33
I-1
sg34
I512
sg35
F0.8
sg36
F0.15
sg37
I1024
sg38
F0.125
sg39
g22
(g26
S'\x9a\x99\x99\x99\x99\x99\xa9?'
p454
tp455
Rp456
sg43
F0.25
sg44
I2
sg45
F0.2
sg46
F0.1
sg47
F0.6
sg48
I6
sg49
I12
sg50
g22
(g26
S'\x00\x00\x00\x00\x00\x00\xc0\xbf'
p457
tp458
Rp459
sg54
I1
sg55
I1
sg56
g57
sg58
I10
sg59
F0.1225
sg60
I1
sg61
I6
sg62
g22
(g26
S'\x00\x00\x00\x00\x00 l@'
p460
tp461
Rp462
sg66
I1
sg67
F0.2
sg68
g69
sg72
I15
sa(dp463
g4
I20
sg5
F0.3
sg6
F0.2
sg7
F0.05
sg8
F0.4
sg9
I8
sg10
I8
sg11
F0.99
sg12
F0.4
sg13
I64
sg14
F0.15
sg15
I0
sg16
I2
sg17
F1.2
sg18
F0.125
sg19
F0.9
sg20
I1
sg21
g22
(g26
S'\x00\x00\x00\x00\x00\x00\xf0?'
p464
tp465
Rp466
sg32
I6
sg33
I1
sg34
I512
sg35
F0.8
sg36
F0.15
sg37
I1024
sg38
F0.125
sg39
g22
(g26
S'\x9a\x99\x99\x99\x99\x99\xb9?'
p467
tp468
Rp469
sg43
F0.25
sg44
I2
sg45
F0.2
sg46
F0.1
sg47
F0.6
sg48
I6
sg49
I12
sg50
g22
(g26
S'\x00\x00\x00\x00\x00\x00\xc0\xbf'
p470
tp471
Rp472
sg54
I1
sg55
I1
sg56
g57
sg58
I10
sg59
F0.1225
sg60
I1
sg61
I6
sg62
g22
(g26
S'\x00\x00\x00\x00\x00 l@'
p473
tp474
Rp475
sg66
I1
sg67
F0.2
sg68
g69
sg72
I15
sa(dp476
g4
I20
sg5
F0.3
sg6
F0.2
sg7
F0.05
sg8
F0.4
sg9
I8
sg10
I8
sg11
F0.99
sg12
F0.4
sg13
I64
sg14
F0.15
sg15
I0
sg16
I2
sg17
F1.2
sg18
F0.125
sg19
F0.9
sg20
I1
sg21
g22
(g26
S'\x00\x00\x00\x00\x00\x00\x00@'
p477
tp478
Rp479
sg32
I6
sg33
I0
sg34
I512
sg35
F0.8
sg36
F0.15
sg37
I1024
sg38
F0.125
sg39
g22
(g26
S'333333\xc3\xbf'
p480
tp481
Rp482
sg43
F0.25
sg44
I2
sg45
F0.2
sg46
F0.1
sg47
F0.6
sg48
I6
sg49
I12
sg50
g22
(g26
S'333333\xb3?'
p483
tp484
Rp485
sg54
I1
sg55
I1
sg56
g57
sg58
I10
sg59
F0.1225
sg60
I1
sg61
I6
sg62
g22
(g26
S'\x00\x00\x00\x00\x00 l@'
p486
tp487
Rp488
sg66
I1
sg67
F0.2
sg68
g69
sg72
I15
sa(dp489
g4
I20
sg5
F0.3
sg6
F0.2
sg7
F0.05
sg8
F0.4
sg9
I8
sg10
I8
sg11
F0.99
sg12
F0.4
sg13
I64
sg14
F0.15
sg15
I0
sg16
I2
sg17
F1.2
sg18
F0.125
sg19
F0.9
sg20
I1
sg21
g22
(g26
S'\x00\x00\x00\x00\x00\x00\x08@'
p490
tp491
Rp492
sg32
I6
sg33
I0
sg34
I512
sg35
F0.8
sg36
F0.15
sg37
I1024
sg38
F0.125
sg39
g22
(g26
S'\x9a\x99\x99\x99\x99\x99\xa9?'
p493
tp494
Rp495
sg43
F0.25
sg44
I2
sg45
F0.2
sg46
F0.1
sg47
F0.6
sg48
I6
sg49
I12
sg50
g22
(g26
S'\x99\x99\x99\x99\x99\x99\x99?'
p496
tp497
Rp498
sg54
I1
sg55
I1
sg56
g57
sg58
I10
sg59
F0.1225
sg60
I1
sg61
I6
sg62
g22
(g26
S'\x00\x00\x00\x00\x00 l@'
p499
tp500
Rp501
sg66
I1
sg67
F0.2
sg68
g69
sg72
I15
sa(dp502
g4
I20
sg5
F0.3
sg6
F0.2
sg7
F0.05
sg8
F0.4
sg9
I8
sg10
I8
sg11
F0.99
sg12
F0.4
sg13
I64
sg14
F0.15
sg15
I0
sg16
I2
sg17
F1.2
sg18
F0.125
sg19
F0.9
sg20
I1
sg21
g22
(g26
S'\x00\x00\x00\x00\x00\x00\x10@'
p503
tp504
Rp505
sg32
I6
sg33
I0
sg34
I512
sg35
F0.8
sg36
F0.15
sg37
I1024
sg38
F0.125
sg39
g22
(g26
S'\x99\x99\x99\x99\x99\x99\x99?'
p506
tp507
Rp508
sg43
F0.25
sg44
I2
sg45
F0.2
sg46
F0.1
sg47
F0.6
sg48
I6
sg49
I12
sg50
g22
(g26
S'\x9a\x99\x99\x99\x99\x99\xa9\xbf'
p509
tp510
Rp511
sg54
I1
sg55
I1
sg56
g57
sg58
I10
sg59
F0.1225
sg60
I1
sg61
I6
sg62
g22
(g26
S'\x00\x00\x00\x00\x00 l@'
p512
tp513
Rp514
sg66
I1
sg67
F0.2
sg68
g69
sg72
I15
sa(dp515
g4
I20
sg5
F0.3
sg6
F0.2
sg7
F0.05
sg8
F0.4
sg9
I8
sg10
I8
sg11
F0.99
sg12
F0.4
sg13
I64
sg14
F0.15
sg15
I0
sg16
I2
sg17
F1.2
sg18
F0.125
sg19
F0.9
sg20
I1
sg21
g22
(g26
S'\x00\x00\x00\x00\x00\x00\x14@'
p516
tp517
Rp518
sg32
I6
sg33
I1
sg34
I512
sg35
F0.8
sg36
F0.15
sg37
I1024
sg38
F0.125
sg39
g22
(g26
S'333333\xc3\xbf'
p519
tp520
Rp521
sg43
F0.25
sg44
I2
sg45
F0.2
sg46
F0.1
sg47
F0.6
sg48
I6
sg49
I12
sg50
g22
(g26
S'333333\xb3?'
p522
tp523
Rp524
sg54
I1
sg55
I1
sg56
g57
sg58
I10
sg59
F0.1225
sg60
I1
sg61
I6
sg62
g22
(g26
S'\x00\x00\x00\x00\x00 l@'
p525
tp526
Rp527
sg66
I1
sg67
F0.2
sg68
g69
sg72
I15
sa(dp528
g4
I20
sg5
F0.3
sg6
F0.2
sg7
F0.05
sg8
F0.4
sg9
I8
sg10
I8
sg11
F0.99
sg12
F0.4
sg13
I64
sg14
F0.15
sg15
I0
sg16
I2
sg17
F1.2
sg18
F0.125
sg19
F0.9
sg20
I1
sg21
g22
(g26
S'\x00\x00\x00\x00\x00\x00\x18@'
p529
tp530
Rp531
sg32
I6
sg33
I-1
sg34
I512
sg35
F0.8
sg36
F0.15
sg37
I1024
sg38
F0.125
sg39
g22
(g26
S'\x9a\x99\x99\x99\x99\x99\xa9?'
p532
tp533
Rp534
sg43
F0.25
sg44
I2
sg45
F0.2
sg46
F0.1
sg47
F0.6
sg48
I6
sg49
I12
sg50
g22
(g26
S'333333\xc3?'
p535
tp536
Rp537
sg54
I1
sg55
I1
sg56
g57
sg58
I10
sg59
F0.1225
sg60
I1
sg61
I6
sg62
g22
(g26
S'\x00\x00\x00\x00\x00 l@'
p538
tp539
Rp540
sg66
I1
sg67
F0.2
sg68
g69
sg72
I15
sa(dp541
g4
I20
sg5
F0.3
sg6
F0.2
sg7
F0.05
sg8
F0.4
sg9
I8
sg10
I8
sg11
F0.99
sg12
F0.4
sg13
I64
sg14
F0.15
sg15
I0
sg16
I2
sg17
F1.2
sg18
F0.125
sg19
F0.9
sg20
I1
sg21
g22
(g26
S'\x00\x00\x00\x00\x00\x00\x1c@'
p542
tp543
Rp544
sg32
I6
sg33
I0
sg34
I512
sg35
F0.8
sg36
F0.15
sg37
I1024
sg38
F0.125
sg39
g22
(g26
S'\x9a\x99\x99\x99\x99\x99\xa9?'
p545
tp546
Rp547
sg43
F0.25
sg44
I2
sg45
F0.2
sg46
F0.1
sg47
F0.6
sg48
I6
sg49
I12
sg50
g22
(g26
S'\x00\x00\x00\x00\x00\x00\xc0?'
p548
tp549
Rp550
sg54
I1
sg55
I1
sg56
g57
sg58
I10
sg59
F0.1225
sg60
I1
sg61
I6
sg62
g22
(g26
S'\x00\x00\x00\x00\x00 l@'
p551
tp552
Rp553
sg66
I1
sg67
F0.2
sg68
g69
sg72
I15
sa(dp554
g4
I20
sg5
F0.3
sg6
F0.2
sg7
F0.05
sg8
F0.4
sg9
I8
sg10
I8
sg11
F0.99
sg12
F0.4
sg13
I64
sg14
F0.15
sg15
I0
sg16
I2
sg17
F1.2
sg18
F0.125
sg19
F0.9
sg20
I1
sg21
g22
(g26
S'\x00\x00\x00\x00\x00\x00 @'
p555
tp556
Rp557
sg32
I6
sg33
I0
sg34
I512
sg35
F0.8
sg36
F0.15
sg37
I1024
sg38
F0.125
sg39
g22
(g26
S'\x9a\x99\x99\x99\x99\x99\xa9?'
p558
tp559
Rp560
sg43
F0.25
sg44
I2
sg45
F0.2
sg46
F0.1
sg47
F0.6
sg48
I6
sg49
I12
sg50
g22
(g26
S'\x99\x99\x99\x99\x99\x99\x99\xbf'
p561
tp562
Rp563
sg54
I1
sg55
I1
sg56
g57
sg58
I10
sg59
F0.1225
sg60
I1
sg61
I6
sg62
g22
(g26
S'\x00\x00\x00\x00\x00 l@'
p564
tp565
Rp566
sg66
I1
sg67
F0.2
sg68
g69
sg72
I15
sa(dp567
g4
I20
sg5
F0.3
sg6
F0.2
sg7
F0.05
sg8
F0.4
sg9
I8
sg10
I8
sg11
F0.99
sg12
F0.4
sg13
I64
sg14
F0.15
sg15
I0
sg16
I2
sg17
F1.2
sg18
F0.125
sg19
F0.9
sg20
I1
sg21
g22
(g26
S'\x00\x00\x00\x00\x00\x00"@'
p568
tp569
Rp570
sg32
I6
sg33
I-1
sg34
I512
sg35
F0.8
sg36
F0.15
sg37
I1024
sg38
F0.125
sg39
g22
(g26
S'\x9a\x99\x99\x99\x99\x99\xa9\xbf'
p571
tp572
Rp573
sg43
F0.25
sg44
I2
sg45
F0.2
sg46
F0.1
sg47
F0.6
sg48
I6
sg49
I12
sg50
g22
(g26
S'\x9a\x99\x99\x99\x99\x99\xa9\xbf'
p574
tp575
Rp576
sg54
I1
sg55
I1
sg56
g57
sg58
I10
sg59
F0.1225
sg60
I1
sg61
I6
sg62
g22
(g26
S'\x00\x00\x00\x00\x00 l@'
p577
tp578
Rp579
sg66
I1
sg67
F0.2
sg68
g69
sg72
I15
sa(dp580
g4
I20
sg5
F0.3
sg6
F0.2
sg7
F0.05
sg8
F0.4
sg9
I8
sg10
I8
sg11
F0.99
sg12
F0.4
sg13
I64
sg14
F0.15
sg15
I0
sg16
I2
sg17
F1.2
sg18
F0.125
sg19
F0.9
sg20
I1
sg21
g22
(g26
S'\x00\x00\x00\x00\x00\x00$@'
p581
tp582
Rp583
sg32
I6
sg33
I0
sg34
I512
sg35
F0.8
sg36
F0.15
sg37
I1024
sg38
F0.125
sg39
g22
(g26
S'333333\xb3?'
p584
tp585
Rp586
sg43
F0.25
sg44
I2
sg45
F0.2
sg46
F0.1
sg47
F0.6
sg48
I6
sg49
I12
sg50
g22
(g26
S'\x99\x99\x99\x99\x99\x99\x99\xbf'
p587
tp588
Rp589
sg54
I1
sg55
I1
sg56
g57
sg58
I10
sg59
F0.1225
sg60
I1
sg61
I6
sg62
g22
(g26
S'\x00\x00\x00\x00\x00 l@'
p590
tp591
Rp592
sg66
I1
sg67
F0.2
sg68
g69
sg72
I15
sa(dp593
g4
I20
sg5
F0.3
sg6
F0.2
sg7
F0.05
sg8
F0.4
sg9
I8
sg10
I8
sg11
F0.99
sg12
F0.4
sg13
I64
sg14
F0.15
sg15
I0
sg16
I2
sg17
F1.2
sg18
F0.125
sg19
F0.9
sg20
I1
sg21
g22
(g26
S'\x00\x00\x00\x00\x00\x00&@'
p594
tp595
Rp596
sg32
I6
sg33
I1
sg34
I512
sg35
F0.8
sg36
F0.15
sg37
I1024
sg38
F0.125
sg39
g22
(g26
S'333333\xc3\xbf'
p597
tp598
Rp599
sg43
F0.25
sg44
I2
sg45
F0.2
sg46
F0.1
sg47
F0.6
sg48
I6
sg49
I12
sg50
g22
(g26
S'333333\xb3\xbf'
p600
tp601
Rp602
sg54
I1
sg55
I1
sg56
g57
sg58
I10
sg59
F0.1225
sg60
I1
sg61
I6
sg62
g22
(g26
S'\x00\x00\x00\x00\x00 l@'
p603
tp604
Rp605
sg66
I1
sg67
F0.2
sg68
g69
sg72
I15
sa(dp606
g4
I20
sg5
F0.3
sg6
F0.2
sg7
F0.05
sg8
F0.4
sg9
I8
sg10
I8
sg11
F0.99
sg12
F0.4
sg13
I64
sg14
F0.15
sg15
I0
sg16
I2
sg17
F1.2
sg18
F0.125
sg19
F0.9
sg20
I1
sg21
g22
(g26
S'\x00\x00\x00\x00\x00\x00(@'
p607
tp608
Rp609
sg32
I6
sg33
I0
sg34
I512
sg35
F0.8
sg36
F0.15
sg37
I1024
sg38
F0.125
sg39
g22
(g26
S'\x9a\x99\x99\x99\x99\x99\xb9?'
p610
tp611
Rp612
sg43
F0.25
sg44
I2
sg45
F0.2
sg46
F0.1
sg47
F0.6
sg48
I6
sg49
I12
sg50
g22
(g26
S'333333\xc3?'
p613
tp614
Rp615
sg54
I1
sg55
I1
sg56
g57
sg58
I10
sg59
F0.1225
sg60
I1
sg61
I6
sg62
g22
(g26
S'\x00\x00\x00\x00\x00 l@'
p616
tp617
Rp618
sg66
I1
sg67
F0.2
sg68
g69
sg72
I15
sa(dp619
g4
I20
sg5
F0.3
sg6
F0.2
sg7
F0.05
sg8
F0.4
sg9
I8
sg10
I8
sg11
F0.99
sg12
F0.4
sg13
I64
sg14
F0.15
sg15
I0
sg16
I2
sg17
F1.2
sg18
F0.125
sg19
F0.9
sg20
I1
sg21
g22
(g26
S'\x00\x00\x00\x00\x00\x00*@'
p620
tp621
Rp622
sg32
I6
sg33
I-1
sg34
I512
sg35
F0.8
sg36
F0.15
sg37
I1024
sg38
F0.125
sg39
g22
(g26
S'333333\xb3?'
p623
tp624
Rp625
sg43
F0.25
sg44
I2
sg45
F0.2
sg46
F0.1
sg47
F0.6
sg48
I6
sg49
I12
sg50
g22
(g26
S'\x9a\x99\x99\x99\x99\x99\xb9?'
p626
tp627
Rp628
sg54
I1
sg55
I1
sg56
g57
sg58
I10
sg59
F0.1225
sg60
I1
sg61
I6
sg62
g22
(g26
S'\x00\x00\x00\x00\x00 l@'
p629
tp630
Rp631
sg66
I1
sg67
F0.2
sg68
g69
sg72
I15
sa(dp632
g4
I20
sg5
F0.3
sg6
F0.2
sg7
F0.05
sg8
F0.4
sg9
I8
sg10
I8
sg11
F0.99
sg12
F0.4
sg13
I64
sg14
F0.15
sg15
I0
sg16
I2
sg17
F1.2
sg18
F0.125
sg19
F0.9
sg20
I1
sg21
g22
(g26
S'\x00\x00\x00\x00\x00\x00,@'
p633
tp634
Rp635
sg32
I6
sg33
I1
sg34
I512
sg35
F0.8
sg36
F0.15
sg37
I1024
sg38
F0.125
sg39
g22
(g26
S'333333\xb3\xbf'
p636
tp637
Rp638
sg43
F0.25
sg44
I2
sg45
F0.2
sg46
F0.1
sg47
F0.6
sg48
I6
sg49
I12
sg50
g22
(g26
S'\x00\x00\x00\x00\x00\x00\xc0?'
p639
tp640
Rp641
sg54
I1
sg55
I1
sg56
g57
sg58
I10
sg59
F0.1225
sg60
I1
sg61
I6
sg62
g22
(g26
S'\x00\x00\x00\x00\x00 l@'
p642
tp643
Rp644
sg66
I1
sg67
F0.2
sg68
g69
sg72
I15
sa(dp645
g4
I20
sg5
F0.3
sg6
F0.2
sg7
F0.05
sg8
F0.4
sg9
I8
sg10
I8
sg11
F0.99
sg12
F0.4
sg13
I64
sg14
F0.15
sg15
I0
sg16
I2
sg17
F1.2
sg18
F0.125
sg19
F0.9
sg20
I1
sg21
g22
(g26
S'\x00\x00\x00\x00\x00\x00.@'
p646
tp647
Rp648
sg32
I6
sg33
I1
sg34
I512
sg35
F0.8
sg36
F0.15
sg37
I1024
sg38
F0.125
sg39
g22
(g26
S'\x9a\x99\x99\x99\x99\x99\xb9\xbf'
p649
tp650
Rp651
sg43
F0.25
sg44
I2
sg45
F0.2
sg46
F0.1
sg47
F0.6
sg48
I6
sg49
I12
sg50
g22
(g26
S'\x9a\x99\x99\x99\x99\x99\xa9?'
p652
tp653
Rp654
sg54
I1
sg55
I1
sg56
g57
sg58
I10
sg59
F0.1225
sg60
I1
sg61
I6
sg62
g22
(g26
S'\x00\x00\x00\x00\x00 l@'
p655
tp656
Rp657
sg66
I1
sg67
F0.2
sg68
g69
sg72
I15
sa(dp658
g4
I20
sg5
F0.3
sg6
F0.2
sg7
F0.05
sg8
F0.4
sg9
I8
sg10
I8
sg11
F0.99
sg12
F0.4
sg13
I64
sg14
F0.15
sg15
I0
sg16
I2
sg17
F1.2
sg18
F0.125
sg19
F0.9
sg20
I1
sg21
g22
(g26
S'\x00\x00\x00\x00\x00\x000@'
p659
tp660
Rp661
sg32
I6
sg33
I0
sg34
I512
sg35
F0.8
sg36
F0.15
sg37
I1024
sg38
F0.125
sg39
g22
(g26
S'\x99\x99\x99\x99\x99\x99\x99?'
p662
tp663
Rp664
sg43
F0.25
sg44
I2
sg45
F0.2
sg46
F0.1
sg47
F0.6
sg48
I6
sg49
I12
sg50
g22
(g26
S'\x9a\x99\x99\x99\x99\x99\xa9\xbf'
p665
tp666
Rp667
sg54
I1
sg55
I1
sg56
g57
sg58
I10
sg59
F0.1225
sg60
I1
sg61
I6
sg62
g22
(g26
S'\x00\x00\x00\x00\x00 l@'
p668
tp669
Rp670
sg66
I1
sg67
F0.2
sg68
g69
sg72
I15
sa(dp671
g4
I20
sg5
F0.3
sg6
F0.2
sg7
F0.05
sg8
F0.4
sg9
I8
sg10
I8
sg11
F0.99
sg12
F0.4
sg13
I64
sg14
F0.15
sg15
I0
sg16
I2
sg17
F1.2
sg18
F0.125
sg19
F0.9
sg20
I1
sg21
g22
(g26
S'\x00\x00\x00\x00\x00\x001@'
p672
tp673
Rp674
sg32
I6
sg33
I0
sg34
I512
sg35
F0.8
sg36
F0.15
sg37
I1024
sg38
F0.125
sg39
g22
(g26
S'\x9a\x99\x99\x99\x99\x99\xa9?'
p675
tp676
Rp677
sg43
F0.25
sg44
I2
sg45
F0.2
sg46
F0.1
sg47
F0.6
sg48
I6
sg49
I12
sg50
g22
(g26
S'\x00\x00\x00\x00\x00\x00\xc0?'
p678
tp679
Rp680
sg54
I1
sg55
I1
sg56
g57
sg58
I10
sg59
F0.1225
sg60
I1
sg61
I6
sg62
g22
(g26
S'\x00\x00\x00\x00\x00 l@'
p681
tp682
Rp683
sg66
I1
sg67
F0.2
sg68
g69
sg72
I15
sa(dp684
g4
I20
sg5
F0.3
sg6
F0.2
sg7
F0.05
sg8
F0.4
sg9
I8
sg10
I8
sg11
F0.99
sg12
F0.4
sg13
I64
sg14
F0.15
sg15
I0
sg16
I2
sg17
F1.2
sg18
F0.125
sg19
F0.9
sg20
I1
sg21
g22
(g26
S'\x00\x00\x00\x00\x00\x002@'
p685
tp686
Rp687
sg32
I6
sg33
I1
sg34
I512
sg35
F0.8
sg36
F0.15
sg37
I1024
sg38
F0.125
sg39
g22
(g26
S'\x00\x00\x00\x00\x00\x00\xc0\xbf'
p688
tp689
Rp690
sg43
F0.25
sg44
I2
sg45
F0.2
sg46
F0.1
sg47
F0.6
sg48
I6
sg49
I12
sg50
g22
(g26
S'\x00\x00\x00\x00\x00\x00\xc0\xbf'
p691
tp692
Rp693
sg54
I1
sg55
I1
sg56
g57
sg58
I10
sg59
F0.1225
sg60
I1
sg61
I6
sg62
g22
(g26
S'\x00\x00\x00\x00\x00 l@'
p694
tp695
Rp696
sg66
I1
sg67
F0.2
sg68
g69
sg72
I15
sa(dp697
g4
I20
sg5
F0.3
sg6
F0.2
sg7
F0.05
sg8
F0.4
sg9
I8
sg10
I8
sg11
F0.99
sg12
F0.4
sg13
I64
sg14
F0.15
sg15
I0
sg16
I2
sg17
F1.2
sg18
F0.125
sg19
F0.9
sg20
I1
sg21
g22
(g26
S'\x00\x00\x00\x00\x00\x003@'
p698
tp699
Rp700
sg32
I6
sg33
I-1
sg34
I512
sg35
F0.8
sg36
F0.15
sg37
I1024
sg38
F0.125
sg39
g22
(g26
S'\x9a\x99\x99\x99\x99\x99\xa9\xbf'
p701
tp702
Rp703
sg43
F0.25
sg44
I2
sg45
F0.2
sg46
F0.1
sg47
F0.6
sg48
I6
sg49
I12
sg50
g22
(g26
S'\x99\x99\x99\x99\x99\x99\x99\xbf'
p704
tp705
Rp706
sg54
I1
sg55
I1
sg56
g57
sg58
I10
sg59
F0.1225
sg60
I1
sg61
I6
sg62
g22
(g26
S'\x00\x00\x00\x00\x00 l@'
p707
tp708
Rp709
sg66
I1
sg67
F0.2
sg68
g69
sg72
I15
sa(dp710
g4
I20
sg5
F0.3
sg6
F0.2
sg7
F0.05
sg8
F0.4
sg9
I8
sg10
I8
sg11
F0.99
sg12
F0.4
sg13
I64
sg14
F0.15
sg15
I0
sg16
I2
sg17
F1.2
sg18
F0.125
sg19
F0.9
sg20
I1
sg21
g22
(g26
S'\x00\x00\x00\x00\x00\x00\x00\x00'
p711
tp712
Rp713
sg32
I6
sg33
I0
sg34
I512
sg35
F0.8
sg36
F0.15
sg37
I1024
sg38
F0.125
sg39
g22
(g26
S'\x99\x99\x99\x99\x99\x99\x99\xbf'
p714
tp715
Rp716
sg43
F0.25
sg44
I2
sg45
F0.2
sg46
F0.1
sg47
F0.6
sg48
I6
sg49
I12
sg50
g22
(g26
S'\x99\x99\x99\x99\x99\x99\x99\xbf'
p717
tp718
Rp719
sg54
I1
sg55
I1
sg56
g57
sg58
I10
sg59
F0.1225
sg60
I1
sg61
I6
sg62
g22
(g26
S'\x00\x00\x00\x00\x00\x00\xf0\xbf'
p720
tp721
Rp722
sg66
I1
sg67
F0.2
sg68
g69
sg72
I15
sa(dp723
g4
I20
sg5
F0.3
sg6
F0.2
sg7
F0.05
sg8
F0.4
sg9
I8
sg10
I8
sg11
F0.99
sg12
F0.4
sg13
I64
sg14
F0.15
sg15
I0
sg16
I2
sg17
F1.2
sg18
F0.125
sg19
F0.9
sg20
I1
sg21
g22
(g26
S'\x00\x00\x00\x00\x00\x00\xf0?'
p724
tp725
Rp726
sg32
I6
sg33
I1
sg34
I512
sg35
F0.8
sg36
F0.15
sg37
I1024
sg38
F0.125
sg39
g22
(g26
S'333333\xb3\xbf'
p727
tp728
Rp729
sg43
F0.25
sg44
I2
sg45
F0.2
sg46
F0.1
sg47
F0.6
sg48
I6
sg49
I12
sg50
g22
(g26
S'\x9a\x99\x99\x99\x99\x99\xa9?'
p730
tp731
Rp732
sg54
I1
sg55
I1
sg56
g57
sg58
I10
sg59
F0.1225
sg60
I1
sg61
I6
sg62
g22
(g26
S'\x00\x00\x00\x00\x00\x00\xf0\xbf'
p733
tp734
Rp735
sg66
I1
sg67
F0.2
sg68
g69
sg72
I15
sa(dp736
g4
I20
sg5
F0.3
sg6
F0.2
sg7
F0.05
sg8
F0.4
sg9
I8
sg10
I8
sg11
F0.99
sg12
F0.4
sg13
I64
sg14
F0.15
sg15
I0
sg16
I2
sg17
F1.2
sg18
F0.125
sg19
F0.9
sg20
I1
sg21
g22
(g26
S'\x00\x00\x00\x00\x00\x00\x00@'
p737
tp738
Rp739
sg32
I6
sg33
I0
sg34
I512
sg35
F0.8
sg36
F0.15
sg37
I1024
sg38
F0.125
sg39
g22
(g26
S'\x9a\x99\x99\x99\x99\x99\xa9\xbf'
p740
tp741
Rp742
sg43
F0.25
sg44
I2
sg45
F0.2
sg46
F0.1
sg47
F0.6
sg48
I6
sg49
I12
sg50
g22
(g26
S'\x99\x99\x99\x99\x99\x99\x99\xbf'
p743
tp744
Rp745
sg54
I1
sg55
I1
sg56
g57
sg58
I10
sg59
F0.1225
sg60
I1
sg61
I6
sg62
g22
(g26
S'\x00\x00\x00\x00\x00\x00\xf0\xbf'
p746
tp747
Rp748
sg66
I1
sg67
F0.2
sg68
g69
sg72
I15
sa(dp749
g4
I20
sg5
F0.3
sg6
F0.2
sg7
F0.05
sg8
F0.4
sg9
I8
sg10
I8
sg11
F0.99
sg12
F0.4
sg13
I64
sg14
F0.15
sg15
I0
sg16
I2
sg17
F1.2
sg18
F0.125
sg19
F0.9
sg20
I1
sg21
g22
(g26
S'\x00\x00\x00\x00\x00\x00\x08@'
p750
tp751
Rp752
sg32
I6
sg33
I1
sg34
I512
sg35
F0.8
sg36
F0.15
sg37
I1024
sg38
F0.125
sg39
g22
(g26
S'\x9a\x99\x99\x99\x99\x99\xa9\xbf'
p753
tp754
Rp755
sg43
F0.25
sg44
I2
sg45
F0.2
sg46
F0.1
sg47
F0.6
sg48
I6
sg49
I12
sg50
g22
(g26
S'\x99\x99\x99\x99\x99\x99\x99\xbf'
p756
tp757
Rp758
sg54
I1
sg55
I1
sg56
g57
sg58
I10
sg59
F0.1225
sg60
I1
sg61
I6
sg62
g22
(g26
S'\x00\x00\x00\x00\x00\x00\xf0\xbf'
p759
tp760
Rp761
sg66
I1
sg67
F0.2
sg68
g69
sg72
I15
sa(dp762
g4
I20
sg5
F0.3
sg6
F0.2
sg7
F0.05
sg8
F0.4
sg9
I8
sg10
I8
sg11
F0.99
sg12
F0.4
sg13
I64
sg14
F0.15
sg15
I0
sg16
I2
sg17
F1.2
sg18
F0.125
sg19
F0.9
sg20
I1
sg21
g22
(g26
S'\x00\x00\x00\x00\x00\x00\x10@'
p763
tp764
Rp765
sg32
I6
sg33
I-1
sg34
I512
sg35
F0.8
sg36
F0.15
sg37
I1024
sg38
F0.125
sg39
g22
(g26
S'\x99\x99\x99\x99\x99\x99\x99\xbf'
p766
tp767
Rp768
sg43
F0.25
sg44
I2
sg45
F0.2
sg46
F0.1
sg47
F0.6
sg48
I6
sg49
I12
sg50
g22
(g26
S'333333\xc3\xbf'
p769
tp770
Rp771
sg54
I1
sg55
I1
sg56
g57
sg58
I10
sg59
F0.1225
sg60
I1
sg61
I6
sg62
g22
(g26
S'\x00\x00\x00\x00\x00\x00\xf0\xbf'
p772
tp773
Rp774
sg66
I1
sg67
F0.2
sg68
g69
sg72
I15
sa(dp775
g4
I20
sg5
F0.3
sg6
F0.2
sg7
F0.05
sg8
F0.4
sg9
I8
sg10
I8
sg11
F0.99
sg12
F0.4
sg13
I64
sg14
F0.15
sg15
I0
sg16
I2
sg17
F1.2
sg18
F0.125
sg19
F0.9
sg20
I1
sg21
g22
(g26
S'\x00\x00\x00\x00\x00\x00\x14@'
p776
tp777
Rp778
sg32
I6
sg33
I-1
sg34
I512
sg35
F0.8
sg36
F0.15
sg37
I1024
sg38
F0.125
sg39
g22
(g26
S'333333\xb3\xbf'
p779
tp780
Rp781
sg43
F0.25
sg44
I2
sg45
F0.2
sg46
F0.1
sg47
F0.6
sg48
I6
sg49
I12
sg50
g22
(g26
S'333333\xc3?'
p782
tp783
Rp784
sg54
I1
sg55
I1
sg56
g57
sg58
I10
sg59
F0.1225
sg60
I1
sg61
I6
sg62
g22
(g26
S'\x00\x00\x00\x00\x00\x00\xf0\xbf'
p785
tp786
Rp787
sg66
I1
sg67
F0.2
sg68
g69
sg72
I15
sa(dp788
g4
I20
sg5
F0.3
sg6
F0.2
sg7
F0.05
sg8
F0.4
sg9
I8
sg10
I8
sg11
F0.99
sg12
F0.4
sg13
I64
sg14
F0.15
sg15
I0
sg16
I2
sg17
F1.2
sg18
F0.125
sg19
F0.9
sg20
I1
sg21
g22
(g26
S'\x00\x00\x00\x00\x00\x00\x18@'
p789
tp790
Rp791
sg32
I6
sg33
I-1
sg34
I512
sg35
F0.8
sg36
F0.15
sg37
I1024
sg38
F0.125
sg39
g22
(g26
S'\x00\x00\x00\x00\x00\x00\xc0\xbf'
p792
tp793
Rp794
sg43
F0.25
sg44
I2
sg45
F0.2
sg46
F0.1
sg47
F0.6
sg48
I6
sg49
I12
sg50
g22
(g26
S'333333\xb3\xbf'
p795
tp796
Rp797
sg54
I1
sg55
I1
sg56
g57
sg58
I10
sg59
F0.1225
sg60
I1
sg61
I6
sg62
g22
(g26
S'\x00\x00\x00\x00\x00\x00\xf0\xbf'
p798
tp799
Rp800
sg66
I1
sg67
F0.2
sg68
g69
sg72
I15
sa(dp801
g4
I20
sg5
F0.3
sg6
F0.2
sg7
F0.05
sg8
F0.4
sg9
I8
sg10
I8
sg11
F0.99
sg12
F0.4
sg13
I64
sg14
F0.15
sg15
I0
sg16
I2
sg17
F1.2
sg18
F0.125
sg19
F0.9
sg20
I1
sg21
g22
(g26
S'\x00\x00\x00\x00\x00\x00\x1c@'
p802
tp803
Rp804
sg32
I6
sg33
I-1
sg34
I512
sg35
F0.8
sg36
F0.15
sg37
I1024
sg38
F0.125
sg39
g22
(g26
S'\x9a\x99\x99\x99\x99\x99\xa9\xbf'
p805
tp806
Rp807
sg43
F0.25
sg44
I2
sg45
F0.2
sg46
F0.1
sg47
F0.6
sg48
I6
sg49
I12
sg50
g22
(g26
S'333333\xc3?'
p808
tp809
Rp810
sg54
I1
sg55
I1
sg56
g57
sg58
I10
sg59
F0.1225
sg60
I1
sg61
I6
sg62
g22
(g26
S'\x00\x00\x00\x00\x00\x00\xf0\xbf'
p811
tp812
Rp813
sg66
I1
sg67
F0.2
sg68
g69
sg72
I15
sa(dp814
g4
I20
sg5
F0.3
sg6
F0.2
sg7
F0.05
sg8
F0.4
sg9
I8
sg10
I8
sg11
F0.99
sg12
F0.4
sg13
I64
sg14
F0.15
sg15
I0
sg16
I2
sg17
F1.2
sg18
F0.125
sg19
F0.9
sg20
I1
sg21
g22
(g26
S'\x00\x00\x00\x00\x00\x00 @'
p815
tp816
Rp817
sg32
I6
sg33
I-1
sg34
I512
sg35
F0.8
sg36
F0.15
sg37
I1024
sg38
F0.125
sg39
g22
(g26
S'\x99\x99\x99\x99\x99\x99\x99?'
p818
tp819
Rp820
sg43
F0.25
sg44
I2
sg45
F0.2
sg46
F0.1
sg47
F0.6
sg48
I6
sg49
I12
sg50
g22
(g26
S'333333\xc3?'
p821
tp822
Rp823
sg54
I1
sg55
I1
sg56
g57
sg58
I10
sg59
F0.1225
sg60
I1
sg61
I6
sg62
g22
(g26
S'\x00\x00\x00\x00\x00\x00\xf0\xbf'
p824
tp825
Rp826
sg66
I1
sg67
F0.2
sg68
g69
sg72
I15
sa(dp827
g4
I20
sg5
F0.3
sg6
F0.2
sg7
F0.05
sg8
F0.4
sg9
I8
sg10
I8
sg11
F0.99
sg12
F0.4
sg13
I64
sg14
F0.15
sg15
I0
sg16
I2
sg17
F1.2
sg18
F0.125
sg19
F0.9
sg20
I1
sg21
g22
(g26
S'\x00\x00\x00\x00\x00\x00"@'
p828
tp829
Rp830
sg32
I6
sg33
I-1
sg34
I512
sg35
F0.8
sg36
F0.15
sg37
I1024
sg38
F0.125
sg39
g22
(g26
S'\x00\x00\x00\x00\x00\x00\xc0\xbf'
p831
tp832
Rp833
sg43
F0.25
sg44
I2
sg45
F0.2
sg46
F0.1
sg47
F0.6
sg48
I6
sg49
I12
sg50
g22
(g26
S'333333\xc3\xbf'
p834
tp835
Rp836
sg54
I1
sg55
I1
sg56
g57
sg58
I10
sg59
F0.1225
sg60
I1
sg61
I6
sg62
g22
(g26
S'\x00\x00\x00\x00\x00\x00\xf0\xbf'
p837
tp838
Rp839
sg66
I1
sg67
F0.2
sg68
g69
sg72
I15
sag827
asS'eventArray'
p840
(lp841
(lp842
S'trial 0 started at 7.45807600021'
p843
aS'trial 0 phase 1 started at 103.815568924'
p844
aS'trial 0 event space at 103.815592051'
p845
aS'trial 0 phase 2 started at 104.046643972'
p846
aS'trial 0 phase 3 started at 104.246709108'
p847
aa(lp848
S'trial 1 started at 104.805938005'
p849
aS'trial 1 phase 1 started at 105.113390923'
p850
aS'trial 1 phase 2 started at 105.380051136'
p851
aS'trial 1 phase 3 started at 105.580054045'
p852
aa(lp853
S'trial 2 started at 106.142552137'
p854
aS'trial 2 phase 1 started at 106.44670105'
p855
aS'trial 2 phase 2 started at 106.69679904'
p856
aS'trial 2 phase 3 started at 106.913497925'
p857
aa(lp858
S'trial 3 started at 107.470978022'
p859
aS'trial 3 phase 1 started at 107.779034138'
p860
aS'trial 3 phase 2 started at 108.029084921'
p861
aS'trial 3 phase 3 started at 108.229143143'
p862
aa(lp863
S'trial 4 started at 108.769547939'
p864
aS'trial 4 phase 1 started at 109.080191135'
p865
aS'trial 4 phase 2 started at 109.346848011'
p866
aS'trial 4 phase 3 started at 109.563575029'
p867
aa(lp868
S'trial 5 started at 110.122924089'
p869
aS'trial 5 phase 1 started at 110.430259943'
p870
aS'trial 5 phase 2 started at 110.696923971'
p871
aS'trial 5 phase 3 started at 110.913551092'
p872
aa(lp873
S'trial 6 started at 111.472074032'
p874
aS'trial 6 phase 1 started at 111.779233932'
p875
aS'trial 6 phase 2 started at 112.029240131'
p876
aS'trial 6 phase 3 started at 112.229277134'
p877
aa(lp878
S'trial 7 started at 112.773734093'
p879
aS'trial 7 phase 1 started at 113.080274105'
p880
aS'trial 7 phase 2 started at 113.330300093'
p881
aS'trial 7 phase 3 started at 113.54690814'
p882
aa(lp883
S'trial 8 started at 114.08586812'
p884
aS'trial 8 phase 1 started at 114.397000074'
p885
aS'trial 8 phase 2 started at 114.663614035'
p886
aS'trial 8 phase 3 started at 114.880403042'
p887
aa(lp888
S'trial 9 started at 115.438212156'
p889
aS'trial 9 phase 1 started at 115.746020079'
p890
aS'trial 9 phase 2 started at 116.012644053'
p891
aS'trial 9 phase 3 started at 116.212816'
p892
aa(lp893
S'trial 10 started at 116.75613904'
p894
aS'trial 10 phase 1 started at 117.063802004'
p895
aS'trial 10 phase 2 started at 117.313826084'
p896
aS'trial 10 phase 3 started at 117.530416012'
p897
aa(lp898
S'trial 11 started at 118.072632074'
p899
aS'trial 11 phase 1 started at 118.380393028'
p900
aS'trial 11 phase 2 started at 118.630412102'
p901
aS'trial 11 phase 3 started at 118.830451012'
p902
aa(lp903
S'trial 12 started at 119.391094923'
p904
aS'trial 12 phase 1 started at 119.697127104'
p905
aS'trial 12 phase 2 started at 119.94718194'
p906
aS'trial 12 phase 3 started at 120.163830042'
p907
aS'trial 12 event b at 120.550054073'
p908
aa(lp909
S'trial 13 started at 120.721832037'
p910
aS'trial 13 event b at 120.747204065'
p911
aS'trial 13 phase 1 started at 121.030499935'
p912
aS'trial 13 phase 2 started at 121.280549049'
p913
aS'trial 13 phase 3 started at 121.497256041'
p914
aS'trial 13 event y at 121.749896049'
p915
aa(lp916
S'trial 14 started at 122.059113979'
p917
aS'trial 14 phase 1 started at 122.363935947'
p918
aS'trial 14 phase 2 started at 122.630568027'
p919
aS'trial 14 phase 3 started at 122.830635071'
p920
aS'trial 14 event b at 123.199913979'
p921
aa(lp922
S'trial 15 started at 123.388694048'
p923
aS'trial 15 phase 1 started at 123.697247982'
p924
aS'trial 15 phase 2 started at 123.947356939'
p925
aS'trial 15 phase 3 started at 124.147360086'
p926
aS'trial 15 event b at 124.415683985'
p927
aa(lp928
S'trial 16 started at 124.706732035'
p929
aS'trial 16 phase 1 started at 125.012892962'
p930
aS'trial 16 phase 2 started at 125.262928963'
p931
aS'trial 16 phase 3 started at 125.463014126'
p932
aS'trial 16 event y at 125.713052034'
p933
aa(lp934
S'trial 17 started at 126.00543499'
p935
aS'trial 17 phase 1 started at 126.313970089'
p936
aS'trial 17 phase 2 started at 126.564087152'
p937
aS'trial 17 phase 3 started at 126.780691147'
p938
aa(lp939
S'trial 18 started at 127.32003212'
p940
aS'trial 18 event b at 127.348047018'
p941
aS'trial 18 phase 1 started at 127.630741119'
p942
aS'trial 18 phase 2 started at 127.897354126'
p943
aS'trial 18 phase 3 started at 128.097372055'
p944
aS'trial 18 event y at 128.382359982'
p945
aa(lp946
S'trial 19 started at 128.660109997'
p947
aS'trial 19 phase 1 started at 128.963097095'
p948
aS'trial 19 phase 2 started at 129.229804993'
p949
aS'trial 19 phase 3 started at 129.446355104'
p950
aS'trial 19 event b at 129.749191999'
p951
aa(lp952
S'trial 20 started at 129.990844011'
p953
aS'trial 20 phase 1 started at 130.297479153'
p954
aS'trial 20 phase 2 started at 130.547543049'
p955
aS'trial 20 phase 3 started at 130.764117002'
p956
aS'trial 20 event b at 131.016898155'
p957
aa(lp958
S'trial 21 started at 131.30726099'
p959
aS'trial 21 phase 1 started at 131.614179134'
p960
aS'trial 21 phase 2 started at 131.880810976'
p961
aS'trial 21 phase 3 started at 132.080914021'
p962
aS'trial 21 event b at 132.266921043'
p963
aa(lp964
S'trial 22 started at 132.638258934'
p965
aS'trial 22 phase 1 started at 132.946449995'
p966
aS'trial 22 phase 2 started at 133.196537971'
p967
aS'trial 22 phase 3 started at 133.396605968'
p968
aS'trial 22 event b at 133.515836954'
p969
aa(lp970
S'trial 23 started at 133.955239058'
p971
aS'trial 23 phase 1 started at 134.264246941'
p972
aS'trial 23 phase 2 started at 134.514266014'
p973
aS'trial 23 phase 3 started at 134.730901957'
p974
aS'trial 23 event b at 134.850392103'
p975
aa(lp976
S'trial 24 started at 135.271543026'
p977
aS'trial 24 phase 1 started at 135.581038952'
p978
aS'trial 24 phase 2 started at 135.847615004'
p979
aS'trial 24 phase 3 started at 136.047676086'
p980
aS'trial 24 event y at 136.383679152'
p981
aa(lp982
S'trial 25 started at 136.590451956'
p983
aS'trial 25 phase 1 started at 136.897710085'
p984
aS'trial 25 phase 2 started at 137.164335012'
p985
aS'trial 25 phase 3 started at 137.38093996'
p986
aS'trial 25 event y at 137.700453997'
p987
aa(lp988
S'trial 26 started at 137.926849127'
p989
aS'trial 26 phase 1 started at 138.23099494'
p990
aS'trial 26 phase 2 started at 138.481048107'
p991
aS'trial 26 phase 3 started at 138.697639942'
p992
aS'trial 26 event y at 138.966136932'
p993
aa(lp994
S'trial 27 started at 139.255522966'
p995
aS'trial 27 phase 1 started at 139.563359976'
p996
aS'trial 27 phase 2 started at 139.830031157'
p997
aS'trial 27 phase 3 started at 140.030082941'
p998
aa(lp999
S'trial 28 started at 140.571048975'
p1000
aS'trial 28 event b at 140.597871065'
p1001
aS'trial 28 phase 1 started at 140.881119967'
p1002
aS'trial 28 phase 2 started at 141.131138086'
p1003
aS'trial 28 phase 3 started at 141.347867966'
p1004
aa(lp1005
S'trial 29 started at 141.893595934'
p1006
aS'trial 29 event y at 141.914587975'
p1007
aS'trial 29 phase 1 started at 142.198123932'
p1008
aS'trial 29 phase 2 started at 142.464565039'
p1009
aS'trial 29 phase 3 started at 142.664606094'
p1010
aS'trial 29 event b at 142.982826948'
p1011
aa(lp1012
S'trial 30 started at 143.227743149'
p1013
aS'trial 30 phase 1 started at 143.530110121'
p1014
aS'trial 30 phase 2 started at 143.780188084'
p1015
aS'trial 30 phase 3 started at 143.996912956'
p1016
aa(lp1017
S'trial 31 started at 144.541079044'
p1018
aS'trial 31 event y at 144.565201998'
p1019
aS'trial 31 phase 1 started at 144.847976923'
p1020
aS'trial 31 phase 2 started at 145.114598036'
p1021
aS'trial 31 phase 3 started at 145.314604044'
p1022
aS'trial 31 event y at 145.699553967'
p1023
aa(lp1024
S'trial 32 started at 145.87462306'
p1025
aS'trial 32 phase 1 started at 146.180319071'
p1026
aS'trial 32 phase 2 started at 146.446939945'
p1027
aS'trial 32 phase 3 started at 146.66355896'
p1028
aS'trial 32 event b at 147.049678087'
p1029
aa(lp1030
S'trial 33 started at 147.209159136'
p1031
aS'trial 33 phase 1 started at 147.514619112'
p1032
aS'trial 33 phase 2 started at 147.764713049'
p1033
aS'trial 33 phase 3 started at 147.964750051'
p1034
aS'trial 33 event b at 148.264755011'
p1035
aa(lp1036
S'trial 34 started at 148.50868392'
p1037
aS'trial 34 phase 1 started at 148.814691067'
p1038
aS'trial 34 phase 2 started at 149.064700127'
p1039
aS'trial 34 phase 3 started at 149.264765024'
p1040
aS'trial 34 event b at 149.450698137'
p1041
aa(lp1042
S'trial 35 started at 149.821216106'
p1043
aS'trial 35 event y at 149.848145008'
p1044
aS'trial 35 phase 1 started at 150.131407022'
p1045
aS'trial 35 phase 2 started at 150.398047924'
p1046
aS'trial 35 phase 3 started at 150.598068953'
p1047
aa(lp1048
S'trial 36 started at 151.143528938'
p1049
aS'trial 36 phase 1 started at 151.448120117'
p1050
aS'trial 36 phase 2 started at 151.714828968'
p1051
aS'trial 36 phase 3 started at 151.931421041'
p1052
aa(lp1053
S'trial 37 started at 152.490442991'
p1054
aS'trial 37 phase 1 started at 152.797191143'
p1055
aS'trial 37 event b at 152.899874926'
p1056
aS'trial 37 phase 2 started at 153.063733101'
p1057
aS'trial 37 phase 3 started at 153.263795137'
p1058
aa(lp1059
S'trial 38 started at 153.809948921'
p1060
aS'trial 38 event b at 153.831594944'
p1061
aS'trial 38 phase 1 started at 154.11491394'
p1062
aS'trial 38 phase 2 started at 154.381492138'
p1063
aS'trial 38 phase 3 started at 154.581498146'
p1064
aS'trial 38 event y at 154.834234953'
p1065
aa(lp1066
S'trial 39 started at 155.123650074'
p1067
aS'trial 39 phase 1 started at 155.431560993'
p1068
aS'trial 39 phase 2 started at 155.69829607'
p1069
aS'trial 39 phase 3 started at 155.914930105'
p1070
aa(lp1071
S'trial 40 started at 156.471369982'
p1072
aS'trial 40 event b at 156.650002956'
p1073
aS'trial 40 phase 1 started at 156.780513048'
p1074
aS'trial 40 phase 2 started at 157.03053093'
p1075
aS'trial 40 phase 3 started at 157.230598927'
p1076
aa(lp1077
S'trial 41 started at 157.771952152'
p1078
aS'trial 41 phase 1 started at 158.081727028'
p1079
aS'trial 41 phase 2 started at 158.348369122'
p1080
aS'trial 41 phase 3 started at 158.56497407'
p1081
aS'trial 41 event y at 158.865025997'
p1082
aa(lp1083
S'trial 42 started at 159.107650042'
p1084
aS'trial 42 phase 1 started at 159.415030956'
p1085
aS'trial 42 phase 2 started at 159.681735992'
p1086
aS'trial 42 phase 3 started at 159.898420095'
p1087
aS'trial 42 event b at 160.116714001'
p1088
aa(lp1089
S'trial 43 started at 160.454467058'
p1090
aS'trial 43 phase 1 started at 160.764034986'
p1091
aS'trial 43 phase 2 started at 161.014073133'
p1092
aS'trial 43 phase 3 started at 161.230776072'
p1093
aa(lp1094
S'trial 44 started at 161.774631977'
p1095
aS'trial 44 event y at 161.83446908'
p1096
aS'trial 44 phase 1 started at 162.081750154'
p1097
aS'trial 44 event b at 162.217623949'
p1098
aS'trial 44 phase 2 started at 162.331810951'
p1099
aS'trial 44 phase 3 started at 162.548465014'
p1100
aa(lp1101
S'trial 45 started at 163.109487057'
p1102
aS'trial 45 event y at 163.184468985'
p1103
aS'trial 45 phase 1 started at 163.415131092'
p1104
aS'trial 45 phase 2 started at 163.681757927'
p1105
aS'trial 45 phase 3 started at 163.881776094'
p1106
aa(lp1107
S'trial 46 started at 164.441035032'
p1108
aS'trial 46 event b at 164.516813993'
p1109
aS'trial 46 phase 1 started at 164.747482061'
p1110
aS'trial 46 phase 2 started at 165.014086962'
p1111
aS'trial 46 phase 3 started at 165.21420908'
p1112
aS'trial 46 event y at 165.497627974'
p1113
aa(lp1114
S'trial 47 started at 165.767149925'
p1115
aS'trial 47 phase 1 started at 166.081874132'
p1116
aS'trial 47 phase 2 started at 166.348613977'
p1117
aS'trial 47 phase 3 started at 166.565279007'
p1118
aS'trial 47 event b at 166.817816019'
p1119
aa(lp1120
S'trial 48 started at 167.123819113'
p1121
aS'trial 48 phase 1 started at 167.431968927'
p1122
aS'trial 48 phase 2 started at 167.698591948'
p1123
aS'trial 48 phase 3 started at 167.915239096'
p1124
aS'trial 48 event y at 168.183588028'
p1125
aa(lp1126
S'trial 49 started at 168.473097086'
p1127
aS'trial 49 phase 1 started at 168.780930042'
p1128
aS'trial 49 phase 2 started at 169.03098011'
p1129
aS'trial 49 phase 3 started at 169.247559071'
p1130
aa(lp1131
S'trial 50 started at 169.791286945'
p1132
aS'trial 50 event b at 169.884767056'
p1133
aS'trial 50 phase 1 started at 170.098629951'
p1134
aS'trial 50 phase 2 started at 170.348648071'
p1135
aS'trial 50 phase 3 started at 170.548676968'
p1136
aa(lp1137
S'trial 51 started at 171.112951994'
p1138
aS'trial 51 event y at 171.131077051'
p1139
aS'trial 51 phase 1 started at 171.414355993'
p1140
aS'trial 51 phase 2 started at 171.681152105'
p1141
aS'trial 51 phase 3 started at 171.897671938'
p1142
aa(lp1143
S'trial 52 started at 172.440918922'
p1144
aS'trial 52 event b at 172.465976954'
p1145
aS'trial 52 phase 1 started at 172.748702049'
p1146
aS'trial 52 phase 2 started at 172.998791933'
p1147
aS'trial 52 phase 3 started at 173.198810101'
p1148
aa(lp1149
S'trial 53 started at 173.741011143'
p1150
aS'trial 53 event y at 173.765497923'
p1151
aS'trial 53 phase 1 started at 174.048715115'
p1152
aS'trial 53 phase 2 started at 174.298805952'
p1153
aS'trial 53 phase 3 started at 174.498847008'
p1154
aa(lp1155
S'trial 54 started at 175.045782089'
p1156
aS'trial 54 phase 1 started at 175.348843098'
p1157
aS'trial 54 phase 2 started at 175.61550808'
p1158
aS'trial 54 phase 3 started at 175.815534115'
p1159
aa(lp1160
S'trial 55 started at 176.377287149'
p1161
aS'trial 55 phase 1 started at 176.682220936'
p1162
aS'trial 55 phase 2 started at 176.948864937'
p1163
aS'trial 55 phase 3 started at 177.165547132'
p1164
aa(lp1165
S'trial 56 started at 177.725466967'
p1166
aS'trial 56 phase 1 started at 178.031145096'
p1167
aS'trial 56 phase 2 started at 178.281286001'
p1168
aS'trial 56 phase 3 started at 178.497915983'
p1169
aa(lp1170
S'trial 57 started at 179.042412043'
p1171
aS'trial 57 phase 1 started at 179.348885059'
p1172
aS'trial 57 phase 2 started at 179.598935127'
p1173
aS'trial 57 phase 3 started at 179.81568408'
p1174
aa(lp1175
S'trial 58 started at 180.378121138'
p1176
aS'trial 58 phase 1 started at 180.682337046'
p1177
aS'trial 58 phase 2 started at 180.949039936'
p1178
aS'trial 58 phase 3 started at 181.165732145'
p1179
aa(lp1180
S'trial 59 started at 181.721846104'
p1181
aS'trial 59 phase 1 started at 182.031352043'
p1182
a(lp1183
I-99
aF0.4119558334350586
aaS'trial 59 event escape at 182.133872986'
p1184
aag1180
as.