(dp0
S'parameterArray'
p1
(lp2
(dp3
Vprf_stim_barpass_duration
p4
I20
sVblobstim_fix_opacity
p5
F0.3
sVpixstim_fix_aperture_fraction
p6
F0.2
sVblobstim_fix_ecc_min
p7
F0.05
sVpost_fix_time
p8
F0.4
sVpixstim_bg_noise_n_textures
p9
I8
sVpixstim_fix_noise_n_textures
p10
I8
sVpixstim_bg_aperture_fraction
p11
F0.99
sVsize_fixation_deg
p12
F0.4
sVpixstim_fix_tex_size
p13
I64
sVfix_psychometric_curve_interval
p14
F0.15
sVin_scanner
p15
I0
sVblobstim_fix_nr_blobrows_per_ring
p16
I2
sVTR
p17
F1.2
sVblobstim_bg_opacity
p18
F0.125
sVblobstim_fix_spacing_factor
p19
F0.9
sVpixstim_fix_amplitude_exponent
p20
I1
sS'pos_in_bar_trajectory'
p21
cnumpy.core.multiarray
scalar
p22
(cnumpy
dtype
p23
(S'f8'
p24
I0
I1
tp25
Rp26
(I3
S'<'
p27
NNNI-1
I-1
I0
tp28
bS'\x00\x00\x00\x00\x00\x00\x00\x00'
p29
tp30
Rp31
sVfix_psychometric_curve_nr_steps_oneside
p32
I6
sS'answer'
p33
I-1
sVprf_checker_tex_nr_pix
p34
I512
sVblobstim_bg_spacing_factor
p35
F0.8
sVbg_psychometric_curve_interval
p36
F0.15
sVpixstim_bg_tex_size
p37
I1024
sVprf_checker_bar_width
p38
F0.125
sS'bg_trial_stimulus_value'
p39
g22
(g26
S'333333\xb3\xbf'
p40
tp41
Rp42
sVfix_time
p43
F0.25
sVprf_checker_cycles_in_bar
p44
I2
sVpixstim_bg_opacity
p45
F0.2
sVblobstim_bg_ecc_min
p46
F0.1
sVpixstim_fix_opacity
p47
F0.6
sVprf_checker_flicker_frequency
p48
I6
sVblobstim_bg_nr_blobrows_per_ring
p49
I12
sS'fix_trial_stimulus_value'
p50
g22
(g26
S'\x9a\x99\x99\x99\x99\x99\xa9\xbf'
p51
tp52
Rp53
sVpixstim_bg_amplitude_exponent
p54
I1
sVwhich_stimulus_type
p55
I1
sVprf_stim_sequence_angles
p56
(lp57
I-1
aI0
aI225
aI-1
aI90
aI135
aI-1
aI180
aI45
aI-1
aI270
aI135
aI-1
asVprf_stim_blank_duration
p58
I10
sVaperture_stim_sd
p59
F0.1225
sVblobstim_bg_nr_rings
p60
I1
sVbg_psychometric_curve_nr_steps_oneside
p61
I6
sS'bar_orientation'
p62
g22
(g26
S'\x00\x00\x00\x00\x00\x00\xf0\xbf'
p63
tp64
Rp65
sVblobstim_fix_nr_ring
p66
I1
sVstim_time
p67
F0.2
sVanswer_dictionary
p68
(dp69
Vy
p70
I1
sVb
p71
I0
ssVblobstim_bg_ecc_max
p72
I15
sa(dp73
g4
I20
sg5
F0.3
sg6
F0.2
sg7
F0.05
sg8
F0.4
sg9
I8
sg10
I8
sg11
F0.99
sg12
F0.4
sg13
I64
sg14
F0.15
sg15
I0
sg16
I2
sg17
F1.2
sg18
F0.125
sg19
F0.9
sg20
I1
sg21
g22
(g26
S'\x00\x00\x00\x00\x00\x00\xf0?'
p74
tp75
Rp76
sg32
I6
sg33
I0
sg34
I512
sg35
F0.8
sg36
F0.15
sg37
I1024
sg38
F0.125
sg39
g22
(g26
S'\x9a\x99\x99\x99\x99\x99\xa9\xbf'
p77
tp78
Rp79
sg43
F0.25
sg44
I2
sg45
F0.2
sg46
F0.1
sg47
F0.6
sg48
I6
sg49
I12
sg50
g22
(g26
S'333333\xc3?'
p80
tp81
Rp82
sg54
I1
sg55
I1
sg56
g57
sg58
I10
sg59
F0.1225
sg60
I1
sg61
I6
sg62
g22
(g26
S'\x00\x00\x00\x00\x00\x00\xf0\xbf'
p83
tp84
Rp85
sg66
I1
sg67
F0.2
sg68
g69
sg72
I15
sa(dp86
g4
I20
sg5
F0.3
sg6
F0.2
sg7
F0.05
sg8
F0.4
sg9
I8
sg10
I8
sg11
F0.99
sg12
F0.4
sg13
I64
sg14
F0.15
sg15
I0
sg16
I2
sg17
F1.2
sg18
F0.125
sg19
F0.9
sg20
I1
sg21
g22
(g26
S'\x00\x00\x00\x00\x00\x00\x00@'
p87
tp88
Rp89
sg32
I6
sg33
I1
sg34
I512
sg35
F0.8
sg36
F0.15
sg37
I1024
sg38
F0.125
sg39
g22
(g26
S'333333\xb3?'
p90
tp91
Rp92
sg43
F0.25
sg44
I2
sg45
F0.2
sg46
F0.1
sg47
F0.6
sg48
I6
sg49
I12
sg50
g22
(g26
S'333333\xb3\xbf'
p93
tp94
Rp95
sg54
I1
sg55
I1
sg56
g57
sg58
I10
sg59
F0.1225
sg60
I1
sg61
I6
sg62
g22
(g26
S'\x00\x00\x00\x00\x00\x00\xf0\xbf'
p96
tp97
Rp98
sg66
I1
sg67
F0.2
sg68
g69
sg72
I15
sa(dp99
g4
I20
sg5
F0.3
sg6
F0.2
sg7
F0.05
sg8
F0.4
sg9
I8
sg10
I8
sg11
F0.99
sg12
F0.4
sg13
I64
sg14
F0.15
sg15
I0
sg16
I2
sg17
F1.2
sg18
F0.125
sg19
F0.9
sg20
I1
sg21
g22
(g26
S'\x00\x00\x00\x00\x00\x00\x08@'
p100
tp101
Rp102
sg32
I6
sg33
I-1
sg34
I512
sg35
F0.8
sg36
F0.15
sg37
I1024
sg38
F0.125
sg39
g22
(g26
S'333333\xb3\xbf'
p103
tp104
Rp105
sg43
F0.25
sg44
I2
sg45
F0.2
sg46
F0.1
sg47
F0.6
sg48
I6
sg49
I12
sg50
g22
(g26
S'\x9a\x99\x99\x99\x99\x99\xb9\xbf'
p106
tp107
Rp108
sg54
I1
sg55
I1
sg56
g57
sg58
I10
sg59
F0.1225
sg60
I1
sg61
I6
sg62
g22
(g26
S'\x00\x00\x00\x00\x00\x00\xf0\xbf'
p109
tp110
Rp111
sg66
I1
sg67
F0.2
sg68
g69
sg72
I15
sa(dp112
g4
I20
sg5
F0.3
sg6
F0.2
sg7
F0.05
sg8
F0.4
sg9
I8
sg10
I8
sg11
F0.99
sg12
F0.4
sg13
I64
sg14
F0.15
sg15
I0
sg16
I2
sg17
F1.2
sg18
F0.125
sg19
F0.9
sg20
I1
sg21
g22
(g26
S'\x00\x00\x00\x00\x00\x00\x10@'
p113
tp114
Rp115
sg32
I6
sg33
I0
sg34
I512
sg35
F0.8
sg36
F0.15
sg37
I1024
sg38
F0.125
sg39
g22
(g26
S'\x9a\x99\x99\x99\x99\x99\xa9?'
p116
tp117
Rp118
sg43
F0.25
sg44
I2
sg45
F0.2
sg46
F0.1
sg47
F0.6
sg48
I6
sg49
I12
sg50
g22
(g26
S'333333\xc3\xbf'
p119
tp120
Rp121
sg54
I1
sg55
I1
sg56
g57
sg58
I10
sg59
F0.1225
sg60
I1
sg61
I6
sg62
g22
(g26
S'\x00\x00\x00\x00\x00\x00\xf0\xbf'
p122
tp123
Rp124
sg66
I1
sg67
F0.2
sg68
g69
sg72
I15
sa(dp125
g4
I20
sg5
F0.3
sg6
F0.2
sg7
F0.05
sg8
F0.4
sg9
I8
sg10
I8
sg11
F0.99
sg12
F0.4
sg13
I64
sg14
F0.15
sg15
I0
sg16
I2
sg17
F1.2
sg18
F0.125
sg19
F0.9
sg20
I1
sg21
g22
(g26
S'\x00\x00\x00\x00\x00\x00\x14@'
p126
tp127
Rp128
sg32
I6
sg33
I1
sg34
I512
sg35
F0.8
sg36
F0.15
sg37
I1024
sg38
F0.125
sg39
g22
(g26
S'333333\xc3\xbf'
p129
tp130
Rp131
sg43
F0.25
sg44
I2
sg45
F0.2
sg46
F0.1
sg47
F0.6
sg48
I6
sg49
I12
sg50
g22
(g26
S'\x9a\x99\x99\x99\x99\x99\xa9\xbf'
p132
tp133
Rp134
sg54
I1
sg55
I1
sg56
g57
sg58
I10
sg59
F0.1225
sg60
I1
sg61
I6
sg62
g22
(g26
S'\x00\x00\x00\x00\x00\x00\xf0\xbf'
p135
tp136
Rp137
sg66
I1
sg67
F0.2
sg68
g69
sg72
I15
sa(dp138
g4
I20
sg5
F0.3
sg6
F0.2
sg7
F0.05
sg8
F0.4
sg9
I8
sg10
I8
sg11
F0.99
sg12
F0.4
sg13
I64
sg14
F0.15
sg15
I0
sg16
I2
sg17
F1.2
sg18
F0.125
sg19
F0.9
sg20
I1
sg21
g22
(g26
S'\x00\x00\x00\x00\x00\x00\x18@'
p139
tp140
Rp141
sg32
I6
sg33
I1
sg34
I512
sg35
F0.8
sg36
F0.15
sg37
I1024
sg38
F0.125
sg39
g22
(g26
S'\x00\x00\x00\x00\x00\x00\xc0?'
p142
tp143
Rp144
sg43
F0.25
sg44
I2
sg45
F0.2
sg46
F0.1
sg47
F0.6
sg48
I6
sg49
I12
sg50
g22
(g26
S'\x9a\x99\x99\x99\x99\x99\xb9?'
p145
tp146
Rp147
sg54
I1
sg55
I1
sg56
g57
sg58
I10
sg59
F0.1225
sg60
I1
sg61
I6
sg62
g22
(g26
S'\x00\x00\x00\x00\x00\x00\xf0\xbf'
p148
tp149
Rp150
sg66
I1
sg67
F0.2
sg68
g69
sg72
I15
sa(dp151
g4
I20
sg5
F0.3
sg6
F0.2
sg7
F0.05
sg8
F0.4
sg9
I8
sg10
I8
sg11
F0.99
sg12
F0.4
sg13
I64
sg14
F0.15
sg15
I0
sg16
I2
sg17
F1.2
sg18
F0.125
sg19
F0.9
sg20
I1
sg21
g22
(g26
S'\x00\x00\x00\x00\x00\x00\x1c@'
p152
tp153
Rp154
sg32
I6
sg33
I-1
sg34
I512
sg35
F0.8
sg36
F0.15
sg37
I1024
sg38
F0.125
sg39
g22
(g26
S'\x9a\x99\x99\x99\x99\x99\xb9\xbf'
p155
tp156
Rp157
sg43
F0.25
sg44
I2
sg45
F0.2
sg46
F0.1
sg47
F0.6
sg48
I6
sg49
I12
sg50
g22
(g26
S'333333\xb3\xbf'
p158
tp159
Rp160
sg54
I1
sg55
I1
sg56
g57
sg58
I10
sg59
F0.1225
sg60
I1
sg61
I6
sg62
g22
(g26
S'\x00\x00\x00\x00\x00\x00\xf0\xbf'
p161
tp162
Rp163
sg66
I1
sg67
F0.2
sg68
g69
sg72
I15
sa(dp164
g4
I20
sg5
F0.3
sg6
F0.2
sg7
F0.05
sg8
F0.4
sg9
I8
sg10
I8
sg11
F0.99
sg12
F0.4
sg13
I64
sg14
F0.15
sg15
I0
sg16
I2
sg17
F1.2
sg18
F0.125
sg19
F0.9
sg20
I1
sg21
g22
(g26
S'\x00\x00\x00\x00\x00\x00 @'
p165
tp166
Rp167
sg32
I6
sg33
I0
sg34
I512
sg35
F0.8
sg36
F0.15
sg37
I1024
sg38
F0.125
sg39
g22
(g26
S'333333\xc3?'
p168
tp169
Rp170
sg43
F0.25
sg44
I2
sg45
F0.2
sg46
F0.1
sg47
F0.6
sg48
I6
sg49
I12
sg50
g22
(g26
S'333333\xc3\xbf'
p171
tp172
Rp173
sg54
I1
sg55
I1
sg56
g57
sg58
I10
sg59
F0.1225
sg60
I1
sg61
I6
sg62
g22
(g26
S'\x00\x00\x00\x00\x00\x00\xf0\xbf'
p174
tp175
Rp176
sg66
I1
sg67
F0.2
sg68
g69
sg72
I15
sa(dp177
g4
I20
sg5
F0.3
sg6
F0.2
sg7
F0.05
sg8
F0.4
sg9
I8
sg10
I8
sg11
F0.99
sg12
F0.4
sg13
I64
sg14
F0.15
sg15
I0
sg16
I2
sg17
F1.2
sg18
F0.125
sg19
F0.9
sg20
I1
sg21
g22
(g26
S'\x00\x00\x00\x00\x00\x00"@'
p178
tp179
Rp180
sg32
I6
sg33
I0
sg34
I512
sg35
F0.8
sg36
F0.15
sg37
I1024
sg38
F0.125
sg39
g22
(g26
S'\x99\x99\x99\x99\x99\x99\x99\xbf'
p181
tp182
Rp183
sg43
F0.25
sg44
I2
sg45
F0.2
sg46
F0.1
sg47
F0.6
sg48
I6
sg49
I12
sg50
g22
(g26
S'333333\xc3?'
p184
tp185
Rp186
sg54
I1
sg55
I1
sg56
g57
sg58
I10
sg59
F0.1225
sg60
I1
sg61
I6
sg62
g22
(g26
S'\x00\x00\x00\x00\x00\x00\xf0\xbf'
p187
tp188
Rp189
sg66
I1
sg67
F0.2
sg68
g69
sg72
I15
sa(dp190
g4
I20
sg5
F0.3
sg6
F0.2
sg7
F0.05
sg8
F0.4
sg9
I8
sg10
I8
sg11
F0.99
sg12
F0.4
sg13
I64
sg14
F0.15
sg15
I0
sg16
I2
sg17
F1.2
sg18
F0.125
sg19
F0.9
sg20
I1
sg21
g22
(g26
S'\x00\x00\x00\x00\x00\x00\x00\x00'
p191
tp192
Rp193
sg32
I6
sg33
I1
sg34
I512
sg35
F0.8
sg36
F0.15
sg37
I1024
sg38
F0.125
sg39
g22
(g26
S'333333\xb3\xbf'
p194
tp195
Rp196
sg43
F0.25
sg44
I2
sg45
F0.2
sg46
F0.1
sg47
F0.6
sg48
I6
sg49
I12
sg50
g22
(g26
S'333333\xc3\xbf'
p197
tp198
Rp199
sg54
I1
sg55
I1
sg56
g57
sg58
I10
sg59
F0.1225
sg60
I1
sg61
I6
sg62
g22
(g26
S'\x00\x00\x00\x00\x00\x00\x00\x00'
p200
tp201
Rp202
sg66
I1
sg67
F0.2
sg68
g69
sg72
I15
sa(dp203
g4
I20
sg5
F0.3
sg6
F0.2
sg7
F0.05
sg8
F0.4
sg9
I8
sg10
I8
sg11
F0.99
sg12
F0.4
sg13
I64
sg14
F0.15
sg15
I0
sg16
I2
sg17
F1.2
sg18
F0.125
sg19
F0.9
sg20
I1
sg21
g22
(g26
S'\x00\x00\x00\x00\x00\x00\xf0?'
p204
tp205
Rp206
sg32
I6
sg33
I-1
sg34
I512
sg35
F0.8
sg36
F0.15
sg37
I1024
sg38
F0.125
sg39
g22
(g26
S'\x99\x99\x99\x99\x99\x99\x99\xbf'
p207
tp208
Rp209
sg43
F0.25
sg44
I2
sg45
F0.2
sg46
F0.1
sg47
F0.6
sg48
I6
sg49
I12
sg50
g22
(g26
S'333333\xb3\xbf'
p210
tp211
Rp212
sg54
I1
sg55
I1
sg56
g57
sg58
I10
sg59
F0.1225
sg60
I1
sg61
I6
sg62
g22
(g26
S'\x00\x00\x00\x00\x00\x00\x00\x00'
p213
tp214
Rp215
sg66
I1
sg67
F0.2
sg68
g69
sg72
I15
sa(dp216
g4
I20
sg5
F0.3
sg6
F0.2
sg7
F0.05
sg8
F0.4
sg9
I8
sg10
I8
sg11
F0.99
sg12
F0.4
sg13
I64
sg14
F0.15
sg15
I0
sg16
I2
sg17
F1.2
sg18
F0.125
sg19
F0.9
sg20
I1
sg21
g22
(g26
S'\x00\x00\x00\x00\x00\x00\x00@'
p217
tp218
Rp219
sg32
I6
sg33
I1
sg34
I512
sg35
F0.8
sg36
F0.15
sg37
I1024
sg38
F0.125
sg39
g22
(g26
S'\x99\x99\x99\x99\x99\x99\x99\xbf'
p220
tp221
Rp222
sg43
F0.25
sg44
I2
sg45
F0.2
sg46
F0.1
sg47
F0.6
sg48
I6
sg49
I12
sg50
g22
(g26
S'\x9a\x99\x99\x99\x99\x99\xb9?'
p223
tp224
Rp225
sg54
I1
sg55
I1
sg56
g57
sg58
I10
sg59
F0.1225
sg60
I1
sg61
I6
sg62
g22
(g26
S'\x00\x00\x00\x00\x00\x00\x00\x00'
p226
tp227
Rp228
sg66
I1
sg67
F0.2
sg68
g69
sg72
I15
sa(dp229
g4
I20
sg5
F0.3
sg6
F0.2
sg7
F0.05
sg8
F0.4
sg9
I8
sg10
I8
sg11
F0.99
sg12
F0.4
sg13
I64
sg14
F0.15
sg15
I0
sg16
I2
sg17
F1.2
sg18
F0.125
sg19
F0.9
sg20
I1
sg21
g22
(g26
S'\x00\x00\x00\x00\x00\x00\x08@'
p230
tp231
Rp232
sg32
I6
sg33
I1
sg34
I512
sg35
F0.8
sg36
F0.15
sg37
I1024
sg38
F0.125
sg39
g22
(g26
S'333333\xb3\xbf'
p233
tp234
Rp235
sg43
F0.25
sg44
I2
sg45
F0.2
sg46
F0.1
sg47
F0.6
sg48
I6
sg49
I12
sg50
g22
(g26
S'333333\xb3\xbf'
p236
tp237
Rp238
sg54
I1
sg55
I1
sg56
g57
sg58
I10
sg59
F0.1225
sg60
I1
sg61
I6
sg62
g22
(g26
S'\x00\x00\x00\x00\x00\x00\x00\x00'
p239
tp240
Rp241
sg66
I1
sg67
F0.2
sg68
g69
sg72
I15
sa(dp242
g4
I20
sg5
F0.3
sg6
F0.2
sg7
F0.05
sg8
F0.4
sg9
I8
sg10
I8
sg11
F0.99
sg12
F0.4
sg13
I64
sg14
F0.15
sg15
I0
sg16
I2
sg17
F1.2
sg18
F0.125
sg19
F0.9
sg20
I1
sg21
g22
(g26
S'\x00\x00\x00\x00\x00\x00\x10@'
p243
tp244
Rp245
sg32
I6
sg33
I0
sg34
I512
sg35
F0.8
sg36
F0.15
sg37
I1024
sg38
F0.125
sg39
g22
(g26
S'\x99\x99\x99\x99\x99\x99\x99?'
p246
tp247
Rp248
sg43
F0.25
sg44
I2
sg45
F0.2
sg46
F0.1
sg47
F0.6
sg48
I6
sg49
I12
sg50
g22
(g26
S'\x00\x00\x00\x00\x00\x00\xc0?'
p249
tp250
Rp251
sg54
I1
sg55
I1
sg56
g57
sg58
I10
sg59
F0.1225
sg60
I1
sg61
I6
sg62
g22
(g26
S'\x00\x00\x00\x00\x00\x00\x00\x00'
p252
tp253
Rp254
sg66
I1
sg67
F0.2
sg68
g69
sg72
I15
sa(dp255
g4
I20
sg5
F0.3
sg6
F0.2
sg7
F0.05
sg8
F0.4
sg9
I8
sg10
I8
sg11
F0.99
sg12
F0.4
sg13
I64
sg14
F0.15
sg15
I0
sg16
I2
sg17
F1.2
sg18
F0.125
sg19
F0.9
sg20
I1
sg21
g22
(g26
S'\x00\x00\x00\x00\x00\x00\x14@'
p256
tp257
Rp258
sg32
I6
sg33
I0
sg34
I512
sg35
F0.8
sg36
F0.15
sg37
I1024
sg38
F0.125
sg39
g22
(g26
S'333333\xc3?'
p259
tp260
Rp261
sg43
F0.25
sg44
I2
sg45
F0.2
sg46
F0.1
sg47
F0.6
sg48
I6
sg49
I12
sg50
g22
(g26
S'\x9a\x99\x99\x99\x99\x99\xa9?'
p262
tp263
Rp264
sg54
I1
sg55
I1
sg56
g57
sg58
I10
sg59
F0.1225
sg60
I1
sg61
I6
sg62
g22
(g26
S'\x00\x00\x00\x00\x00\x00\x00\x00'
p265
tp266
Rp267
sg66
I1
sg67
F0.2
sg68
g69
sg72
I15
sa(dp268
g4
I20
sg5
F0.3
sg6
F0.2
sg7
F0.05
sg8
F0.4
sg9
I8
sg10
I8
sg11
F0.99
sg12
F0.4
sg13
I64
sg14
F0.15
sg15
I0
sg16
I2
sg17
F1.2
sg18
F0.125
sg19
F0.9
sg20
I1
sg21
g22
(g26
S'\x00\x00\x00\x00\x00\x00\x18@'
p269
tp270
Rp271
sg32
I6
sg33
I1
sg34
I512
sg35
F0.8
sg36
F0.15
sg37
I1024
sg38
F0.125
sg39
g22
(g26
S'\x9a\x99\x99\x99\x99\x99\xb9?'
p272
tp273
Rp274
sg43
F0.25
sg44
I2
sg45
F0.2
sg46
F0.1
sg47
F0.6
sg48
I6
sg49
I12
sg50
g22
(g26
S'\x9a\x99\x99\x99\x99\x99\xa9\xbf'
p275
tp276
Rp277
sg54
I1
sg55
I1
sg56
g57
sg58
I10
sg59
F0.1225
sg60
I1
sg61
I6
sg62
g22
(g26
S'\x00\x00\x00\x00\x00\x00\x00\x00'
p278
tp279
Rp280
sg66
I1
sg67
F0.2
sg68
g69
sg72
I15
sa(dp281
g4
I20
sg5
F0.3
sg6
F0.2
sg7
F0.05
sg8
F0.4
sg9
I8
sg10
I8
sg11
F0.99
sg12
F0.4
sg13
I64
sg14
F0.15
sg15
I0
sg16
I2
sg17
F1.2
sg18
F0.125
sg19
F0.9
sg20
I1
sg21
g22
(g26
S'\x00\x00\x00\x00\x00\x00\x1c@'
p282
tp283
Rp284
sg32
I6
sg33
I1
sg34
I512
sg35
F0.8
sg36
F0.15
sg37
I1024
sg38
F0.125
sg39
g22
(g26
S'333333\xb3?'
p285
tp286
Rp287
sg43
F0.25
sg44
I2
sg45
F0.2
sg46
F0.1
sg47
F0.6
sg48
I6
sg49
I12
sg50
g22
(g26
S'\x9a\x99\x99\x99\x99\x99\xa9\xbf'
p288
tp289
Rp290
sg54
I1
sg55
I1
sg56
g57
sg58
I10
sg59
F0.1225
sg60
I1
sg61
I6
sg62
g22
(g26
S'\x00\x00\x00\x00\x00\x00\x00\x00'
p291
tp292
Rp293
sg66
I1
sg67
F0.2
sg68
g69
sg72
I15
sa(dp294
g4
I20
sg5
F0.3
sg6
F0.2
sg7
F0.05
sg8
F0.4
sg9
I8
sg10
I8
sg11
F0.99
sg12
F0.4
sg13
I64
sg14
F0.15
sg15
I0
sg16
I2
sg17
F1.2
sg18
F0.125
sg19
F0.9
sg20
I1
sg21
g22
(g26
S'\x00\x00\x00\x00\x00\x00 @'
p295
tp296
Rp297
sg32
I6
sg33
I-1
sg34
I512
sg35
F0.8
sg36
F0.15
sg37
I1024
sg38
F0.125
sg39
g22
(g26
S'\x9a\x99\x99\x99\x99\x99\xb9\xbf'
p298
tp299
Rp300
sg43
F0.25
sg44
I2
sg45
F0.2
sg46
F0.1
sg47
F0.6
sg48
I6
sg49
I12
sg50
g22
(g26
S'\x00\x00\x00\x00\x00\x00\xc0\xbf'
p301
tp302
Rp303
sg54
I1
sg55
I1
sg56
g57
sg58
I10
sg59
F0.1225
sg60
I1
sg61
I6
sg62
g22
(g26
S'\x00\x00\x00\x00\x00\x00\x00\x00'
p304
tp305
Rp306
sg66
I1
sg67
F0.2
sg68
g69
sg72
I15
sa(dp307
g4
I20
sg5
F0.3
sg6
F0.2
sg7
F0.05
sg8
F0.4
sg9
I8
sg10
I8
sg11
F0.99
sg12
F0.4
sg13
I64
sg14
F0.15
sg15
I0
sg16
I2
sg17
F1.2
sg18
F0.125
sg19
F0.9
sg20
I1
sg21
g22
(g26
S'\x00\x00\x00\x00\x00\x00"@'
p308
tp309
Rp310
sg32
I6
sg33
I1
sg34
I512
sg35
F0.8
sg36
F0.15
sg37
I1024
sg38
F0.125
sg39
g22
(g26
S'\x99\x99\x99\x99\x99\x99\x99\xbf'
p311
tp312
Rp313
sg43
F0.25
sg44
I2
sg45
F0.2
sg46
F0.1
sg47
F0.6
sg48
I6
sg49
I12
sg50
g22
(g26
S'\x00\x00\x00\x00\x00\x00\xc0\xbf'
p314
tp315
Rp316
sg54
I1
sg55
I1
sg56
g57
sg58
I10
sg59
F0.1225
sg60
I1
sg61
I6
sg62
g22
(g26
S'\x00\x00\x00\x00\x00\x00\x00\x00'
p317
tp318
Rp319
sg66
I1
sg67
F0.2
sg68
g69
sg72
I15
sa(dp320
g4
I20
sg5
F0.3
sg6
F0.2
sg7
F0.05
sg8
F0.4
sg9
I8
sg10
I8
sg11
F0.99
sg12
F0.4
sg13
I64
sg14
F0.15
sg15
I0
sg16
I2
sg17
F1.2
sg18
F0.125
sg19
F0.9
sg20
I1
sg21
g22
(g26
S'\x00\x00\x00\x00\x00\x00$@'
p321
tp322
Rp323
sg32
I6
sg33
I0
sg34
I512
sg35
F0.8
sg36
F0.15
sg37
I1024
sg38
F0.125
sg39
g22
(g26
S'\x99\x99\x99\x99\x99\x99\x99\xbf'
p324
tp325
Rp326
sg43
F0.25
sg44
I2
sg45
F0.2
sg46
F0.1
sg47
F0.6
sg48
I6
sg49
I12
sg50
g22
(g26
S'\x00\x00\x00\x00\x00\x00\xc0?'
p327
tp328
Rp329
sg54
I1
sg55
I1
sg56
g57
sg58
I10
sg59
F0.1225
sg60
I1
sg61
I6
sg62
g22
(g26
S'\x00\x00\x00\x00\x00\x00\x00\x00'
p330
tp331
Rp332
sg66
I1
sg67
F0.2
sg68
g69
sg72
I15
sa(dp333
g4
I20
sg5
F0.3
sg6
F0.2
sg7
F0.05
sg8
F0.4
sg9
I8
sg10
I8
sg11
F0.99
sg12
F0.4
sg13
I64
sg14
F0.15
sg15
I0
sg16
I2
sg17
F1.2
sg18
F0.125
sg19
F0.9
sg20
I1
sg21
g22
(g26
S'\x00\x00\x00\x00\x00\x00&@'
p334
tp335
Rp336
sg32
I6
sg33
I0
sg34
I512
sg35
F0.8
sg36
F0.15
sg37
I1024
sg38
F0.125
sg39
g22
(g26
S'\x9a\x99\x99\x99\x99\x99\xa9\xbf'
p337
tp338
Rp339
sg43
F0.25
sg44
I2
sg45
F0.2
sg46
F0.1
sg47
F0.6
sg48
I6
sg49
I12
sg50
g22
(g26
S'\x9a\x99\x99\x99\x99\x99\xb9\xbf'
p340
tp341
Rp342
sg54
I1
sg55
I1
sg56
g57
sg58
I10
sg59
F0.1225
sg60
I1
sg61
I6
sg62
g22
(g26
S'\x00\x00\x00\x00\x00\x00\x00\x00'
p343
tp344
Rp345
sg66
I1
sg67
F0.2
sg68
g69
sg72
I15
sa(dp346
g4
I20
sg5
F0.3
sg6
F0.2
sg7
F0.05
sg8
F0.4
sg9
I8
sg10
I8
sg11
F0.99
sg12
F0.4
sg13
I64
sg14
F0.15
sg15
I0
sg16
I2
sg17
F1.2
sg18
F0.125
sg19
F0.9
sg20
I1
sg21
g22
(g26
S'\x00\x00\x00\x00\x00\x00(@'
p347
tp348
Rp349
sg32
I6
sg33
I0
sg34
I512
sg35
F0.8
sg36
F0.15
sg37
I1024
sg38
F0.125
sg39
g22
(g26
S'\x9a\x99\x99\x99\x99\x99\xb9?'
p350
tp351
Rp352
sg43
F0.25
sg44
I2
sg45
F0.2
sg46
F0.1
sg47
F0.6
sg48
I6
sg49
I12
sg50
g22
(g26
S'\x9a\x99\x99\x99\x99\x99\xb9?'
p353
tp354
Rp355
sg54
I1
sg55
I1
sg56
g57
sg58
I10
sg59
F0.1225
sg60
I1
sg61
I6
sg62
g22
(g26
S'\x00\x00\x00\x00\x00\x00\x00\x00'
p356
tp357
Rp358
sg66
I1
sg67
F0.2
sg68
g69
sg72
I15
sa(dp359
g4
I20
sg5
F0.3
sg6
F0.2
sg7
F0.05
sg8
F0.4
sg9
I8
sg10
I8
sg11
F0.99
sg12
F0.4
sg13
I64
sg14
F0.15
sg15
I0
sg16
I2
sg17
F1.2
sg18
F0.125
sg19
F0.9
sg20
I1
sg21
g22
(g26
S'\x00\x00\x00\x00\x00\x00*@'
p360
tp361
Rp362
sg32
I6
sg33
I0
sg34
I512
sg35
F0.8
sg36
F0.15
sg37
I1024
sg38
F0.125
sg39
g22
(g26
S'\x9a\x99\x99\x99\x99\x99\xa9\xbf'
p363
tp364
Rp365
sg43
F0.25
sg44
I2
sg45
F0.2
sg46
F0.1
sg47
F0.6
sg48
I6
sg49
I12
sg50
g22
(g26
S'\x99\x99\x99\x99\x99\x99\x99?'
p366
tp367
Rp368
sg54
I1
sg55
I1
sg56
g57
sg58
I10
sg59
F0.1225
sg60
I1
sg61
I6
sg62
g22
(g26
S'\x00\x00\x00\x00\x00\x00\x00\x00'
p369
tp370
Rp371
sg66
I1
sg67
F0.2
sg68
g69
sg72
I15
sa(dp372
g4
I20
sg5
F0.3
sg6
F0.2
sg7
F0.05
sg8
F0.4
sg9
I8
sg10
I8
sg11
F0.99
sg12
F0.4
sg13
I64
sg14
F0.15
sg15
I0
sg16
I2
sg17
F1.2
sg18
F0.125
sg19
F0.9
sg20
I1
sg21
g22
(g26
S'\x00\x00\x00\x00\x00\x00,@'
p373
tp374
Rp375
sg32
I6
sg33
I0
sg34
I512
sg35
F0.8
sg36
F0.15
sg37
I1024
sg38
F0.125
sg39
g22
(g26
S'\x9a\x99\x99\x99\x99\x99\xa9?'
p376
tp377
Rp378
sg43
F0.25
sg44
I2
sg45
F0.2
sg46
F0.1
sg47
F0.6
sg48
I6
sg49
I12
sg50
g22
(g26
S'\x9a\x99\x99\x99\x99\x99\xa9\xbf'
p379
tp380
Rp381
sg54
I1
sg55
I1
sg56
g57
sg58
I10
sg59
F0.1225
sg60
I1
sg61
I6
sg62
g22
(g26
S'\x00\x00\x00\x00\x00\x00\x00\x00'
p382
tp383
Rp384
sg66
I1
sg67
F0.2
sg68
g69
sg72
I15
sa(dp385
g4
I20
sg5
F0.3
sg6
F0.2
sg7
F0.05
sg8
F0.4
sg9
I8
sg10
I8
sg11
F0.99
sg12
F0.4
sg13
I64
sg14
F0.15
sg15
I0
sg16
I2
sg17
F1.2
sg18
F0.125
sg19
F0.9
sg20
I1
sg21
g22
(g26
S'\x00\x00\x00\x00\x00\x00.@'
p386
tp387
Rp388
sg32
I6
sg33
I1
sg34
I512
sg35
F0.8
sg36
F0.15
sg37
I1024
sg38
F0.125
sg39
g22
(g26
S'333333\xb3?'
p389
tp390
Rp391
sg43
F0.25
sg44
I2
sg45
F0.2
sg46
F0.1
sg47
F0.6
sg48
I6
sg49
I12
sg50
g22
(g26
S'\x00\x00\x00\x00\x00\x00\xc0\xbf'
p392
tp393
Rp394
sg54
I1
sg55
I1
sg56
g57
sg58
I10
sg59
F0.1225
sg60
I1
sg61
I6
sg62
g22
(g26
S'\x00\x00\x00\x00\x00\x00\x00\x00'
p395
tp396
Rp397
sg66
I1
sg67
F0.2
sg68
g69
sg72
I15
sa(dp398
g4
I20
sg5
F0.3
sg6
F0.2
sg7
F0.05
sg8
F0.4
sg9
I8
sg10
I8
sg11
F0.99
sg12
F0.4
sg13
I64
sg14
F0.15
sg15
I0
sg16
I2
sg17
F1.2
sg18
F0.125
sg19
F0.9
sg20
I1
sg21
g22
(g26
S'\x00\x00\x00\x00\x00\x000@'
p399
tp400
Rp401
sg32
I6
sg33
I-1
sg34
I512
sg35
F0.8
sg36
F0.15
sg37
I1024
sg38
F0.125
sg39
g22
(g26
S'333333\xc3\xbf'
p402
tp403
Rp404
sg43
F0.25
sg44
I2
sg45
F0.2
sg46
F0.1
sg47
F0.6
sg48
I6
sg49
I12
sg50
g22
(g26
S'\x9a\x99\x99\x99\x99\x99\xa9?'
p405
tp406
Rp407
sg54
I1
sg55
I1
sg56
g57
sg58
I10
sg59
F0.1225
sg60
I1
sg61
I6
sg62
g22
(g26
S'\x00\x00\x00\x00\x00\x00\x00\x00'
p408
tp409
Rp410
sg66
I1
sg67
F0.2
sg68
g69
sg72
I15
sa(dp411
g4
I20
sg5
F0.3
sg6
F0.2
sg7
F0.05
sg8
F0.4
sg9
I8
sg10
I8
sg11
F0.99
sg12
F0.4
sg13
I64
sg14
F0.15
sg15
I0
sg16
I2
sg17
F1.2
sg18
F0.125
sg19
F0.9
sg20
I1
sg21
g22
(g26
S'\x00\x00\x00\x00\x00\x001@'
p412
tp413
Rp414
sg32
I6
sg33
I0
sg34
I512
sg35
F0.8
sg36
F0.15
sg37
I1024
sg38
F0.125
sg39
g22
(g26
S'\x99\x99\x99\x99\x99\x99\x99\xbf'
p415
tp416
Rp417
sg43
F0.25
sg44
I2
sg45
F0.2
sg46
F0.1
sg47
F0.6
sg48
I6
sg49
I12
sg50
g22
(g26
S'\x00\x00\x00\x00\x00\x00\xc0?'
p418
tp419
Rp420
sg54
I1
sg55
I1
sg56
g57
sg58
I10
sg59
F0.1225
sg60
I1
sg61
I6
sg62
g22
(g26
S'\x00\x00\x00\x00\x00\x00\x00\x00'
p421
tp422
Rp423
sg66
I1
sg67
F0.2
sg68
g69
sg72
I15
sa(dp424
g4
I20
sg5
F0.3
sg6
F0.2
sg7
F0.05
sg8
F0.4
sg9
I8
sg10
I8
sg11
F0.99
sg12
F0.4
sg13
I64
sg14
F0.15
sg15
I0
sg16
I2
sg17
F1.2
sg18
F0.125
sg19
F0.9
sg20
I1
sg21
g22
(g26
S'\x00\x00\x00\x00\x00\x002@'
p425
tp426
Rp427
sg32
I6
sg33
I1
sg34
I512
sg35
F0.8
sg36
F0.15
sg37
I1024
sg38
F0.125
sg39
g22
(g26
S'\x9a\x99\x99\x99\x99\x99\xb9\xbf'
p428
tp429
Rp430
sg43
F0.25
sg44
I2
sg45
F0.2
sg46
F0.1
sg47
F0.6
sg48
I6
sg49
I12
sg50
g22
(g26
S'\x9a\x99\x99\x99\x99\x99\xb9\xbf'
p431
tp432
Rp433
sg54
I1
sg55
I1
sg56
g57
sg58
I10
sg59
F0.1225
sg60
I1
sg61
I6
sg62
g22
(g26
S'\x00\x00\x00\x00\x00\x00\x00\x00'
p434
tp435
Rp436
sg66
I1
sg67
F0.2
sg68
g69
sg72
I15
sa(dp437
g4
I20
sg5
F0.3
sg6
F0.2
sg7
F0.05
sg8
F0.4
sg9
I8
sg10
I8
sg11
F0.99
sg12
F0.4
sg13
I64
sg14
F0.15
sg15
I0
sg16
I2
sg17
F1.2
sg18
F0.125
sg19
F0.9
sg20
I1
sg21
g22
(g26
S'\x00\x00\x00\x00\x00\x003@'
p438
tp439
Rp440
sg32
I6
sg33
I0
sg34
I512
sg35
F0.8
sg36
F0.15
sg37
I1024
sg38
F0.125
sg39
g22
(g26
S'\x99\x99\x99\x99\x99\x99\x99\xbf'
p441
tp442
Rp443
sg43
F0.25
sg44
I2
sg45
F0.2
sg46
F0.1
sg47
F0.6
sg48
I6
sg49
I12
sg50
g22
(g26
S'333333\xb3?'
p444
tp445
Rp446
sg54
I1
sg55
I1
sg56
g57
sg58
I10
sg59
F0.1225
sg60
I1
sg61
I6
sg62
g22
(g26
S'\x00\x00\x00\x00\x00\x00\x00\x00'
p447
tp448
Rp449
sg66
I1
sg67
F0.2
sg68
g69
sg72
I15
sa(dp450
g4
I20
sg5
F0.3
sg6
F0.2
sg7
F0.05
sg8
F0.4
sg9
I8
sg10
I8
sg11
F0.99
sg12
F0.4
sg13
I64
sg14
F0.15
sg15
I0
sg16
I2
sg17
F1.2
sg18
F0.125
sg19
F0.9
sg20
I1
sg21
g22
(g26
S'\x00\x00\x00\x00\x00\x00\x00\x00'
p451
tp452
Rp453
sg32
I6
sg33
I1
sg34
I512
sg35
F0.8
sg36
F0.15
sg37
I1024
sg38
F0.125
sg39
g22
(g26
S'333333\xc3?'
p454
tp455
Rp456
sg43
F0.25
sg44
I2
sg45
F0.2
sg46
F0.1
sg47
F0.6
sg48
I6
sg49
I12
sg50
g22
(g26
S'333333\xb3\xbf'
p457
tp458
Rp459
sg54
I1
sg55
I1
sg56
g57
sg58
I10
sg59
F0.1225
sg60
I1
sg61
I6
sg62
g22
(g26
S'\x00\x00\x00\x00\x00 l@'
p460
tp461
Rp462
sg66
I1
sg67
F0.2
sg68
g69
sg72
I15
sa(dp463
g4
I20
sg5
F0.3
sg6
F0.2
sg7
F0.05
sg8
F0.4
sg9
I8
sg10
I8
sg11
F0.99
sg12
F0.4
sg13
I64
sg14
F0.15
sg15
I0
sg16
I2
sg17
F1.2
sg18
F0.125
sg19
F0.9
sg20
I1
sg21
g22
(g26
S'\x00\x00\x00\x00\x00\x00\xf0?'
p464
tp465
Rp466
sg32
I6
sg33
I1
sg34
I512
sg35
F0.8
sg36
F0.15
sg37
I1024
sg38
F0.125
sg39
g22
(g26
S'\x99\x99\x99\x99\x99\x99\x99?'
p467
tp468
Rp469
sg43
F0.25
sg44
I2
sg45
F0.2
sg46
F0.1
sg47
F0.6
sg48
I6
sg49
I12
sg50
g22
(g26
S'\x00\x00\x00\x00\x00\x00\xc0\xbf'
p470
tp471
Rp472
sg54
I1
sg55
I1
sg56
g57
sg58
I10
sg59
F0.1225
sg60
I1
sg61
I6
sg62
g22
(g26
S'\x00\x00\x00\x00\x00 l@'
p473
tp474
Rp475
sg66
I1
sg67
F0.2
sg68
g69
sg72
I15
sa(dp476
g4
I20
sg5
F0.3
sg6
F0.2
sg7
F0.05
sg8
F0.4
sg9
I8
sg10
I8
sg11
F0.99
sg12
F0.4
sg13
I64
sg14
F0.15
sg15
I0
sg16
I2
sg17
F1.2
sg18
F0.125
sg19
F0.9
sg20
I1
sg21
g22
(g26
S'\x00\x00\x00\x00\x00\x00\x00@'
p477
tp478
Rp479
sg32
I6
sg33
I-1
sg34
I512
sg35
F0.8
sg36
F0.15
sg37
I1024
sg38
F0.125
sg39
g22
(g26
S'333333\xc3\xbf'
p480
tp481
Rp482
sg43
F0.25
sg44
I2
sg45
F0.2
sg46
F0.1
sg47
F0.6
sg48
I6
sg49
I12
sg50
g22
(g26
S'\x9a\x99\x99\x99\x99\x99\xa9\xbf'
p483
tp484
Rp485
sg54
I1
sg55
I1
sg56
g57
sg58
I10
sg59
F0.1225
sg60
I1
sg61
I6
sg62
g22
(g26
S'\x00\x00\x00\x00\x00 l@'
p486
tp487
Rp488
sg66
I1
sg67
F0.2
sg68
g69
sg72
I15
sa(dp489
g4
I20
sg5
F0.3
sg6
F0.2
sg7
F0.05
sg8
F0.4
sg9
I8
sg10
I8
sg11
F0.99
sg12
F0.4
sg13
I64
sg14
F0.15
sg15
I0
sg16
I2
sg17
F1.2
sg18
F0.125
sg19
F0.9
sg20
I1
sg21
g22
(g26
S'\x00\x00\x00\x00\x00\x00\x08@'
p490
tp491
Rp492
sg32
I6
sg33
I1
sg34
I512
sg35
F0.8
sg36
F0.15
sg37
I1024
sg38
F0.125
sg39
g22
(g26
S'\x9a\x99\x99\x99\x99\x99\xa9?'
p493
tp494
Rp495
sg43
F0.25
sg44
I2
sg45
F0.2
sg46
F0.1
sg47
F0.6
sg48
I6
sg49
I12
sg50
g22
(g26
S'\x00\x00\x00\x00\x00\x00\xc0?'
p496
tp497
Rp498
sg54
I1
sg55
I1
sg56
g57
sg58
I10
sg59
F0.1225
sg60
I1
sg61
I6
sg62
g22
(g26
S'\x00\x00\x00\x00\x00 l@'
p499
tp500
Rp501
sg66
I1
sg67
F0.2
sg68
g69
sg72
I15
sa(dp502
g4
I20
sg5
F0.3
sg6
F0.2
sg7
F0.05
sg8
F0.4
sg9
I8
sg10
I8
sg11
F0.99
sg12
F0.4
sg13
I64
sg14
F0.15
sg15
I0
sg16
I2
sg17
F1.2
sg18
F0.125
sg19
F0.9
sg20
I1
sg21
g22
(g26
S'\x00\x00\x00\x00\x00\x00\x10@'
p503
tp504
Rp505
sg32
I6
sg33
I0
sg34
I512
sg35
F0.8
sg36
F0.15
sg37
I1024
sg38
F0.125
sg39
g22
(g26
S'\x9a\x99\x99\x99\x99\x99\xa9\xbf'
p506
tp507
Rp508
sg43
F0.25
sg44
I2
sg45
F0.2
sg46
F0.1
sg47
F0.6
sg48
I6
sg49
I12
sg50
g22
(g26
S'333333\xc3?'
p509
tp510
Rp511
sg54
I1
sg55
I1
sg56
g57
sg58
I10
sg59
F0.1225
sg60
I1
sg61
I6
sg62
g22
(g26
S'\x00\x00\x00\x00\x00 l@'
p512
tp513
Rp514
sg66
I1
sg67
F0.2
sg68
g69
sg72
I15
sa(dp515
g4
I20
sg5
F0.3
sg6
F0.2
sg7
F0.05
sg8
F0.4
sg9
I8
sg10
I8
sg11
F0.99
sg12
F0.4
sg13
I64
sg14
F0.15
sg15
I0
sg16
I2
sg17
F1.2
sg18
F0.125
sg19
F0.9
sg20
I1
sg21
g22
(g26
S'\x00\x00\x00\x00\x00\x00\x14@'
p516
tp517
Rp518
sg32
I6
sg33
I1
sg34
I512
sg35
F0.8
sg36
F0.15
sg37
I1024
sg38
F0.125
sg39
g22
(g26
S'\x99\x99\x99\x99\x99\x99\x99?'
p519
tp520
Rp521
sg43
F0.25
sg44
I2
sg45
F0.2
sg46
F0.1
sg47
F0.6
sg48
I6
sg49
I12
sg50
g22
(g26
S'\x00\x00\x00\x00\x00\x00\xc0\xbf'
p522
tp523
Rp524
sg54
I1
sg55
I1
sg56
g57
sg58
I10
sg59
F0.1225
sg60
I1
sg61
I6
sg62
g22
(g26
S'\x00\x00\x00\x00\x00 l@'
p525
tp526
Rp527
sg66
I1
sg67
F0.2
sg68
g69
sg72
I15
sa(dp528
g4
I20
sg5
F0.3
sg6
F0.2
sg7
F0.05
sg8
F0.4
sg9
I8
sg10
I8
sg11
F0.99
sg12
F0.4
sg13
I64
sg14
F0.15
sg15
I0
sg16
I2
sg17
F1.2
sg18
F0.125
sg19
F0.9
sg20
I1
sg21
g22
(g26
S'\x00\x00\x00\x00\x00\x00\x18@'
p529
tp530
Rp531
sg32
I6
sg33
I0
sg34
I512
sg35
F0.8
sg36
F0.15
sg37
I1024
sg38
F0.125
sg39
g22
(g26
S'\x9a\x99\x99\x99\x99\x99\xa9\xbf'
p532
tp533
Rp534
sg43
F0.25
sg44
I2
sg45
F0.2
sg46
F0.1
sg47
F0.6
sg48
I6
sg49
I12
sg50
g22
(g26
S'\x9a\x99\x99\x99\x99\x99\xb9?'
p535
tp536
Rp537
sg54
I1
sg55
I1
sg56
g57
sg58
I10
sg59
F0.1225
sg60
I1
sg61
I6
sg62
g22
(g26
S'\x00\x00\x00\x00\x00 l@'
p538
tp539
Rp540
sg66
I1
sg67
F0.2
sg68
g69
sg72
I15
sa(dp541
g4
I20
sg5
F0.3
sg6
F0.2
sg7
F0.05
sg8
F0.4
sg9
I8
sg10
I8
sg11
F0.99
sg12
F0.4
sg13
I64
sg14
F0.15
sg15
I0
sg16
I2
sg17
F1.2
sg18
F0.125
sg19
F0.9
sg20
I1
sg21
g22
(g26
S'\x00\x00\x00\x00\x00\x00\x1c@'
p542
tp543
Rp544
sg32
I6
sg33
I0
sg34
I512
sg35
F0.8
sg36
F0.15
sg37
I1024
sg38
F0.125
sg39
g22
(g26
S'333333\xb3?'
p545
tp546
Rp547
sg43
F0.25
sg44
I2
sg45
F0.2
sg46
F0.1
sg47
F0.6
sg48
I6
sg49
I12
sg50
g22
(g26
S'\x9a\x99\x99\x99\x99\x99\xa9?'
p548
tp549
Rp550
sg54
I1
sg55
I1
sg56
g57
sg58
I10
sg59
F0.1225
sg60
I1
sg61
I6
sg62
g22
(g26
S'\x00\x00\x00\x00\x00 l@'
p551
tp552
Rp553
sg66
I1
sg67
F0.2
sg68
g69
sg72
I15
sa(dp554
g4
I20
sg5
F0.3
sg6
F0.2
sg7
F0.05
sg8
F0.4
sg9
I8
sg10
I8
sg11
F0.99
sg12
F0.4
sg13
I64
sg14
F0.15
sg15
I0
sg16
I2
sg17
F1.2
sg18
F0.125
sg19
F0.9
sg20
I1
sg21
g22
(g26
S'\x00\x00\x00\x00\x00\x00 @'
p555
tp556
Rp557
sg32
I6
sg33
I1
sg34
I512
sg35
F0.8
sg36
F0.15
sg37
I1024
sg38
F0.125
sg39
g22
(g26
S'\x00\x00\x00\x00\x00\x00\xc0\xbf'
p558
tp559
Rp560
sg43
F0.25
sg44
I2
sg45
F0.2
sg46
F0.1
sg47
F0.6
sg48
I6
sg49
I12
sg50
g22
(g26
S'\x9a\x99\x99\x99\x99\x99\xb9\xbf'
p561
tp562
Rp563
sg54
I1
sg55
I1
sg56
g57
sg58
I10
sg59
F0.1225
sg60
I1
sg61
I6
sg62
g22
(g26
S'\x00\x00\x00\x00\x00 l@'
p564
tp565
Rp566
sg66
I1
sg67
F0.2
sg68
g69
sg72
I15
sa(dp567
g4
I20
sg5
F0.3
sg6
F0.2
sg7
F0.05
sg8
F0.4
sg9
I8
sg10
I8
sg11
F0.99
sg12
F0.4
sg13
I64
sg14
F0.15
sg15
I0
sg16
I2
sg17
F1.2
sg18
F0.125
sg19
F0.9
sg20
I1
sg21
g22
(g26
S'\x00\x00\x00\x00\x00\x00"@'
p568
tp569
Rp570
sg32
I6
sg33
I0
sg34
I512
sg35
F0.8
sg36
F0.15
sg37
I1024
sg38
F0.125
sg39
g22
(g26
S'333333\xc3?'
p571
tp572
Rp573
sg43
F0.25
sg44
I2
sg45
F0.2
sg46
F0.1
sg47
F0.6
sg48
I6
sg49
I12
sg50
g22
(g26
S'\x9a\x99\x99\x99\x99\x99\xa9?'
p574
tp575
Rp576
sg54
I1
sg55
I1
sg56
g57
sg58
I10
sg59
F0.1225
sg60
I1
sg61
I6
sg62
g22
(g26
S'\x00\x00\x00\x00\x00 l@'
p577
tp578
Rp579
sg66
I1
sg67
F0.2
sg68
g69
sg72
I15
sa(dp580
g4
I20
sg5
F0.3
sg6
F0.2
sg7
F0.05
sg8
F0.4
sg9
I8
sg10
I8
sg11
F0.99
sg12
F0.4
sg13
I64
sg14
F0.15
sg15
I0
sg16
I2
sg17
F1.2
sg18
F0.125
sg19
F0.9
sg20
I1
sg21
g22
(g26
S'\x00\x00\x00\x00\x00\x00$@'
p581
tp582
Rp583
sg32
I6
sg33
I1
sg34
I512
sg35
F0.8
sg36
F0.15
sg37
I1024
sg38
F0.125
sg39
g22
(g26
S'333333\xb3?'
p584
tp585
Rp586
sg43
F0.25
sg44
I2
sg45
F0.2
sg46
F0.1
sg47
F0.6
sg48
I6
sg49
I12
sg50
g22
(g26
S'\x99\x99\x99\x99\x99\x99\x99\xbf'
p587
tp588
Rp589
sg54
I1
sg55
I1
sg56
g57
sg58
I10
sg59
F0.1225
sg60
I1
sg61
I6
sg62
g22
(g26
S'\x00\x00\x00\x00\x00 l@'
p590
tp591
Rp592
sg66
I1
sg67
F0.2
sg68
g69
sg72
I15
sa(dp593
g4
I20
sg5
F0.3
sg6
F0.2
sg7
F0.05
sg8
F0.4
sg9
I8
sg10
I8
sg11
F0.99
sg12
F0.4
sg13
I64
sg14
F0.15
sg15
I0
sg16
I2
sg17
F1.2
sg18
F0.125
sg19
F0.9
sg20
I1
sg21
g22
(g26
S'\x00\x00\x00\x00\x00\x00&@'
p594
tp595
Rp596
sg32
I6
sg33
I0
sg34
I512
sg35
F0.8
sg36
F0.15
sg37
I1024
sg38
F0.125
sg39
g22
(g26
S'\x9a\x99\x99\x99\x99\x99\xb9?'
p597
tp598
Rp599
sg43
F0.25
sg44
I2
sg45
F0.2
sg46
F0.1
sg47
F0.6
sg48
I6
sg49
I12
sg50
g22
(g26
S'\x9a\x99\x99\x99\x99\x99\xa9?'
p600
tp601
Rp602
sg54
I1
sg55
I1
sg56
g57
sg58
I10
sg59
F0.1225
sg60
I1
sg61
I6
sg62
g22
(g26
S'\x00\x00\x00\x00\x00 l@'
p603
tp604
Rp605
sg66
I1
sg67
F0.2
sg68
g69
sg72
I15
sa(dp606
g4
I20
sg5
F0.3
sg6
F0.2
sg7
F0.05
sg8
F0.4
sg9
I8
sg10
I8
sg11
F0.99
sg12
F0.4
sg13
I64
sg14
F0.15
sg15
I0
sg16
I2
sg17
F1.2
sg18
F0.125
sg19
F0.9
sg20
I1
sg21
g22
(g26
S'\x00\x00\x00\x00\x00\x00(@'
p607
tp608
Rp609
sg32
I6
sg33
I1
sg34
I512
sg35
F0.8
sg36
F0.15
sg37
I1024
sg38
F0.125
sg39
g22
(g26
S'\x99\x99\x99\x99\x99\x99\x99\xbf'
p610
tp611
Rp612
sg43
F0.25
sg44
I2
sg45
F0.2
sg46
F0.1
sg47
F0.6
sg48
I6
sg49
I12
sg50
g22
(g26
S'333333\xc3\xbf'
p613
tp614
Rp615
sg54
I1
sg55
I1
sg56
g57
sg58
I10
sg59
F0.1225
sg60
I1
sg61
I6
sg62
g22
(g26
S'\x00\x00\x00\x00\x00 l@'
p616
tp617
Rp618
sg66
I1
sg67
F0.2
sg68
g69
sg72
I15
sa(dp619
g4
I20
sg5
F0.3
sg6
F0.2
sg7
F0.05
sg8
F0.4
sg9
I8
sg10
I8
sg11
F0.99
sg12
F0.4
sg13
I64
sg14
F0.15
sg15
I0
sg16
I2
sg17
F1.2
sg18
F0.125
sg19
F0.9
sg20
I1
sg21
g22
(g26
S'\x00\x00\x00\x00\x00\x00*@'
p620
tp621
Rp622
sg32
I6
sg33
I0
sg34
I512
sg35
F0.8
sg36
F0.15
sg37
I1024
sg38
F0.125
sg39
g22
(g26
S'\x00\x00\x00\x00\x00\x00\xc0\xbf'
p623
tp624
Rp625
sg43
F0.25
sg44
I2
sg45
F0.2
sg46
F0.1
sg47
F0.6
sg48
I6
sg49
I12
sg50
g22
(g26
S'\x9a\x99\x99\x99\x99\x99\xb9?'
p626
tp627
Rp628
sg54
I1
sg55
I1
sg56
g57
sg58
I10
sg59
F0.1225
sg60
I1
sg61
I6
sg62
g22
(g26
S'\x00\x00\x00\x00\x00 l@'
p629
tp630
Rp631
sg66
I1
sg67
F0.2
sg68
g69
sg72
I15
sa(dp632
g4
I20
sg5
F0.3
sg6
F0.2
sg7
F0.05
sg8
F0.4
sg9
I8
sg10
I8
sg11
F0.99
sg12
F0.4
sg13
I64
sg14
F0.15
sg15
I0
sg16
I2
sg17
F1.2
sg18
F0.125
sg19
F0.9
sg20
I1
sg21
g22
(g26
S'\x00\x00\x00\x00\x00\x00,@'
p633
tp634
Rp635
sg32
I6
sg33
I0
sg34
I512
sg35
F0.8
sg36
F0.15
sg37
I1024
sg38
F0.125
sg39
g22
(g26
S'\x9a\x99\x99\x99\x99\x99\xb9\xbf'
p636
tp637
Rp638
sg43
F0.25
sg44
I2
sg45
F0.2
sg46
F0.1
sg47
F0.6
sg48
I6
sg49
I12
sg50
g22
(g26
S'\x99\x99\x99\x99\x99\x99\x99?'
p639
tp640
Rp641
sg54
I1
sg55
I1
sg56
g57
sg58
I10
sg59
F0.1225
sg60
I1
sg61
I6
sg62
g22
(g26
S'\x00\x00\x00\x00\x00 l@'
p642
tp643
Rp644
sg66
I1
sg67
F0.2
sg68
g69
sg72
I15
sa(dp645
g4
I20
sg5
F0.3
sg6
F0.2
sg7
F0.05
sg8
F0.4
sg9
I8
sg10
I8
sg11
F0.99
sg12
F0.4
sg13
I64
sg14
F0.15
sg15
I0
sg16
I2
sg17
F1.2
sg18
F0.125
sg19
F0.9
sg20
I1
sg21
g22
(g26
S'\x00\x00\x00\x00\x00\x00.@'
p646
tp647
Rp648
sg32
I6
sg33
I1
sg34
I512
sg35
F0.8
sg36
F0.15
sg37
I1024
sg38
F0.125
sg39
g22
(g26
S'\x9a\x99\x99\x99\x99\x99\xa9?'
p649
tp650
Rp651
sg43
F0.25
sg44
I2
sg45
F0.2
sg46
F0.1
sg47
F0.6
sg48
I6
sg49
I12
sg50
g22
(g26
S'333333\xb3\xbf'
p652
tp653
Rp654
sg54
I1
sg55
I1
sg56
g57
sg58
I10
sg59
F0.1225
sg60
I1
sg61
I6
sg62
g22
(g26
S'\x00\x00\x00\x00\x00 l@'
p655
tp656
Rp657
sg66
I1
sg67
F0.2
sg68
g69
sg72
I15
sa(dp658
g4
I20
sg5
F0.3
sg6
F0.2
sg7
F0.05
sg8
F0.4
sg9
I8
sg10
I8
sg11
F0.99
sg12
F0.4
sg13
I64
sg14
F0.15
sg15
I0
sg16
I2
sg17
F1.2
sg18
F0.125
sg19
F0.9
sg20
I1
sg21
g22
(g26
S'\x00\x00\x00\x00\x00\x000@'
p659
tp660
Rp661
sg32
I6
sg33
I-1
sg34
I512
sg35
F0.8
sg36
F0.15
sg37
I1024
sg38
F0.125
sg39
g22
(g26
S'\x9a\x99\x99\x99\x99\x99\xa9?'
p662
tp663
Rp664
sg43
F0.25
sg44
I2
sg45
F0.2
sg46
F0.1
sg47
F0.6
sg48
I6
sg49
I12
sg50
g22
(g26
S'333333\xb3\xbf'
p665
tp666
Rp667
sg54
I1
sg55
I1
sg56
g57
sg58
I10
sg59
F0.1225
sg60
I1
sg61
I6
sg62
g22
(g26
S'\x00\x00\x00\x00\x00 l@'
p668
tp669
Rp670
sg66
I1
sg67
F0.2
sg68
g69
sg72
I15
sa(dp671
g4
I20
sg5
F0.3
sg6
F0.2
sg7
F0.05
sg8
F0.4
sg9
I8
sg10
I8
sg11
F0.99
sg12
F0.4
sg13
I64
sg14
F0.15
sg15
I0
sg16
I2
sg17
F1.2
sg18
F0.125
sg19
F0.9
sg20
I1
sg21
g22
(g26
S'\x00\x00\x00\x00\x00\x001@'
p672
tp673
Rp674
sg32
I6
sg33
I1
sg34
I512
sg35
F0.8
sg36
F0.15
sg37
I1024
sg38
F0.125
sg39
g22
(g26
S'\x99\x99\x99\x99\x99\x99\x99\xbf'
p675
tp676
Rp677
sg43
F0.25
sg44
I2
sg45
F0.2
sg46
F0.1
sg47
F0.6
sg48
I6
sg49
I12
sg50
g22
(g26
S'333333\xb3\xbf'
p678
tp679
Rp680
sg54
I1
sg55
I1
sg56
g57
sg58
I10
sg59
F0.1225
sg60
I1
sg61
I6
sg62
g22
(g26
S'\x00\x00\x00\x00\x00 l@'
p681
tp682
Rp683
sg66
I1
sg67
F0.2
sg68
g69
sg72
I15
sa(dp684
g4
I20
sg5
F0.3
sg6
F0.2
sg7
F0.05
sg8
F0.4
sg9
I8
sg10
I8
sg11
F0.99
sg12
F0.4
sg13
I64
sg14
F0.15
sg15
I0
sg16
I2
sg17
F1.2
sg18
F0.125
sg19
F0.9
sg20
I1
sg21
g22
(g26
S'\x00\x00\x00\x00\x00\x002@'
p685
tp686
Rp687
sg32
I6
sg33
I-1
sg34
I512
sg35
F0.8
sg36
F0.15
sg37
I1024
sg38
F0.125
sg39
g22
(g26
S'\x9a\x99\x99\x99\x99\x99\xb9?'
p688
tp689
Rp690
sg43
F0.25
sg44
I2
sg45
F0.2
sg46
F0.1
sg47
F0.6
sg48
I6
sg49
I12
sg50
g22
(g26
S'333333\xc3\xbf'
p691
tp692
Rp693
sg54
I1
sg55
I1
sg56
g57
sg58
I10
sg59
F0.1225
sg60
I1
sg61
I6
sg62
g22
(g26
S'\x00\x00\x00\x00\x00 l@'
p694
tp695
Rp696
sg66
I1
sg67
F0.2
sg68
g69
sg72
I15
sa(dp697
g4
I20
sg5
F0.3
sg6
F0.2
sg7
F0.05
sg8
F0.4
sg9
I8
sg10
I8
sg11
F0.99
sg12
F0.4
sg13
I64
sg14
F0.15
sg15
I0
sg16
I2
sg17
F1.2
sg18
F0.125
sg19
F0.9
sg20
I1
sg21
g22
(g26
S'\x00\x00\x00\x00\x00\x003@'
p698
tp699
Rp700
sg32
I6
sg33
I1
sg34
I512
sg35
F0.8
sg36
F0.15
sg37
I1024
sg38
F0.125
sg39
g22
(g26
S'333333\xb3?'
p701
tp702
Rp703
sg43
F0.25
sg44
I2
sg45
F0.2
sg46
F0.1
sg47
F0.6
sg48
I6
sg49
I12
sg50
g22
(g26
S'333333\xc3\xbf'
p704
tp705
Rp706
sg54
I1
sg55
I1
sg56
g57
sg58
I10
sg59
F0.1225
sg60
I1
sg61
I6
sg62
g22
(g26
S'\x00\x00\x00\x00\x00 l@'
p707
tp708
Rp709
sg66
I1
sg67
F0.2
sg68
g69
sg72
I15
sa(dp710
g4
I20
sg5
F0.3
sg6
F0.2
sg7
F0.05
sg8
F0.4
sg9
I8
sg10
I8
sg11
F0.99
sg12
F0.4
sg13
I64
sg14
F0.15
sg15
I0
sg16
I2
sg17
F1.2
sg18
F0.125
sg19
F0.9
sg20
I1
sg21
g22
(g26
S'\x00\x00\x00\x00\x00\x00\x00\x00'
p711
tp712
Rp713
sg32
I6
sg33
I0
sg34
I512
sg35
F0.8
sg36
F0.15
sg37
I1024
sg38
F0.125
sg39
g22
(g26
S'\x9a\x99\x99\x99\x99\x99\xa9\xbf'
p714
tp715
Rp716
sg43
F0.25
sg44
I2
sg45
F0.2
sg46
F0.1
sg47
F0.6
sg48
I6
sg49
I12
sg50
g22
(g26
S'\x9a\x99\x99\x99\x99\x99\xb9?'
p717
tp718
Rp719
sg54
I1
sg55
I1
sg56
g57
sg58
I10
sg59
F0.1225
sg60
I1
sg61
I6
sg62
g22
(g26
S'\x00\x00\x00\x00\x00\x00\xf0\xbf'
p720
tp721
Rp722
sg66
I1
sg67
F0.2
sg68
g69
sg72
I15
sa(dp723
g4
I20
sg5
F0.3
sg6
F0.2
sg7
F0.05
sg8
F0.4
sg9
I8
sg10
I8
sg11
F0.99
sg12
F0.4
sg13
I64
sg14
F0.15
sg15
I0
sg16
I2
sg17
F1.2
sg18
F0.125
sg19
F0.9
sg20
I1
sg21
g22
(g26
S'\x00\x00\x00\x00\x00\x00\xf0?'
p724
tp725
Rp726
sg32
I6
sg33
I1
sg34
I512
sg35
F0.8
sg36
F0.15
sg37
I1024
sg38
F0.125
sg39
g22
(g26
S'\x9a\x99\x99\x99\x99\x99\xb9?'
p727
tp728
Rp729
sg43
F0.25
sg44
I2
sg45
F0.2
sg46
F0.1
sg47
F0.6
sg48
I6
sg49
I12
sg50
g22
(g26
S'333333\xc3\xbf'
p730
tp731
Rp732
sg54
I1
sg55
I1
sg56
g57
sg58
I10
sg59
F0.1225
sg60
I1
sg61
I6
sg62
g22
(g26
S'\x00\x00\x00\x00\x00\x00\xf0\xbf'
p733
tp734
Rp735
sg66
I1
sg67
F0.2
sg68
g69
sg72
I15
sa(dp736
g4
I20
sg5
F0.3
sg6
F0.2
sg7
F0.05
sg8
F0.4
sg9
I8
sg10
I8
sg11
F0.99
sg12
F0.4
sg13
I64
sg14
F0.15
sg15
I0
sg16
I2
sg17
F1.2
sg18
F0.125
sg19
F0.9
sg20
I1
sg21
g22
(g26
S'\x00\x00\x00\x00\x00\x00\x00@'
p737
tp738
Rp739
sg32
I6
sg33
I-1
sg34
I512
sg35
F0.8
sg36
F0.15
sg37
I1024
sg38
F0.125
sg39
g22
(g26
S'333333\xb3?'
p740
tp741
Rp742
sg43
F0.25
sg44
I2
sg45
F0.2
sg46
F0.1
sg47
F0.6
sg48
I6
sg49
I12
sg50
g22
(g26
S'333333\xb3\xbf'
p743
tp744
Rp745
sg54
I1
sg55
I1
sg56
g57
sg58
I10
sg59
F0.1225
sg60
I1
sg61
I6
sg62
g22
(g26
S'\x00\x00\x00\x00\x00\x00\xf0\xbf'
p746
tp747
Rp748
sg66
I1
sg67
F0.2
sg68
g69
sg72
I15
sa(dp749
g4
I20
sg5
F0.3
sg6
F0.2
sg7
F0.05
sg8
F0.4
sg9
I8
sg10
I8
sg11
F0.99
sg12
F0.4
sg13
I64
sg14
F0.15
sg15
I0
sg16
I2
sg17
F1.2
sg18
F0.125
sg19
F0.9
sg20
I1
sg21
g22
(g26
S'\x00\x00\x00\x00\x00\x00\x08@'
p750
tp751
Rp752
sg32
I6
sg33
I1
sg34
I512
sg35
F0.8
sg36
F0.15
sg37
I1024
sg38
F0.125
sg39
g22
(g26
S'333333\xc3\xbf'
p753
tp754
Rp755
sg43
F0.25
sg44
I2
sg45
F0.2
sg46
F0.1
sg47
F0.6
sg48
I6
sg49
I12
sg50
g22
(g26
S'333333\xb3\xbf'
p756
tp757
Rp758
sg54
I1
sg55
I1
sg56
g57
sg58
I10
sg59
F0.1225
sg60
I1
sg61
I6
sg62
g22
(g26
S'\x00\x00\x00\x00\x00\x00\xf0\xbf'
p759
tp760
Rp761
sg66
I1
sg67
F0.2
sg68
g69
sg72
I15
sa(dp762
g4
I20
sg5
F0.3
sg6
F0.2
sg7
F0.05
sg8
F0.4
sg9
I8
sg10
I8
sg11
F0.99
sg12
F0.4
sg13
I64
sg14
F0.15
sg15
I0
sg16
I2
sg17
F1.2
sg18
F0.125
sg19
F0.9
sg20
I1
sg21
g22
(g26
S'\x00\x00\x00\x00\x00\x00\x10@'
p763
tp764
Rp765
sg32
I6
sg33
I1
sg34
I512
sg35
F0.8
sg36
F0.15
sg37
I1024
sg38
F0.125
sg39
g22
(g26
S'333333\xc3\xbf'
p766
tp767
Rp768
sg43
F0.25
sg44
I2
sg45
F0.2
sg46
F0.1
sg47
F0.6
sg48
I6
sg49
I12
sg50
g22
(g26
S'\x99\x99\x99\x99\x99\x99\x99?'
p769
tp770
Rp771
sg54
I1
sg55
I1
sg56
g57
sg58
I10
sg59
F0.1225
sg60
I1
sg61
I6
sg62
g22
(g26
S'\x00\x00\x00\x00\x00\x00\xf0\xbf'
p772
tp773
Rp774
sg66
I1
sg67
F0.2
sg68
g69
sg72
I15
sa(dp775
g4
I20
sg5
F0.3
sg6
F0.2
sg7
F0.05
sg8
F0.4
sg9
I8
sg10
I8
sg11
F0.99
sg12
F0.4
sg13
I64
sg14
F0.15
sg15
I0
sg16
I2
sg17
F1.2
sg18
F0.125
sg19
F0.9
sg20
I1
sg21
g22
(g26
S'\x00\x00\x00\x00\x00\x00\x14@'
p776
tp777
Rp778
sg32
I6
sg33
I1
sg34
I512
sg35
F0.8
sg36
F0.15
sg37
I1024
sg38
F0.125
sg39
g22
(g26
S'\x00\x00\x00\x00\x00\x00\xc0\xbf'
p779
tp780
Rp781
sg43
F0.25
sg44
I2
sg45
F0.2
sg46
F0.1
sg47
F0.6
sg48
I6
sg49
I12
sg50
g22
(g26
S'333333\xc3\xbf'
p782
tp783
Rp784
sg54
I1
sg55
I1
sg56
g57
sg58
I10
sg59
F0.1225
sg60
I1
sg61
I6
sg62
g22
(g26
S'\x00\x00\x00\x00\x00\x00\xf0\xbf'
p785
tp786
Rp787
sg66
I1
sg67
F0.2
sg68
g69
sg72
I15
sa(dp788
g4
I20
sg5
F0.3
sg6
F0.2
sg7
F0.05
sg8
F0.4
sg9
I8
sg10
I8
sg11
F0.99
sg12
F0.4
sg13
I64
sg14
F0.15
sg15
I0
sg16
I2
sg17
F1.2
sg18
F0.125
sg19
F0.9
sg20
I1
sg21
g22
(g26
S'\x00\x00\x00\x00\x00\x00\x18@'
p789
tp790
Rp791
sg32
I6
sg33
I1
sg34
I512
sg35
F0.8
sg36
F0.15
sg37
I1024
sg38
F0.125
sg39
g22
(g26
S'\x00\x00\x00\x00\x00\x00\xc0\xbf'
p792
tp793
Rp794
sg43
F0.25
sg44
I2
sg45
F0.2
sg46
F0.1
sg47
F0.6
sg48
I6
sg49
I12
sg50
g22
(g26
S'333333\xb3\xbf'
p795
tp796
Rp797
sg54
I1
sg55
I1
sg56
g57
sg58
I10
sg59
F0.1225
sg60
I1
sg61
I6
sg62
g22
(g26
S'\x00\x00\x00\x00\x00\x00\xf0\xbf'
p798
tp799
Rp800
sg66
I1
sg67
F0.2
sg68
g69
sg72
I15
sa(dp801
g4
I20
sg5
F0.3
sg6
F0.2
sg7
F0.05
sg8
F0.4
sg9
I8
sg10
I8
sg11
F0.99
sg12
F0.4
sg13
I64
sg14
F0.15
sg15
I0
sg16
I2
sg17
F1.2
sg18
F0.125
sg19
F0.9
sg20
I1
sg21
g22
(g26
S'\x00\x00\x00\x00\x00\x00\x1c@'
p802
tp803
Rp804
sg32
I6
sg33
I0
sg34
I512
sg35
F0.8
sg36
F0.15
sg37
I1024
sg38
F0.125
sg39
g22
(g26
S'\x9a\x99\x99\x99\x99\x99\xb9\xbf'
p805
tp806
Rp807
sg43
F0.25
sg44
I2
sg45
F0.2
sg46
F0.1
sg47
F0.6
sg48
I6
sg49
I12
sg50
g22
(g26
S'\x99\x99\x99\x99\x99\x99\x99\xbf'
p808
tp809
Rp810
sg54
I1
sg55
I1
sg56
g57
sg58
I10
sg59
F0.1225
sg60
I1
sg61
I6
sg62
g22
(g26
S'\x00\x00\x00\x00\x00\x00\xf0\xbf'
p811
tp812
Rp813
sg66
I1
sg67
F0.2
sg68
g69
sg72
I15
sa(dp814
g4
I20
sg5
F0.3
sg6
F0.2
sg7
F0.05
sg8
F0.4
sg9
I8
sg10
I8
sg11
F0.99
sg12
F0.4
sg13
I64
sg14
F0.15
sg15
I0
sg16
I2
sg17
F1.2
sg18
F0.125
sg19
F0.9
sg20
I1
sg21
g22
(g26
S'\x00\x00\x00\x00\x00\x00 @'
p815
tp816
Rp817
sg32
I6
sg33
I0
sg34
I512
sg35
F0.8
sg36
F0.15
sg37
I1024
sg38
F0.125
sg39
g22
(g26
S'333333\xc3\xbf'
p818
tp819
Rp820
sg43
F0.25
sg44
I2
sg45
F0.2
sg46
F0.1
sg47
F0.6
sg48
I6
sg49
I12
sg50
g22
(g26
S'\x9a\x99\x99\x99\x99\x99\xa9?'
p821
tp822
Rp823
sg54
I1
sg55
I1
sg56
g57
sg58
I10
sg59
F0.1225
sg60
I1
sg61
I6
sg62
g22
(g26
S'\x00\x00\x00\x00\x00\x00\xf0\xbf'
p824
tp825
Rp826
sg66
I1
sg67
F0.2
sg68
g69
sg72
I15
sa(dp827
g4
I20
sg5
F0.3
sg6
F0.2
sg7
F0.05
sg8
F0.4
sg9
I8
sg10
I8
sg11
F0.99
sg12
F0.4
sg13
I64
sg14
F0.15
sg15
I0
sg16
I2
sg17
F1.2
sg18
F0.125
sg19
F0.9
sg20
I1
sg21
g22
(g26
S'\x00\x00\x00\x00\x00\x00"@'
p828
tp829
Rp830
sg32
I6
sg33
I0
sg34
I512
sg35
F0.8
sg36
F0.15
sg37
I1024
sg38
F0.125
sg39
g22
(g26
S'\x9a\x99\x99\x99\x99\x99\xb9?'
p831
tp832
Rp833
sg43
F0.25
sg44
I2
sg45
F0.2
sg46
F0.1
sg47
F0.6
sg48
I6
sg49
I12
sg50
g22
(g26
S'\x00\x00\x00\x00\x00\x00\xc0?'
p834
tp835
Rp836
sg54
I1
sg55
I1
sg56
g57
sg58
I10
sg59
F0.1225
sg60
I1
sg61
I6
sg62
g22
(g26
S'\x00\x00\x00\x00\x00\x00\xf0\xbf'
p837
tp838
Rp839
sg66
I1
sg67
F0.2
sg68
g69
sg72
I15
sa(dp840
g4
I20
sg5
F0.3
sg6
F0.2
sg7
F0.05
sg8
F0.4
sg9
I8
sg10
I8
sg11
F0.99
sg12
F0.4
sg13
I64
sg14
F0.15
sg15
I0
sg16
I2
sg17
F1.2
sg18
F0.125
sg19
F0.9
sg20
I1
sg21
g22
(g26
S'\x00\x00\x00\x00\x00\x00\x00\x00'
p841
tp842
Rp843
sg32
I6
sg33
I1
sg34
I512
sg35
F0.8
sg36
F0.15
sg37
I1024
sg38
F0.125
sg39
g22
(g26
S'333333\xc3\xbf'
p844
tp845
Rp846
sg43
F0.25
sg44
I2
sg45
F0.2
sg46
F0.1
sg47
F0.6
sg48
I6
sg49
I12
sg50
g22
(g26
S'\x00\x00\x00\x00\x00\x00\xc0\xbf'
p847
tp848
Rp849
sg54
I1
sg55
I1
sg56
g57
sg58
I10
sg59
F0.1225
sg60
I1
sg61
I6
sg62
g22
(g26
S'\x00\x00\x00\x00\x00\x80V@'
p850
tp851
Rp852
sg66
I1
sg67
F0.2
sg68
g69
sg72
I15
sa(dp853
g4
I20
sg5
F0.3
sg6
F0.2
sg7
F0.05
sg8
F0.4
sg9
I8
sg10
I8
sg11
F0.99
sg12
F0.4
sg13
I64
sg14
F0.15
sg15
I0
sg16
I2
sg17
F1.2
sg18
F0.125
sg19
F0.9
sg20
I1
sg21
g22
(g26
S'\x00\x00\x00\x00\x00\x00\xf0?'
p854
tp855
Rp856
sg32
I6
sg33
I1
sg34
I512
sg35
F0.8
sg36
F0.15
sg37
I1024
sg38
F0.125
sg39
g22
(g26
S'\x9a\x99\x99\x99\x99\x99\xb9\xbf'
p857
tp858
Rp859
sg43
F0.25
sg44
I2
sg45
F0.2
sg46
F0.1
sg47
F0.6
sg48
I6
sg49
I12
sg50
g22
(g26
S'333333\xc3\xbf'
p860
tp861
Rp862
sg54
I1
sg55
I1
sg56
g57
sg58
I10
sg59
F0.1225
sg60
I1
sg61
I6
sg62
g22
(g26
S'\x00\x00\x00\x00\x00\x80V@'
p863
tp864
Rp865
sg66
I1
sg67
F0.2
sg68
g69
sg72
I15
sa(dp866
g4
I20
sg5
F0.3
sg6
F0.2
sg7
F0.05
sg8
F0.4
sg9
I8
sg10
I8
sg11
F0.99
sg12
F0.4
sg13
I64
sg14
F0.15
sg15
I0
sg16
I2
sg17
F1.2
sg18
F0.125
sg19
F0.9
sg20
I1
sg21
g22
(g26
S'\x00\x00\x00\x00\x00\x00\x00@'
p867
tp868
Rp869
sg32
I6
sg33
I0
sg34
I512
sg35
F0.8
sg36
F0.15
sg37
I1024
sg38
F0.125
sg39
g22
(g26
S'\x00\x00\x00\x00\x00\x00\xc0?'
p870
tp871
Rp872
sg43
F0.25
sg44
I2
sg45
F0.2
sg46
F0.1
sg47
F0.6
sg48
I6
sg49
I12
sg50
g22
(g26
S'\x99\x99\x99\x99\x99\x99\x99?'
p873
tp874
Rp875
sg54
I1
sg55
I1
sg56
g57
sg58
I10
sg59
F0.1225
sg60
I1
sg61
I6
sg62
g22
(g26
S'\x00\x00\x00\x00\x00\x80V@'
p876
tp877
Rp878
sg66
I1
sg67
F0.2
sg68
g69
sg72
I15
sa(dp879
g4
I20
sg5
F0.3
sg6
F0.2
sg7
F0.05
sg8
F0.4
sg9
I8
sg10
I8
sg11
F0.99
sg12
F0.4
sg13
I64
sg14
F0.15
sg15
I0
sg16
I2
sg17
F1.2
sg18
F0.125
sg19
F0.9
sg20
I1
sg21
g22
(g26
S'\x00\x00\x00\x00\x00\x00\x08@'
p880
tp881
Rp882
sg32
I6
sg33
I1
sg34
I512
sg35
F0.8
sg36
F0.15
sg37
I1024
sg38
F0.125
sg39
g22
(g26
S'\x9a\x99\x99\x99\x99\x99\xa9?'
p883
tp884
Rp885
sg43
F0.25
sg44
I2
sg45
F0.2
sg46
F0.1
sg47
F0.6
sg48
I6
sg49
I12
sg50
g22
(g26
S'333333\xb3\xbf'
p886
tp887
Rp888
sg54
I1
sg55
I1
sg56
g57
sg58
I10
sg59
F0.1225
sg60
I1
sg61
I6
sg62
g22
(g26
S'\x00\x00\x00\x00\x00\x80V@'
p889
tp890
Rp891
sg66
I1
sg67
F0.2
sg68
g69
sg72
I15
sa(dp892
g4
I20
sg5
F0.3
sg6
F0.2
sg7
F0.05
sg8
F0.4
sg9
I8
sg10
I8
sg11
F0.99
sg12
F0.4
sg13
I64
sg14
F0.15
sg15
I0
sg16
I2
sg17
F1.2
sg18
F0.125
sg19
F0.9
sg20
I1
sg21
g22
(g26
S'\x00\x00\x00\x00\x00\x00\x10@'
p893
tp894
Rp895
sg32
I6
sg33
I0
sg34
I512
sg35
F0.8
sg36
F0.15
sg37
I1024
sg38
F0.125
sg39
g22
(g26
S'\x99\x99\x99\x99\x99\x99\x99?'
p896
tp897
Rp898
sg43
F0.25
sg44
I2
sg45
F0.2
sg46
F0.1
sg47
F0.6
sg48
I6
sg49
I12
sg50
g22
(g26
S'\x99\x99\x99\x99\x99\x99\x99?'
p899
tp900
Rp901
sg54
I1
sg55
I1
sg56
g57
sg58
I10
sg59
F0.1225
sg60
I1
sg61
I6
sg62
g22
(g26
S'\x00\x00\x00\x00\x00\x80V@'
p902
tp903
Rp904
sg66
I1
sg67
F0.2
sg68
g69
sg72
I15
sa(dp905
g4
I20
sg5
F0.3
sg6
F0.2
sg7
F0.05
sg8
F0.4
sg9
I8
sg10
I8
sg11
F0.99
sg12
F0.4
sg13
I64
sg14
F0.15
sg15
I0
sg16
I2
sg17
F1.2
sg18
F0.125
sg19
F0.9
sg20
I1
sg21
g22
(g26
S'\x00\x00\x00\x00\x00\x00\x14@'
p906
tp907
Rp908
sg32
I6
sg33
I1
sg34
I512
sg35
F0.8
sg36
F0.15
sg37
I1024
sg38
F0.125
sg39
g22
(g26
S'333333\xb3\xbf'
p909
tp910
Rp911
sg43
F0.25
sg44
I2
sg45
F0.2
sg46
F0.1
sg47
F0.6
sg48
I6
sg49
I12
sg50
g22
(g26
S'333333\xb3\xbf'
p912
tp913
Rp914
sg54
I1
sg55
I1
sg56
g57
sg58
I10
sg59
F0.1225
sg60
I1
sg61
I6
sg62
g22
(g26
S'\x00\x00\x00\x00\x00\x80V@'
p915
tp916
Rp917
sg66
I1
sg67
F0.2
sg68
g69
sg72
I15
sa(dp918
g4
I20
sg5
F0.3
sg6
F0.2
sg7
F0.05
sg8
F0.4
sg9
I8
sg10
I8
sg11
F0.99
sg12
F0.4
sg13
I64
sg14
F0.15
sg15
I0
sg16
I2
sg17
F1.2
sg18
F0.125
sg19
F0.9
sg20
I1
sg21
g22
(g26
S'\x00\x00\x00\x00\x00\x00\x18@'
p919
tp920
Rp921
sg32
I6
sg33
I0
sg34
I512
sg35
F0.8
sg36
F0.15
sg37
I1024
sg38
F0.125
sg39
g22
(g26
S'\x00\x00\x00\x00\x00\x00\xc0\xbf'
p922
tp923
Rp924
sg43
F0.25
sg44
I2
sg45
F0.2
sg46
F0.1
sg47
F0.6
sg48
I6
sg49
I12
sg50
g22
(g26
S'333333\xb3?'
p925
tp926
Rp927
sg54
I1
sg55
I1
sg56
g57
sg58
I10
sg59
F0.1225
sg60
I1
sg61
I6
sg62
g22
(g26
S'\x00\x00\x00\x00\x00\x80V@'
p928
tp929
Rp930
sg66
I1
sg67
F0.2
sg68
g69
sg72
I15
sa(dp931
g4
I20
sg5
F0.3
sg6
F0.2
sg7
F0.05
sg8
F0.4
sg9
I8
sg10
I8
sg11
F0.99
sg12
F0.4
sg13
I64
sg14
F0.15
sg15
I0
sg16
I2
sg17
F1.2
sg18
F0.125
sg19
F0.9
sg20
I1
sg21
g22
(g26
S'\x00\x00\x00\x00\x00\x00\x1c@'
p932
tp933
Rp934
sg32
I6
sg33
I0
sg34
I512
sg35
F0.8
sg36
F0.15
sg37
I1024
sg38
F0.125
sg39
g22
(g26
S'\x99\x99\x99\x99\x99\x99\x99?'
p935
tp936
Rp937
sg43
F0.25
sg44
I2
sg45
F0.2
sg46
F0.1
sg47
F0.6
sg48
I6
sg49
I12
sg50
g22
(g26
S'333333\xb3?'
p938
tp939
Rp940
sg54
I1
sg55
I1
sg56
g57
sg58
I10
sg59
F0.1225
sg60
I1
sg61
I6
sg62
g22
(g26
S'\x00\x00\x00\x00\x00\x80V@'
p941
tp942
Rp943
sg66
I1
sg67
F0.2
sg68
g69
sg72
I15
sa(dp944
g4
I20
sg5
F0.3
sg6
F0.2
sg7
F0.05
sg8
F0.4
sg9
I8
sg10
I8
sg11
F0.99
sg12
F0.4
sg13
I64
sg14
F0.15
sg15
I0
sg16
I2
sg17
F1.2
sg18
F0.125
sg19
F0.9
sg20
I1
sg21
g22
(g26
S'\x00\x00\x00\x00\x00\x00 @'
p945
tp946
Rp947
sg32
I6
sg33
I1
sg34
I512
sg35
F0.8
sg36
F0.15
sg37
I1024
sg38
F0.125
sg39
g22
(g26
S'333333\xc3\xbf'
p948
tp949
Rp950
sg43
F0.25
sg44
I2
sg45
F0.2
sg46
F0.1
sg47
F0.6
sg48
I6
sg49
I12
sg50
g22
(g26
S'\x00\x00\x00\x00\x00\x00\xc0\xbf'
p951
tp952
Rp953
sg54
I1
sg55
I1
sg56
g57
sg58
I10
sg59
F0.1225
sg60
I1
sg61
I6
sg62
g22
(g26
S'\x00\x00\x00\x00\x00\x80V@'
p954
tp955
Rp956
sg66
I1
sg67
F0.2
sg68
g69
sg72
I15
sa(dp957
g4
I20
sg5
F0.3
sg6
F0.2
sg7
F0.05
sg8
F0.4
sg9
I8
sg10
I8
sg11
F0.99
sg12
F0.4
sg13
I64
sg14
F0.15
sg15
I0
sg16
I2
sg17
F1.2
sg18
F0.125
sg19
F0.9
sg20
I1
sg21
g22
(g26
S'\x00\x00\x00\x00\x00\x00"@'
p958
tp959
Rp960
sg32
I6
sg33
I1
sg34
I512
sg35
F0.8
sg36
F0.15
sg37
I1024
sg38
F0.125
sg39
g22
(g26
S'333333\xc3\xbf'
p961
tp962
Rp963
sg43
F0.25
sg44
I2
sg45
F0.2
sg46
F0.1
sg47
F0.6
sg48
I6
sg49
I12
sg50
g22
(g26
S'333333\xb3\xbf'
p964
tp965
Rp966
sg54
I1
sg55
I1
sg56
g57
sg58
I10
sg59
F0.1225
sg60
I1
sg61
I6
sg62
g22
(g26
S'\x00\x00\x00\x00\x00\x80V@'
p967
tp968
Rp969
sg66
I1
sg67
F0.2
sg68
g69
sg72
I15
sa(dp970
g4
I20
sg5
F0.3
sg6
F0.2
sg7
F0.05
sg8
F0.4
sg9
I8
sg10
I8
sg11
F0.99
sg12
F0.4
sg13
I64
sg14
F0.15
sg15
I0
sg16
I2
sg17
F1.2
sg18
F0.125
sg19
F0.9
sg20
I1
sg21
g22
(g26
S'\x00\x00\x00\x00\x00\x00$@'
p971
tp972
Rp973
sg32
I6
sg33
I1
sg34
I512
sg35
F0.8
sg36
F0.15
sg37
I1024
sg38
F0.125
sg39
g22
(g26
S'333333\xb3\xbf'
p974
tp975
Rp976
sg43
F0.25
sg44
I2
sg45
F0.2
sg46
F0.1
sg47
F0.6
sg48
I6
sg49
I12
sg50
g22
(g26
S'333333\xc3\xbf'
p977
tp978
Rp979
sg54
I1
sg55
I1
sg56
g57
sg58
I10
sg59
F0.1225
sg60
I1
sg61
I6
sg62
g22
(g26
S'\x00\x00\x00\x00\x00\x80V@'
p980
tp981
Rp982
sg66
I1
sg67
F0.2
sg68
g69
sg72
I15
sa(dp983
g4
I20
sg5
F0.3
sg6
F0.2
sg7
F0.05
sg8
F0.4
sg9
I8
sg10
I8
sg11
F0.99
sg12
F0.4
sg13
I64
sg14
F0.15
sg15
I0
sg16
I2
sg17
F1.2
sg18
F0.125
sg19
F0.9
sg20
I1
sg21
g22
(g26
S'\x00\x00\x00\x00\x00\x00&@'
p984
tp985
Rp986
sg32
I6
sg33
I1
sg34
I512
sg35
F0.8
sg36
F0.15
sg37
I1024
sg38
F0.125
sg39
g22
(g26
S'\x9a\x99\x99\x99\x99\x99\xa9?'
p987
tp988
Rp989
sg43
F0.25
sg44
I2
sg45
F0.2
sg46
F0.1
sg47
F0.6
sg48
I6
sg49
I12
sg50
g22
(g26
S'\x9a\x99\x99\x99\x99\x99\xb9\xbf'
p990
tp991
Rp992
sg54
I1
sg55
I1
sg56
g57
sg58
I10
sg59
F0.1225
sg60
I1
sg61
I6
sg62
g22
(g26
S'\x00\x00\x00\x00\x00\x80V@'
p993
tp994
Rp995
sg66
I1
sg67
F0.2
sg68
g69
sg72
I15
sa(dp996
g4
I20
sg5
F0.3
sg6
F0.2
sg7
F0.05
sg8
F0.4
sg9
I8
sg10
I8
sg11
F0.99
sg12
F0.4
sg13
I64
sg14
F0.15
sg15
I0
sg16
I2
sg17
F1.2
sg18
F0.125
sg19
F0.9
sg20
I1
sg21
g22
(g26
S'\x00\x00\x00\x00\x00\x00(@'
p997
tp998
Rp999
sg32
I6
sg33
I0
sg34
I512
sg35
F0.8
sg36
F0.15
sg37
I1024
sg38
F0.125
sg39
g22
(g26
S'\x9a\x99\x99\x99\x99\x99\xa9?'
p1000
tp1001
Rp1002
sg43
F0.25
sg44
I2
sg45
F0.2
sg46
F0.1
sg47
F0.6
sg48
I6
sg49
I12
sg50
g22
(g26
S'333333\xb3?'
p1003
tp1004
Rp1005
sg54
I1
sg55
I1
sg56
g57
sg58
I10
sg59
F0.1225
sg60
I1
sg61
I6
sg62
g22
(g26
S'\x00\x00\x00\x00\x00\x80V@'
p1006
tp1007
Rp1008
sg66
I1
sg67
F0.2
sg68
g69
sg72
I15
sa(dp1009
g4
I20
sg5
F0.3
sg6
F0.2
sg7
F0.05
sg8
F0.4
sg9
I8
sg10
I8
sg11
F0.99
sg12
F0.4
sg13
I64
sg14
F0.15
sg15
I0
sg16
I2
sg17
F1.2
sg18
F0.125
sg19
F0.9
sg20
I1
sg21
g22
(g26
S'\x00\x00\x00\x00\x00\x00*@'
p1010
tp1011
Rp1012
sg32
I6
sg33
I0
sg34
I512
sg35
F0.8
sg36
F0.15
sg37
I1024
sg38
F0.125
sg39
g22
(g26
S'\x00\x00\x00\x00\x00\x00\xc0?'
p1013
tp1014
Rp1015
sg43
F0.25
sg44
I2
sg45
F0.2
sg46
F0.1
sg47
F0.6
sg48
I6
sg49
I12
sg50
g22
(g26
S'333333\xb3?'
p1016
tp1017
Rp1018
sg54
I1
sg55
I1
sg56
g57
sg58
I10
sg59
F0.1225
sg60
I1
sg61
I6
sg62
g22
(g26
S'\x00\x00\x00\x00\x00\x80V@'
p1019
tp1020
Rp1021
sg66
I1
sg67
F0.2
sg68
g69
sg72
I15
sa(dp1022
g4
I20
sg5
F0.3
sg6
F0.2
sg7
F0.05
sg8
F0.4
sg9
I8
sg10
I8
sg11
F0.99
sg12
F0.4
sg13
I64
sg14
F0.15
sg15
I0
sg16
I2
sg17
F1.2
sg18
F0.125
sg19
F0.9
sg20
I1
sg21
g22
(g26
S'\x00\x00\x00\x00\x00\x00,@'
p1023
tp1024
Rp1025
sg32
I6
sg33
I0
sg34
I512
sg35
F0.8
sg36
F0.15
sg37
I1024
sg38
F0.125
sg39
g22
(g26
S'\x9a\x99\x99\x99\x99\x99\xa9\xbf'
p1026
tp1027
Rp1028
sg43
F0.25
sg44
I2
sg45
F0.2
sg46
F0.1
sg47
F0.6
sg48
I6
sg49
I12
sg50
g22
(g26
S'\x00\x00\x00\x00\x00\x00\xc0?'
p1029
tp1030
Rp1031
sg54
I1
sg55
I1
sg56
g57
sg58
I10
sg59
F0.1225
sg60
I1
sg61
I6
sg62
g22
(g26
S'\x00\x00\x00\x00\x00\x80V@'
p1032
tp1033
Rp1034
sg66
I1
sg67
F0.2
sg68
g69
sg72
I15
sa(dp1035
g4
I20
sg5
F0.3
sg6
F0.2
sg7
F0.05
sg8
F0.4
sg9
I8
sg10
I8
sg11
F0.99
sg12
F0.4
sg13
I64
sg14
F0.15
sg15
I0
sg16
I2
sg17
F1.2
sg18
F0.125
sg19
F0.9
sg20
I1
sg21
g22
(g26
S'\x00\x00\x00\x00\x00\x00.@'
p1036
tp1037
Rp1038
sg32
I6
sg33
I1
sg34
I512
sg35
F0.8
sg36
F0.15
sg37
I1024
sg38
F0.125
sg39
g22
(g26
S'333333\xb3\xbf'
p1039
tp1040
Rp1041
sg43
F0.25
sg44
I2
sg45
F0.2
sg46
F0.1
sg47
F0.6
sg48
I6
sg49
I12
sg50
g22
(g26
S'\x00\x00\x00\x00\x00\x00\xc0\xbf'
p1042
tp1043
Rp1044
sg54
I1
sg55
I1
sg56
g57
sg58
I10
sg59
F0.1225
sg60
I1
sg61
I6
sg62
g22
(g26
S'\x00\x00\x00\x00\x00\x80V@'
p1045
tp1046
Rp1047
sg66
I1
sg67
F0.2
sg68
g69
sg72
I15
sa(dp1048
g4
I20
sg5
F0.3
sg6
F0.2
sg7
F0.05
sg8
F0.4
sg9
I8
sg10
I8
sg11
F0.99
sg12
F0.4
sg13
I64
sg14
F0.15
sg15
I0
sg16
I2
sg17
F1.2
sg18
F0.125
sg19
F0.9
sg20
I1
sg21
g22
(g26
S'\x00\x00\x00\x00\x00\x000@'
p1049
tp1050
Rp1051
sg32
I6
sg33
I0
sg34
I512
sg35
F0.8
sg36
F0.15
sg37
I1024
sg38
F0.125
sg39
g22
(g26
S'\x9a\x99\x99\x99\x99\x99\xa9\xbf'
p1052
tp1053
Rp1054
sg43
F0.25
sg44
I2
sg45
F0.2
sg46
F0.1
sg47
F0.6
sg48
I6
sg49
I12
sg50
g22
(g26
S'\x9a\x99\x99\x99\x99\x99\xa9?'
p1055
tp1056
Rp1057
sg54
I1
sg55
I1
sg56
g57
sg58
I10
sg59
F0.1225
sg60
I1
sg61
I6
sg62
g22
(g26
S'\x00\x00\x00\x00\x00\x80V@'
p1058
tp1059
Rp1060
sg66
I1
sg67
F0.2
sg68
g69
sg72
I15
sa(dp1061
g4
I20
sg5
F0.3
sg6
F0.2
sg7
F0.05
sg8
F0.4
sg9
I8
sg10
I8
sg11
F0.99
sg12
F0.4
sg13
I64
sg14
F0.15
sg15
I0
sg16
I2
sg17
F1.2
sg18
F0.125
sg19
F0.9
sg20
I1
sg21
g22
(g26
S'\x00\x00\x00\x00\x00\x001@'
p1062
tp1063
Rp1064
sg32
I6
sg33
I1
sg34
I512
sg35
F0.8
sg36
F0.15
sg37
I1024
sg38
F0.125
sg39
g22
(g26
S'\x9a\x99\x99\x99\x99\x99\xb9\xbf'
p1065
tp1066
Rp1067
sg43
F0.25
sg44
I2
sg45
F0.2
sg46
F0.1
sg47
F0.6
sg48
I6
sg49
I12
sg50
g22
(g26
S'\x00\x00\x00\x00\x00\x00\xc0\xbf'
p1068
tp1069
Rp1070
sg54
I1
sg55
I1
sg56
g57
sg58
I10
sg59
F0.1225
sg60
I1
sg61
I6
sg62
g22
(g26
S'\x00\x00\x00\x00\x00\x80V@'
p1071
tp1072
Rp1073
sg66
I1
sg67
F0.2
sg68
g69
sg72
I15
sa(dp1074
g4
I20
sg5
F0.3
sg6
F0.2
sg7
F0.05
sg8
F0.4
sg9
I8
sg10
I8
sg11
F0.99
sg12
F0.4
sg13
I64
sg14
F0.15
sg15
I0
sg16
I2
sg17
F1.2
sg18
F0.125
sg19
F0.9
sg20
I1
sg21
g22
(g26
S'\x00\x00\x00\x00\x00\x002@'
p1075
tp1076
Rp1077
sg32
I6
sg33
I-1
sg34
I512
sg35
F0.8
sg36
F0.15
sg37
I1024
sg38
F0.125
sg39
g22
(g26
S'333333\xb3\xbf'
p1078
tp1079
Rp1080
sg43
F0.25
sg44
I2
sg45
F0.2
sg46
F0.1
sg47
F0.6
sg48
I6
sg49
I12
sg50
g22
(g26
S'333333\xb3\xbf'
p1081
tp1082
Rp1083
sg54
I1
sg55
I1
sg56
g57
sg58
I10
sg59
F0.1225
sg60
I1
sg61
I6
sg62
g22
(g26
S'\x00\x00\x00\x00\x00\x80V@'
p1084
tp1085
Rp1086
sg66
I1
sg67
F0.2
sg68
g69
sg72
I15
sa(dp1087
g4
I20
sg5
F0.3
sg6
F0.2
sg7
F0.05
sg8
F0.4
sg9
I8
sg10
I8
sg11
F0.99
sg12
F0.4
sg13
I64
sg14
F0.15
sg15
I0
sg16
I2
sg17
F1.2
sg18
F0.125
sg19
F0.9
sg20
I1
sg21
g22
(g26
S'\x00\x00\x00\x00\x00\x003@'
p1088
tp1089
Rp1090
sg32
I6
sg33
I1
sg34
I512
sg35
F0.8
sg36
F0.15
sg37
I1024
sg38
F0.125
sg39
g22
(g26
S'\x00\x00\x00\x00\x00\x00\xc0\xbf'
p1091
tp1092
Rp1093
sg43
F0.25
sg44
I2
sg45
F0.2
sg46
F0.1
sg47
F0.6
sg48
I6
sg49
I12
sg50
g22
(g26
S'\x9a\x99\x99\x99\x99\x99\xa9\xbf'
p1094
tp1095
Rp1096
sg54
I1
sg55
I1
sg56
g57
sg58
I10
sg59
F0.1225
sg60
I1
sg61
I6
sg62
g22
(g26
S'\x00\x00\x00\x00\x00\x80V@'
p1097
tp1098
Rp1099
sg66
I1
sg67
F0.2
sg68
g69
sg72
I15
sa(dp1100
g4
I20
sg5
F0.3
sg6
F0.2
sg7
F0.05
sg8
F0.4
sg9
I8
sg10
I8
sg11
F0.99
sg12
F0.4
sg13
I64
sg14
F0.15
sg15
I0
sg16
I2
sg17
F1.2
sg18
F0.125
sg19
F0.9
sg20
I1
sg21
g22
(g26
S'\x00\x00\x00\x00\x00\x00\x00\x00'
p1101
tp1102
Rp1103
sg32
I6
sg33
I0
sg34
I512
sg35
F0.8
sg36
F0.15
sg37
I1024
sg38
F0.125
sg39
g22
(g26
S'333333\xb3?'
p1104
tp1105
Rp1106
sg43
F0.25
sg44
I2
sg45
F0.2
sg46
F0.1
sg47
F0.6
sg48
I6
sg49
I12
sg50
g22
(g26
S'\x9a\x99\x99\x99\x99\x99\xa9?'
p1107
tp1108
Rp1109
sg54
I1
sg55
I1
sg56
g57
sg58
I10
sg59
F0.1225
sg60
I1
sg61
I6
sg62
g22
(g26
S'\x00\x00\x00\x00\x00\xe0`@'
p1110
tp1111
Rp1112
sg66
I1
sg67
F0.2
sg68
g69
sg72
I15
sa(dp1113
g4
I20
sg5
F0.3
sg6
F0.2
sg7
F0.05
sg8
F0.4
sg9
I8
sg10
I8
sg11
F0.99
sg12
F0.4
sg13
I64
sg14
F0.15
sg15
I0
sg16
I2
sg17
F1.2
sg18
F0.125
sg19
F0.9
sg20
I1
sg21
g22
(g26
S'\x00\x00\x00\x00\x00\x00\xf0?'
p1114
tp1115
Rp1116
sg32
I6
sg33
I1
sg34
I512
sg35
F0.8
sg36
F0.15
sg37
I1024
sg38
F0.125
sg39
g22
(g26
S'\x00\x00\x00\x00\x00\x00\xc0\xbf'
p1117
tp1118
Rp1119
sg43
F0.25
sg44
I2
sg45
F0.2
sg46
F0.1
sg47
F0.6
sg48
I6
sg49
I12
sg50
g22
(g26
S'333333\xb3\xbf'
p1120
tp1121
Rp1122
sg54
I1
sg55
I1
sg56
g57
sg58
I10
sg59
F0.1225
sg60
I1
sg61
I6
sg62
g22
(g26
S'\x00\x00\x00\x00\x00\xe0`@'
p1123
tp1124
Rp1125
sg66
I1
sg67
F0.2
sg68
g69
sg72
I15
sa(dp1126
g4
I20
sg5
F0.3
sg6
F0.2
sg7
F0.05
sg8
F0.4
sg9
I8
sg10
I8
sg11
F0.99
sg12
F0.4
sg13
I64
sg14
F0.15
sg15
I0
sg16
I2
sg17
F1.2
sg18
F0.125
sg19
F0.9
sg20
I1
sg21
g22
(g26
S'\x00\x00\x00\x00\x00\x00\x00@'
p1127
tp1128
Rp1129
sg32
I6
sg33
I0
sg34
I512
sg35
F0.8
sg36
F0.15
sg37
I1024
sg38
F0.125
sg39
g22
(g26
S'\x9a\x99\x99\x99\x99\x99\xb9\xbf'
p1130
tp1131
Rp1132
sg43
F0.25
sg44
I2
sg45
F0.2
sg46
F0.1
sg47
F0.6
sg48
I6
sg49
I12
sg50
g22
(g26
S'\x99\x99\x99\x99\x99\x99\x99?'
p1133
tp1134
Rp1135
sg54
I1
sg55
I1
sg56
g57
sg58
I10
sg59
F0.1225
sg60
I1
sg61
I6
sg62
g22
(g26
S'\x00\x00\x00\x00\x00\xe0`@'
p1136
tp1137
Rp1138
sg66
I1
sg67
F0.2
sg68
g69
sg72
I15
sa(dp1139
g4
I20
sg5
F0.3
sg6
F0.2
sg7
F0.05
sg8
F0.4
sg9
I8
sg10
I8
sg11
F0.99
sg12
F0.4
sg13
I64
sg14
F0.15
sg15
I0
sg16
I2
sg17
F1.2
sg18
F0.125
sg19
F0.9
sg20
I1
sg21
g22
(g26
S'\x00\x00\x00\x00\x00\x00\x08@'
p1140
tp1141
Rp1142
sg32
I6
sg33
I1
sg34
I512
sg35
F0.8
sg36
F0.15
sg37
I1024
sg38
F0.125
sg39
g22
(g26
S'\x9a\x99\x99\x99\x99\x99\xa9\xbf'
p1143
tp1144
Rp1145
sg43
F0.25
sg44
I2
sg45
F0.2
sg46
F0.1
sg47
F0.6
sg48
I6
sg49
I12
sg50
g22
(g26
S'\x9a\x99\x99\x99\x99\x99\xb9\xbf'
p1146
tp1147
Rp1148
sg54
I1
sg55
I1
sg56
g57
sg58
I10
sg59
F0.1225
sg60
I1
sg61
I6
sg62
g22
(g26
S'\x00\x00\x00\x00\x00\xe0`@'
p1149
tp1150
Rp1151
sg66
I1
sg67
F0.2
sg68
g69
sg72
I15
sa(dp1152
g4
I20
sg5
F0.3
sg6
F0.2
sg7
F0.05
sg8
F0.4
sg9
I8
sg10
I8
sg11
F0.99
sg12
F0.4
sg13
I64
sg14
F0.15
sg15
I0
sg16
I2
sg17
F1.2
sg18
F0.125
sg19
F0.9
sg20
I1
sg21
g22
(g26
S'\x00\x00\x00\x00\x00\x00\x10@'
p1153
tp1154
Rp1155
sg32
I6
sg33
I0
sg34
I512
sg35
F0.8
sg36
F0.15
sg37
I1024
sg38
F0.125
sg39
g22
(g26
S'\x9a\x99\x99\x99\x99\x99\xa9?'
p1156
tp1157
Rp1158
sg43
F0.25
sg44
I2
sg45
F0.2
sg46
F0.1
sg47
F0.6
sg48
I6
sg49
I12
sg50
g22
(g26
S'\x99\x99\x99\x99\x99\x99\x99?'
p1159
tp1160
Rp1161
sg54
I1
sg55
I1
sg56
g57
sg58
I10
sg59
F0.1225
sg60
I1
sg61
I6
sg62
g22
(g26
S'\x00\x00\x00\x00\x00\xe0`@'
p1162
tp1163
Rp1164
sg66
I1
sg67
F0.2
sg68
g69
sg72
I15
sa(dp1165
g4
I20
sg5
F0.3
sg6
F0.2
sg7
F0.05
sg8
F0.4
sg9
I8
sg10
I8
sg11
F0.99
sg12
F0.4
sg13
I64
sg14
F0.15
sg15
I0
sg16
I2
sg17
F1.2
sg18
F0.125
sg19
F0.9
sg20
I1
sg21
g22
(g26
S'\x00\x00\x00\x00\x00\x00\x14@'
p1166
tp1167
Rp1168
sg32
I6
sg33
I0
sg34
I512
sg35
F0.8
sg36
F0.15
sg37
I1024
sg38
F0.125
sg39
g22
(g26
S'\x9a\x99\x99\x99\x99\x99\xa9\xbf'
p1169
tp1170
Rp1171
sg43
F0.25
sg44
I2
sg45
F0.2
sg46
F0.1
sg47
F0.6
sg48
I6
sg49
I12
sg50
g22
(g26
S'\x9a\x99\x99\x99\x99\x99\xb9?'
p1172
tp1173
Rp1174
sg54
I1
sg55
I1
sg56
g57
sg58
I10
sg59
F0.1225
sg60
I1
sg61
I6
sg62
g22
(g26
S'\x00\x00\x00\x00\x00\xe0`@'
p1175
tp1176
Rp1177
sg66
I1
sg67
F0.2
sg68
g69
sg72
I15
sa(dp1178
g4
I20
sg5
F0.3
sg6
F0.2
sg7
F0.05
sg8
F0.4
sg9
I8
sg10
I8
sg11
F0.99
sg12
F0.4
sg13
I64
sg14
F0.15
sg15
I0
sg16
I2
sg17
F1.2
sg18
F0.125
sg19
F0.9
sg20
I1
sg21
g22
(g26
S'\x00\x00\x00\x00\x00\x00\x18@'
p1179
tp1180
Rp1181
sg32
I6
sg33
I0
sg34
I512
sg35
F0.8
sg36
F0.15
sg37
I1024
sg38
F0.125
sg39
g22
(g26
S'\x9a\x99\x99\x99\x99\x99\xb9?'
p1182
tp1183
Rp1184
sg43
F0.25
sg44
I2
sg45
F0.2
sg46
F0.1
sg47
F0.6
sg48
I6
sg49
I12
sg50
g22
(g26
S'333333\xb3?'
p1185
tp1186
Rp1187
sg54
I1
sg55
I1
sg56
g57
sg58
I10
sg59
F0.1225
sg60
I1
sg61
I6
sg62
g22
(g26
S'\x00\x00\x00\x00\x00\xe0`@'
p1188
tp1189
Rp1190
sg66
I1
sg67
F0.2
sg68
g69
sg72
I15
sa(dp1191
g4
I20
sg5
F0.3
sg6
F0.2
sg7
F0.05
sg8
F0.4
sg9
I8
sg10
I8
sg11
F0.99
sg12
F0.4
sg13
I64
sg14
F0.15
sg15
I0
sg16
I2
sg17
F1.2
sg18
F0.125
sg19
F0.9
sg20
I1
sg21
g22
(g26
S'\x00\x00\x00\x00\x00\x00\x1c@'
p1192
tp1193
Rp1194
sg32
I6
sg33
I0
sg34
I512
sg35
F0.8
sg36
F0.15
sg37
I1024
sg38
F0.125
sg39
g22
(g26
S'\x00\x00\x00\x00\x00\x00\xc0\xbf'
p1195
tp1196
Rp1197
sg43
F0.25
sg44
I2
sg45
F0.2
sg46
F0.1
sg47
F0.6
sg48
I6
sg49
I12
sg50
g22
(g26
S'333333\xc3?'
p1198
tp1199
Rp1200
sg54
I1
sg55
I1
sg56
g57
sg58
I10
sg59
F0.1225
sg60
I1
sg61
I6
sg62
g22
(g26
S'\x00\x00\x00\x00\x00\xe0`@'
p1201
tp1202
Rp1203
sg66
I1
sg67
F0.2
sg68
g69
sg72
I15
sa(dp1204
g4
I20
sg5
F0.3
sg6
F0.2
sg7
F0.05
sg8
F0.4
sg9
I8
sg10
I8
sg11
F0.99
sg12
F0.4
sg13
I64
sg14
F0.15
sg15
I0
sg16
I2
sg17
F1.2
sg18
F0.125
sg19
F0.9
sg20
I1
sg21
g22
(g26
S'\x00\x00\x00\x00\x00\x00 @'
p1205
tp1206
Rp1207
sg32
I6
sg33
I0
sg34
I512
sg35
F0.8
sg36
F0.15
sg37
I1024
sg38
F0.125
sg39
g22
(g26
S'\x9a\x99\x99\x99\x99\x99\xb9\xbf'
p1208
tp1209
Rp1210
sg43
F0.25
sg44
I2
sg45
F0.2
sg46
F0.1
sg47
F0.6
sg48
I6
sg49
I12
sg50
g22
(g26
S'333333\xb3?'
p1211
tp1212
Rp1213
sg54
I1
sg55
I1
sg56
g57
sg58
I10
sg59
F0.1225
sg60
I1
sg61
I6
sg62
g22
(g26
S'\x00\x00\x00\x00\x00\xe0`@'
p1214
tp1215
Rp1216
sg66
I1
sg67
F0.2
sg68
g69
sg72
I15
sa(dp1217
g4
I20
sg5
F0.3
sg6
F0.2
sg7
F0.05
sg8
F0.4
sg9
I8
sg10
I8
sg11
F0.99
sg12
F0.4
sg13
I64
sg14
F0.15
sg15
I0
sg16
I2
sg17
F1.2
sg18
F0.125
sg19
F0.9
sg20
I1
sg21
g22
(g26
S'\x00\x00\x00\x00\x00\x00"@'
p1218
tp1219
Rp1220
sg32
I6
sg33
I0
sg34
I512
sg35
F0.8
sg36
F0.15
sg37
I1024
sg38
F0.125
sg39
g22
(g26
S'\x9a\x99\x99\x99\x99\x99\xb9\xbf'
p1221
tp1222
Rp1223
sg43
F0.25
sg44
I2
sg45
F0.2
sg46
F0.1
sg47
F0.6
sg48
I6
sg49
I12
sg50
g22
(g26
S'333333\xb3?'
p1224
tp1225
Rp1226
sg54
I1
sg55
I1
sg56
g57
sg58
I10
sg59
F0.1225
sg60
I1
sg61
I6
sg62
g22
(g26
S'\x00\x00\x00\x00\x00\xe0`@'
p1227
tp1228
Rp1229
sg66
I1
sg67
F0.2
sg68
g69
sg72
I15
sa(dp1230
g4
I20
sg5
F0.3
sg6
F0.2
sg7
F0.05
sg8
F0.4
sg9
I8
sg10
I8
sg11
F0.99
sg12
F0.4
sg13
I64
sg14
F0.15
sg15
I0
sg16
I2
sg17
F1.2
sg18
F0.125
sg19
F0.9
sg20
I1
sg21
g22
(g26
S'\x00\x00\x00\x00\x00\x00$@'
p1231
tp1232
Rp1233
sg32
I6
sg33
I1
sg34
I512
sg35
F0.8
sg36
F0.15
sg37
I1024
sg38
F0.125
sg39
g22
(g26
S'333333\xb3?'
p1234
tp1235
Rp1236
sg43
F0.25
sg44
I2
sg45
F0.2
sg46
F0.1
sg47
F0.6
sg48
I6
sg49
I12
sg50
g22
(g26
S'\x99\x99\x99\x99\x99\x99\x99\xbf'
p1237
tp1238
Rp1239
sg54
I1
sg55
I1
sg56
g57
sg58
I10
sg59
F0.1225
sg60
I1
sg61
I6
sg62
g22
(g26
S'\x00\x00\x00\x00\x00\xe0`@'
p1240
tp1241
Rp1242
sg66
I1
sg67
F0.2
sg68
g69
sg72
I15
sa(dp1243
g4
I20
sg5
F0.3
sg6
F0.2
sg7
F0.05
sg8
F0.4
sg9
I8
sg10
I8
sg11
F0.99
sg12
F0.4
sg13
I64
sg14
F0.15
sg15
I0
sg16
I2
sg17
F1.2
sg18
F0.125
sg19
F0.9
sg20
I1
sg21
g22
(g26
S'\x00\x00\x00\x00\x00\x00&@'
p1244
tp1245
Rp1246
sg32
I6
sg33
I1
sg34
I512
sg35
F0.8
sg36
F0.15
sg37
I1024
sg38
F0.125
sg39
g22
(g26
S'\x9a\x99\x99\x99\x99\x99\xa9\xbf'
p1247
tp1248
Rp1249
sg43
F0.25
sg44
I2
sg45
F0.2
sg46
F0.1
sg47
F0.6
sg48
I6
sg49
I12
sg50
g22
(g26
S'\x9a\x99\x99\x99\x99\x99\xb9\xbf'
p1250
tp1251
Rp1252
sg54
I1
sg55
I1
sg56
g57
sg58
I10
sg59
F0.1225
sg60
I1
sg61
I6
sg62
g22
(g26
S'\x00\x00\x00\x00\x00\xe0`@'
p1253
tp1254
Rp1255
sg66
I1
sg67
F0.2
sg68
g69
sg72
I15
sa(dp1256
g4
I20
sg5
F0.3
sg6
F0.2
sg7
F0.05
sg8
F0.4
sg9
I8
sg10
I8
sg11
F0.99
sg12
F0.4
sg13
I64
sg14
F0.15
sg15
I0
sg16
I2
sg17
F1.2
sg18
F0.125
sg19
F0.9
sg20
I1
sg21
g22
(g26
S'\x00\x00\x00\x00\x00\x00(@'
p1257
tp1258
Rp1259
sg32
I6
sg33
I0
sg34
I512
sg35
F0.8
sg36
F0.15
sg37
I1024
sg38
F0.125
sg39
g22
(g26
S'333333\xc3\xbf'
p1260
tp1261
Rp1262
sg43
F0.25
sg44
I2
sg45
F0.2
sg46
F0.1
sg47
F0.6
sg48
I6
sg49
I12
sg50
g22
(g26
S'333333\xc3?'
p1263
tp1264
Rp1265
sg54
I1
sg55
I1
sg56
g57
sg58
I10
sg59
F0.1225
sg60
I1
sg61
I6
sg62
g22
(g26
S'\x00\x00\x00\x00\x00\xe0`@'
p1266
tp1267
Rp1268
sg66
I1
sg67
F0.2
sg68
g69
sg72
I15
sa(dp1269
g4
I20
sg5
F0.3
sg6
F0.2
sg7
F0.05
sg8
F0.4
sg9
I8
sg10
I8
sg11
F0.99
sg12
F0.4
sg13
I64
sg14
F0.15
sg15
I0
sg16
I2
sg17
F1.2
sg18
F0.125
sg19
F0.9
sg20
I1
sg21
g22
(g26
S'\x00\x00\x00\x00\x00\x00*@'
p1270
tp1271
Rp1272
sg32
I6
sg33
I0
sg34
I512
sg35
F0.8
sg36
F0.15
sg37
I1024
sg38
F0.125
sg39
g22
(g26
S'333333\xc3\xbf'
p1273
tp1274
Rp1275
sg43
F0.25
sg44
I2
sg45
F0.2
sg46
F0.1
sg47
F0.6
sg48
I6
sg49
I12
sg50
g22
(g26
S'333333\xb3?'
p1276
tp1277
Rp1278
sg54
I1
sg55
I1
sg56
g57
sg58
I10
sg59
F0.1225
sg60
I1
sg61
I6
sg62
g22
(g26
S'\x00\x00\x00\x00\x00\xe0`@'
p1279
tp1280
Rp1281
sg66
I1
sg67
F0.2
sg68
g69
sg72
I15
sa(dp1282
g4
I20
sg5
F0.3
sg6
F0.2
sg7
F0.05
sg8
F0.4
sg9
I8
sg10
I8
sg11
F0.99
sg12
F0.4
sg13
I64
sg14
F0.15
sg15
I0
sg16
I2
sg17
F1.2
sg18
F0.125
sg19
F0.9
sg20
I1
sg21
g22
(g26
S'\x00\x00\x00\x00\x00\x00,@'
p1283
tp1284
Rp1285
sg32
I6
sg33
I0
sg34
I512
sg35
F0.8
sg36
F0.15
sg37
I1024
sg38
F0.125
sg39
g22
(g26
S'\x9a\x99\x99\x99\x99\x99\xa9?'
p1286
tp1287
Rp1288
sg43
F0.25
sg44
I2
sg45
F0.2
sg46
F0.1
sg47
F0.6
sg48
I6
sg49
I12
sg50
g22
(g26
S'\x9a\x99\x99\x99\x99\x99\xa9?'
p1289
tp1290
Rp1291
sg54
I1
sg55
I1
sg56
g57
sg58
I10
sg59
F0.1225
sg60
I1
sg61
I6
sg62
g22
(g26
S'\x00\x00\x00\x00\x00\xe0`@'
p1292
tp1293
Rp1294
sg66
I1
sg67
F0.2
sg68
g69
sg72
I15
sa(dp1295
g4
I20
sg5
F0.3
sg6
F0.2
sg7
F0.05
sg8
F0.4
sg9
I8
sg10
I8
sg11
F0.99
sg12
F0.4
sg13
I64
sg14
F0.15
sg15
I0
sg16
I2
sg17
F1.2
sg18
F0.125
sg19
F0.9
sg20
I1
sg21
g22
(g26
S'\x00\x00\x00\x00\x00\x00.@'
p1296
tp1297
Rp1298
sg32
I6
sg33
I0
sg34
I512
sg35
F0.8
sg36
F0.15
sg37
I1024
sg38
F0.125
sg39
g22
(g26
S'\x00\x00\x00\x00\x00\x00\xc0?'
p1299
tp1300
Rp1301
sg43
F0.25
sg44
I2
sg45
F0.2
sg46
F0.1
sg47
F0.6
sg48
I6
sg49
I12
sg50
g22
(g26
S'\x00\x00\x00\x00\x00\x00\xc0?'
p1302
tp1303
Rp1304
sg54
I1
sg55
I1
sg56
g57
sg58
I10
sg59
F0.1225
sg60
I1
sg61
I6
sg62
g22
(g26
S'\x00\x00\x00\x00\x00\xe0`@'
p1305
tp1306
Rp1307
sg66
I1
sg67
F0.2
sg68
g69
sg72
I15
sa(dp1308
g4
I20
sg5
F0.3
sg6
F0.2
sg7
F0.05
sg8
F0.4
sg9
I8
sg10
I8
sg11
F0.99
sg12
F0.4
sg13
I64
sg14
F0.15
sg15
I0
sg16
I2
sg17
F1.2
sg18
F0.125
sg19
F0.9
sg20
I1
sg21
g22
(g26
S'\x00\x00\x00\x00\x00\x000@'
p1309
tp1310
Rp1311
sg32
I6
sg33
I-1
sg34
I512
sg35
F0.8
sg36
F0.15
sg37
I1024
sg38
F0.125
sg39
g22
(g26
S'\x99\x99\x99\x99\x99\x99\x99?'
p1312
tp1313
Rp1314
sg43
F0.25
sg44
I2
sg45
F0.2
sg46
F0.1
sg47
F0.6
sg48
I6
sg49
I12
sg50
g22
(g26
S'\x9a\x99\x99\x99\x99\x99\xb9\xbf'
p1315
tp1316
Rp1317
sg54
I1
sg55
I1
sg56
g57
sg58
I10
sg59
F0.1225
sg60
I1
sg61
I6
sg62
g22
(g26
S'\x00\x00\x00\x00\x00\xe0`@'
p1318
tp1319
Rp1320
sg66
I1
sg67
F0.2
sg68
g69
sg72
I15
sa(dp1321
g4
I20
sg5
F0.3
sg6
F0.2
sg7
F0.05
sg8
F0.4
sg9
I8
sg10
I8
sg11
F0.99
sg12
F0.4
sg13
I64
sg14
F0.15
sg15
I0
sg16
I2
sg17
F1.2
sg18
F0.125
sg19
F0.9
sg20
I1
sg21
g22
(g26
S'\x00\x00\x00\x00\x00\x001@'
p1322
tp1323
Rp1324
sg32
I6
sg33
I1
sg34
I512
sg35
F0.8
sg36
F0.15
sg37
I1024
sg38
F0.125
sg39
g22
(g26
S'\x99\x99\x99\x99\x99\x99\x99?'
p1325
tp1326
Rp1327
sg43
F0.25
sg44
I2
sg45
F0.2
sg46
F0.1
sg47
F0.6
sg48
I6
sg49
I12
sg50
g22
(g26
S'\x99\x99\x99\x99\x99\x99\x99\xbf'
p1328
tp1329
Rp1330
sg54
I1
sg55
I1
sg56
g57
sg58
I10
sg59
F0.1225
sg60
I1
sg61
I6
sg62
g22
(g26
S'\x00\x00\x00\x00\x00\xe0`@'
p1331
tp1332
Rp1333
sg66
I1
sg67
F0.2
sg68
g69
sg72
I15
sa(dp1334
g4
I20
sg5
F0.3
sg6
F0.2
sg7
F0.05
sg8
F0.4
sg9
I8
sg10
I8
sg11
F0.99
sg12
F0.4
sg13
I64
sg14
F0.15
sg15
I0
sg16
I2
sg17
F1.2
sg18
F0.125
sg19
F0.9
sg20
I1
sg21
g22
(g26
S'\x00\x00\x00\x00\x00\x002@'
p1335
tp1336
Rp1337
sg32
I6
sg33
I1
sg34
I512
sg35
F0.8
sg36
F0.15
sg37
I1024
sg38
F0.125
sg39
g22
(g26
S'\x9a\x99\x99\x99\x99\x99\xb9?'
p1338
tp1339
Rp1340
sg43
F0.25
sg44
I2
sg45
F0.2
sg46
F0.1
sg47
F0.6
sg48
I6
sg49
I12
sg50
g22
(g26
S'\x9a\x99\x99\x99\x99\x99\xa9?'
p1341
tp1342
Rp1343
sg54
I1
sg55
I1
sg56
g57
sg58
I10
sg59
F0.1225
sg60
I1
sg61
I6
sg62
g22
(g26
S'\x00\x00\x00\x00\x00\xe0`@'
p1344
tp1345
Rp1346
sg66
I1
sg67
F0.2
sg68
g69
sg72
I15
sa(dp1347
g4
I20
sg5
F0.3
sg6
F0.2
sg7
F0.05
sg8
F0.4
sg9
I8
sg10
I8
sg11
F0.99
sg12
F0.4
sg13
I64
sg14
F0.15
sg15
I0
sg16
I2
sg17
F1.2
sg18
F0.125
sg19
F0.9
sg20
I1
sg21
g22
(g26
S'\x00\x00\x00\x00\x00\x003@'
p1348
tp1349
Rp1350
sg32
I6
sg33
I0
sg34
I512
sg35
F0.8
sg36
F0.15
sg37
I1024
sg38
F0.125
sg39
g22
(g26
S'\x99\x99\x99\x99\x99\x99\x99?'
p1351
tp1352
Rp1353
sg43
F0.25
sg44
I2
sg45
F0.2
sg46
F0.1
sg47
F0.6
sg48
I6
sg49
I12
sg50
g22
(g26
S'\x00\x00\x00\x00\x00\x00\xc0?'
p1354
tp1355
Rp1356
sg54
I1
sg55
I1
sg56
g57
sg58
I10
sg59
F0.1225
sg60
I1
sg61
I6
sg62
g22
(g26
S'\x00\x00\x00\x00\x00\xe0`@'
p1357
tp1358
Rp1359
sg66
I1
sg67
F0.2
sg68
g69
sg72
I15
sa(dp1360
g4
I20
sg5
F0.3
sg6
F0.2
sg7
F0.05
sg8
F0.4
sg9
I8
sg10
I8
sg11
F0.99
sg12
F0.4
sg13
I64
sg14
F0.15
sg15
I0
sg16
I2
sg17
F1.2
sg18
F0.125
sg19
F0.9
sg20
I1
sg21
g22
(g26
S'\x00\x00\x00\x00\x00\x00\x00\x00'
p1361
tp1362
Rp1363
sg32
I6
sg33
I1
sg34
I512
sg35
F0.8
sg36
F0.15
sg37
I1024
sg38
F0.125
sg39
g22
(g26
S'333333\xc3?'
p1364
tp1365
Rp1366
sg43
F0.25
sg44
I2
sg45
F0.2
sg46
F0.1
sg47
F0.6
sg48
I6
sg49
I12
sg50
g22
(g26
S'\x00\x00\x00\x00\x00\x00\xc0?'
p1367
tp1368
Rp1369
sg54
I1
sg55
I1
sg56
g57
sg58
I10
sg59
F0.1225
sg60
I1
sg61
I6
sg62
g22
(g26
S'\x00\x00\x00\x00\x00\x00\xf0\xbf'
p1370
tp1371
Rp1372
sg66
I1
sg67
F0.2
sg68
g69
sg72
I15
sa(dp1373
g4
I20
sg5
F0.3
sg6
F0.2
sg7
F0.05
sg8
F0.4
sg9
I8
sg10
I8
sg11
F0.99
sg12
F0.4
sg13
I64
sg14
F0.15
sg15
I0
sg16
I2
sg17
F1.2
sg18
F0.125
sg19
F0.9
sg20
I1
sg21
g22
(g26
S'\x00\x00\x00\x00\x00\x00\xf0?'
p1374
tp1375
Rp1376
sg32
I6
sg33
I1
sg34
I512
sg35
F0.8
sg36
F0.15
sg37
I1024
sg38
F0.125
sg39
g22
(g26
S'\x99\x99\x99\x99\x99\x99\x99\xbf'
p1377
tp1378
Rp1379
sg43
F0.25
sg44
I2
sg45
F0.2
sg46
F0.1
sg47
F0.6
sg48
I6
sg49
I12
sg50
g22
(g26
S'333333\xc3\xbf'
p1380
tp1381
Rp1382
sg54
I1
sg55
I1
sg56
g57
sg58
I10
sg59
F0.1225
sg60
I1
sg61
I6
sg62
g22
(g26
S'\x00\x00\x00\x00\x00\x00\xf0\xbf'
p1383
tp1384
Rp1385
sg66
I1
sg67
F0.2
sg68
g69
sg72
I15
sa(dp1386
g4
I20
sg5
F0.3
sg6
F0.2
sg7
F0.05
sg8
F0.4
sg9
I8
sg10
I8
sg11
F0.99
sg12
F0.4
sg13
I64
sg14
F0.15
sg15
I0
sg16
I2
sg17
F1.2
sg18
F0.125
sg19
F0.9
sg20
I1
sg21
g22
(g26
S'\x00\x00\x00\x00\x00\x00\x00@'
p1387
tp1388
Rp1389
sg32
I6
sg33
I0
sg34
I512
sg35
F0.8
sg36
F0.15
sg37
I1024
sg38
F0.125
sg39
g22
(g26
S'333333\xb3\xbf'
p1390
tp1391
Rp1392
sg43
F0.25
sg44
I2
sg45
F0.2
sg46
F0.1
sg47
F0.6
sg48
I6
sg49
I12
sg50
g22
(g26
S'\x99\x99\x99\x99\x99\x99\x99?'
p1393
tp1394
Rp1395
sg54
I1
sg55
I1
sg56
g57
sg58
I10
sg59
F0.1225
sg60
I1
sg61
I6
sg62
g22
(g26
S'\x00\x00\x00\x00\x00\x00\xf0\xbf'
p1396
tp1397
Rp1398
sg66
I1
sg67
F0.2
sg68
g69
sg72
I15
sa(dp1399
g4
I20
sg5
F0.3
sg6
F0.2
sg7
F0.05
sg8
F0.4
sg9
I8
sg10
I8
sg11
F0.99
sg12
F0.4
sg13
I64
sg14
F0.15
sg15
I0
sg16
I2
sg17
F1.2
sg18
F0.125
sg19
F0.9
sg20
I1
sg21
g22
(g26
S'\x00\x00\x00\x00\x00\x00\x08@'
p1400
tp1401
Rp1402
sg32
I6
sg33
I0
sg34
I512
sg35
F0.8
sg36
F0.15
sg37
I1024
sg38
F0.125
sg39
g22
(g26
S'\x99\x99\x99\x99\x99\x99\x99\xbf'
p1403
tp1404
Rp1405
sg43
F0.25
sg44
I2
sg45
F0.2
sg46
F0.1
sg47
F0.6
sg48
I6
sg49
I12
sg50
g22
(g26
S'\x00\x00\x00\x00\x00\x00\xc0?'
p1406
tp1407
Rp1408
sg54
I1
sg55
I1
sg56
g57
sg58
I10
sg59
F0.1225
sg60
I1
sg61
I6
sg62
g22
(g26
S'\x00\x00\x00\x00\x00\x00\xf0\xbf'
p1409
tp1410
Rp1411
sg66
I1
sg67
F0.2
sg68
g69
sg72
I15
sa(dp1412
g4
I20
sg5
F0.3
sg6
F0.2
sg7
F0.05
sg8
F0.4
sg9
I8
sg10
I8
sg11
F0.99
sg12
F0.4
sg13
I64
sg14
F0.15
sg15
I0
sg16
I2
sg17
F1.2
sg18
F0.125
sg19
F0.9
sg20
I1
sg21
g22
(g26
S'\x00\x00\x00\x00\x00\x00\x10@'
p1413
tp1414
Rp1415
sg32
I6
sg33
I1
sg34
I512
sg35
F0.8
sg36
F0.15
sg37
I1024
sg38
F0.125
sg39
g22
(g26
S'\x9a\x99\x99\x99\x99\x99\xb9\xbf'
p1416
tp1417
Rp1418
sg43
F0.25
sg44
I2
sg45
F0.2
sg46
F0.1
sg47
F0.6
sg48
I6
sg49
I12
sg50
g22
(g26
S'333333\xc3\xbf'
p1419
tp1420
Rp1421
sg54
I1
sg55
I1
sg56
g57
sg58
I10
sg59
F0.1225
sg60
I1
sg61
I6
sg62
g22
(g26
S'\x00\x00\x00\x00\x00\x00\xf0\xbf'
p1422
tp1423
Rp1424
sg66
I1
sg67
F0.2
sg68
g69
sg72
I15
sa(dp1425
g4
I20
sg5
F0.3
sg6
F0.2
sg7
F0.05
sg8
F0.4
sg9
I8
sg10
I8
sg11
F0.99
sg12
F0.4
sg13
I64
sg14
F0.15
sg15
I0
sg16
I2
sg17
F1.2
sg18
F0.125
sg19
F0.9
sg20
I1
sg21
g22
(g26
S'\x00\x00\x00\x00\x00\x00\x14@'
p1426
tp1427
Rp1428
sg32
I6
sg33
I0
sg34
I512
sg35
F0.8
sg36
F0.15
sg37
I1024
sg38
F0.125
sg39
g22
(g26
S'\x9a\x99\x99\x99\x99\x99\xb9\xbf'
p1429
tp1430
Rp1431
sg43
F0.25
sg44
I2
sg45
F0.2
sg46
F0.1
sg47
F0.6
sg48
I6
sg49
I12
sg50
g22
(g26
S'333333\xc3?'
p1432
tp1433
Rp1434
sg54
I1
sg55
I1
sg56
g57
sg58
I10
sg59
F0.1225
sg60
I1
sg61
I6
sg62
g22
(g26
S'\x00\x00\x00\x00\x00\x00\xf0\xbf'
p1435
tp1436
Rp1437
sg66
I1
sg67
F0.2
sg68
g69
sg72
I15
sa(dp1438
g4
I20
sg5
F0.3
sg6
F0.2
sg7
F0.05
sg8
F0.4
sg9
I8
sg10
I8
sg11
F0.99
sg12
F0.4
sg13
I64
sg14
F0.15
sg15
I0
sg16
I2
sg17
F1.2
sg18
F0.125
sg19
F0.9
sg20
I1
sg21
g22
(g26
S'\x00\x00\x00\x00\x00\x00\x18@'
p1439
tp1440
Rp1441
sg32
I6
sg33
I0
sg34
I512
sg35
F0.8
sg36
F0.15
sg37
I1024
sg38
F0.125
sg39
g22
(g26
S'\x99\x99\x99\x99\x99\x99\x99?'
p1442
tp1443
Rp1444
sg43
F0.25
sg44
I2
sg45
F0.2
sg46
F0.1
sg47
F0.6
sg48
I6
sg49
I12
sg50
g22
(g26
S'333333\xc3?'
p1445
tp1446
Rp1447
sg54
I1
sg55
I1
sg56
g57
sg58
I10
sg59
F0.1225
sg60
I1
sg61
I6
sg62
g22
(g26
S'\x00\x00\x00\x00\x00\x00\xf0\xbf'
p1448
tp1449
Rp1450
sg66
I1
sg67
F0.2
sg68
g69
sg72
I15
sa(dp1451
g4
I20
sg5
F0.3
sg6
F0.2
sg7
F0.05
sg8
F0.4
sg9
I8
sg10
I8
sg11
F0.99
sg12
F0.4
sg13
I64
sg14
F0.15
sg15
I0
sg16
I2
sg17
F1.2
sg18
F0.125
sg19
F0.9
sg20
I1
sg21
g22
(g26
S'\x00\x00\x00\x00\x00\x00\x1c@'
p1452
tp1453
Rp1454
sg32
I6
sg33
I0
sg34
I512
sg35
F0.8
sg36
F0.15
sg37
I1024
sg38
F0.125
sg39
g22
(g26
S'\x00\x00\x00\x00\x00\x00\xc0?'
p1455
tp1456
Rp1457
sg43
F0.25
sg44
I2
sg45
F0.2
sg46
F0.1
sg47
F0.6
sg48
I6
sg49
I12
sg50
g22
(g26
S'\x9a\x99\x99\x99\x99\x99\xa9\xbf'
p1458
tp1459
Rp1460
sg54
I1
sg55
I1
sg56
g57
sg58
I10
sg59
F0.1225
sg60
I1
sg61
I6
sg62
g22
(g26
S'\x00\x00\x00\x00\x00\x00\xf0\xbf'
p1461
tp1462
Rp1463
sg66
I1
sg67
F0.2
sg68
g69
sg72
I15
sa(dp1464
g4
I20
sg5
F0.3
sg6
F0.2
sg7
F0.05
sg8
F0.4
sg9
I8
sg10
I8
sg11
F0.99
sg12
F0.4
sg13
I64
sg14
F0.15
sg15
I0
sg16
I2
sg17
F1.2
sg18
F0.125
sg19
F0.9
sg20
I1
sg21
g22
(g26
S'\x00\x00\x00\x00\x00\x00 @'
p1465
tp1466
Rp1467
sg32
I6
sg33
I-1
sg34
I512
sg35
F0.8
sg36
F0.15
sg37
I1024
sg38
F0.125
sg39
g22
(g26
S'\x9a\x99\x99\x99\x99\x99\xa9\xbf'
p1468
tp1469
Rp1470
sg43
F0.25
sg44
I2
sg45
F0.2
sg46
F0.1
sg47
F0.6
sg48
I6
sg49
I12
sg50
g22
(g26
S'333333\xc3\xbf'
p1471
tp1472
Rp1473
sg54
I1
sg55
I1
sg56
g57
sg58
I10
sg59
F0.1225
sg60
I1
sg61
I6
sg62
g22
(g26
S'\x00\x00\x00\x00\x00\x00\xf0\xbf'
p1474
tp1475
Rp1476
sg66
I1
sg67
F0.2
sg68
g69
sg72
I15
sa(dp1477
g4
I20
sg5
F0.3
sg6
F0.2
sg7
F0.05
sg8
F0.4
sg9
I8
sg10
I8
sg11
F0.99
sg12
F0.4
sg13
I64
sg14
F0.15
sg15
I0
sg16
I2
sg17
F1.2
sg18
F0.125
sg19
F0.9
sg20
I1
sg21
g22
(g26
S'\x00\x00\x00\x00\x00\x00"@'
p1478
tp1479
Rp1480
sg32
I6
sg33
I1
sg34
I512
sg35
F0.8
sg36
F0.15
sg37
I1024
sg38
F0.125
sg39
g22
(g26
S'\x99\x99\x99\x99\x99\x99\x99?'
p1481
tp1482
Rp1483
sg43
F0.25
sg44
I2
sg45
F0.2
sg46
F0.1
sg47
F0.6
sg48
I6
sg49
I12
sg50
g22
(g26
S'\x99\x99\x99\x99\x99\x99\x99?'
p1484
tp1485
Rp1486
sg54
I1
sg55
I1
sg56
g57
sg58
I10
sg59
F0.1225
sg60
I1
sg61
I6
sg62
g22
(g26
S'\x00\x00\x00\x00\x00\x00\xf0\xbf'
p1487
tp1488
Rp1489
sg66
I1
sg67
F0.2
sg68
g69
sg72
I15
sa(dp1490
g4
I20
sg5
F0.3
sg6
F0.2
sg7
F0.05
sg8
F0.4
sg9
I8
sg10
I8
sg11
F0.99
sg12
F0.4
sg13
I64
sg14
F0.15
sg15
I0
sg16
I2
sg17
F1.2
sg18
F0.125
sg19
F0.9
sg20
I1
sg21
g22
(g26
S'\x00\x00\x00\x00\x00\x00\x00\x00'
p1491
tp1492
Rp1493
sg32
I6
sg33
I1
sg34
I512
sg35
F0.8
sg36
F0.15
sg37
I1024
sg38
F0.125
sg39
g22
(g26
S'333333\xb3\xbf'
p1494
tp1495
Rp1496
sg43
F0.25
sg44
I2
sg45
F0.2
sg46
F0.1
sg47
F0.6
sg48
I6
sg49
I12
sg50
g22
(g26
S'333333\xc3\xbf'
p1497
tp1498
Rp1499
sg54
I1
sg55
I1
sg56
g57
sg58
I10
sg59
F0.1225
sg60
I1
sg61
I6
sg62
g22
(g26
S'\x00\x00\x00\x00\x00\x80f@'
p1500
tp1501
Rp1502
sg66
I1
sg67
F0.2
sg68
g69
sg72
I15
sa(dp1503
g4
I20
sg5
F0.3
sg6
F0.2
sg7
F0.05
sg8
F0.4
sg9
I8
sg10
I8
sg11
F0.99
sg12
F0.4
sg13
I64
sg14
F0.15
sg15
I0
sg16
I2
sg17
F1.2
sg18
F0.125
sg19
F0.9
sg20
I1
sg21
g22
(g26
S'\x00\x00\x00\x00\x00\x00\xf0?'
p1504
tp1505
Rp1506
sg32
I6
sg33
I0
sg34
I512
sg35
F0.8
sg36
F0.15
sg37
I1024
sg38
F0.125
sg39
g22
(g26
S'\x9a\x99\x99\x99\x99\x99\xb9\xbf'
p1507
tp1508
Rp1509
sg43
F0.25
sg44
I2
sg45
F0.2
sg46
F0.1
sg47
F0.6
sg48
I6
sg49
I12
sg50
g22
(g26
S'333333\xc3?'
p1510
tp1511
Rp1512
sg54
I1
sg55
I1
sg56
g57
sg58
I10
sg59
F0.1225
sg60
I1
sg61
I6
sg62
g22
(g26
S'\x00\x00\x00\x00\x00\x80f@'
p1513
tp1514
Rp1515
sg66
I1
sg67
F0.2
sg68
g69
sg72
I15
sa(dp1516
g4
I20
sg5
F0.3
sg6
F0.2
sg7
F0.05
sg8
F0.4
sg9
I8
sg10
I8
sg11
F0.99
sg12
F0.4
sg13
I64
sg14
F0.15
sg15
I0
sg16
I2
sg17
F1.2
sg18
F0.125
sg19
F0.9
sg20
I1
sg21
g22
(g26
S'\x00\x00\x00\x00\x00\x00\x00@'
p1517
tp1518
Rp1519
sg32
I6
sg33
I1
sg34
I512
sg35
F0.8
sg36
F0.15
sg37
I1024
sg38
F0.125
sg39
g22
(g26
S'\x9a\x99\x99\x99\x99\x99\xa9?'
p1520
tp1521
Rp1522
sg43
F0.25
sg44
I2
sg45
F0.2
sg46
F0.1
sg47
F0.6
sg48
I6
sg49
I12
sg50
g22
(g26
S'333333\xc3\xbf'
p1523
tp1524
Rp1525
sg54
I1
sg55
I1
sg56
g57
sg58
I10
sg59
F0.1225
sg60
I1
sg61
I6
sg62
g22
(g26
S'\x00\x00\x00\x00\x00\x80f@'
p1526
tp1527
Rp1528
sg66
I1
sg67
F0.2
sg68
g69
sg72
I15
sa(dp1529
g4
I20
sg5
F0.3
sg6
F0.2
sg7
F0.05
sg8
F0.4
sg9
I8
sg10
I8
sg11
F0.99
sg12
F0.4
sg13
I64
sg14
F0.15
sg15
I0
sg16
I2
sg17
F1.2
sg18
F0.125
sg19
F0.9
sg20
I1
sg21
g22
(g26
S'\x00\x00\x00\x00\x00\x00\x08@'
p1530
tp1531
Rp1532
sg32
I6
sg33
I0
sg34
I512
sg35
F0.8
sg36
F0.15
sg37
I1024
sg38
F0.125
sg39
g22
(g26
S'\x00\x00\x00\x00\x00\x00\xc0?'
p1533
tp1534
Rp1535
sg43
F0.25
sg44
I2
sg45
F0.2
sg46
F0.1
sg47
F0.6
sg48
I6
sg49
I12
sg50
g22
(g26
S'333333\xb3?'
p1536
tp1537
Rp1538
sg54
I1
sg55
I1
sg56
g57
sg58
I10
sg59
F0.1225
sg60
I1
sg61
I6
sg62
g22
(g26
S'\x00\x00\x00\x00\x00\x80f@'
p1539
tp1540
Rp1541
sg66
I1
sg67
F0.2
sg68
g69
sg72
I15
sa(dp1542
g4
I20
sg5
F0.3
sg6
F0.2
sg7
F0.05
sg8
F0.4
sg9
I8
sg10
I8
sg11
F0.99
sg12
F0.4
sg13
I64
sg14
F0.15
sg15
I0
sg16
I2
sg17
F1.2
sg18
F0.125
sg19
F0.9
sg20
I1
sg21
g22
(g26
S'\x00\x00\x00\x00\x00\x00\x10@'
p1543
tp1544
Rp1545
sg32
I6
sg33
I0
sg34
I512
sg35
F0.8
sg36
F0.15
sg37
I1024
sg38
F0.125
sg39
g22
(g26
S'\x9a\x99\x99\x99\x99\x99\xa9\xbf'
p1546
tp1547
Rp1548
sg43
F0.25
sg44
I2
sg45
F0.2
sg46
F0.1
sg47
F0.6
sg48
I6
sg49
I12
sg50
g22
(g26
S'\x99\x99\x99\x99\x99\x99\x99?'
p1549
tp1550
Rp1551
sg54
I1
sg55
I1
sg56
g57
sg58
I10
sg59
F0.1225
sg60
I1
sg61
I6
sg62
g22
(g26
S'\x00\x00\x00\x00\x00\x80f@'
p1552
tp1553
Rp1554
sg66
I1
sg67
F0.2
sg68
g69
sg72
I15
sa(dp1555
g4
I20
sg5
F0.3
sg6
F0.2
sg7
F0.05
sg8
F0.4
sg9
I8
sg10
I8
sg11
F0.99
sg12
F0.4
sg13
I64
sg14
F0.15
sg15
I0
sg16
I2
sg17
F1.2
sg18
F0.125
sg19
F0.9
sg20
I1
sg21
g22
(g26
S'\x00\x00\x00\x00\x00\x00\x14@'
p1556
tp1557
Rp1558
sg32
I6
sg33
I1
sg34
I512
sg35
F0.8
sg36
F0.15
sg37
I1024
sg38
F0.125
sg39
g22
(g26
S'333333\xb3\xbf'
p1559
tp1560
Rp1561
sg43
F0.25
sg44
I2
sg45
F0.2
sg46
F0.1
sg47
F0.6
sg48
I6
sg49
I12
sg50
g22
(g26
S'\x9a\x99\x99\x99\x99\x99\xa9\xbf'
p1562
tp1563
Rp1564
sg54
I1
sg55
I1
sg56
g57
sg58
I10
sg59
F0.1225
sg60
I1
sg61
I6
sg62
g22
(g26
S'\x00\x00\x00\x00\x00\x80f@'
p1565
tp1566
Rp1567
sg66
I1
sg67
F0.2
sg68
g69
sg72
I15
sa(dp1568
g4
I20
sg5
F0.3
sg6
F0.2
sg7
F0.05
sg8
F0.4
sg9
I8
sg10
I8
sg11
F0.99
sg12
F0.4
sg13
I64
sg14
F0.15
sg15
I0
sg16
I2
sg17
F1.2
sg18
F0.125
sg19
F0.9
sg20
I1
sg21
g22
(g26
S'\x00\x00\x00\x00\x00\x00\x18@'
p1569
tp1570
Rp1571
sg32
I6
sg33
I1
sg34
I512
sg35
F0.8
sg36
F0.15
sg37
I1024
sg38
F0.125
sg39
g22
(g26
S'333333\xc3\xbf'
p1572
tp1573
Rp1574
sg43
F0.25
sg44
I2
sg45
F0.2
sg46
F0.1
sg47
F0.6
sg48
I6
sg49
I12
sg50
g22
(g26
S'\x00\x00\x00\x00\x00\x00\xc0\xbf'
p1575
tp1576
Rp1577
sg54
I1
sg55
I1
sg56
g57
sg58
I10
sg59
F0.1225
sg60
I1
sg61
I6
sg62
g22
(g26
S'\x00\x00\x00\x00\x00\x80f@'
p1578
tp1579
Rp1580
sg66
I1
sg67
F0.2
sg68
g69
sg72
I15
sa(dp1581
g4
I20
sg5
F0.3
sg6
F0.2
sg7
F0.05
sg8
F0.4
sg9
I8
sg10
I8
sg11
F0.99
sg12
F0.4
sg13
I64
sg14
F0.15
sg15
I0
sg16
I2
sg17
F1.2
sg18
F0.125
sg19
F0.9
sg20
I1
sg21
g22
(g26
S'\x00\x00\x00\x00\x00\x00\x1c@'
p1582
tp1583
Rp1584
sg32
I6
sg33
I1
sg34
I512
sg35
F0.8
sg36
F0.15
sg37
I1024
sg38
F0.125
sg39
g22
(g26
S'\x9a\x99\x99\x99\x99\x99\xa9\xbf'
p1585
tp1586
Rp1587
sg43
F0.25
sg44
I2
sg45
F0.2
sg46
F0.1
sg47
F0.6
sg48
I6
sg49
I12
sg50
g22
(g26
S'\x9a\x99\x99\x99\x99\x99\xb9\xbf'
p1588
tp1589
Rp1590
sg54
I1
sg55
I1
sg56
g57
sg58
I10
sg59
F0.1225
sg60
I1
sg61
I6
sg62
g22
(g26
S'\x00\x00\x00\x00\x00\x80f@'
p1591
tp1592
Rp1593
sg66
I1
sg67
F0.2
sg68
g69
sg72
I15
sa(dp1594
g4
I20
sg5
F0.3
sg6
F0.2
sg7
F0.05
sg8
F0.4
sg9
I8
sg10
I8
sg11
F0.99
sg12
F0.4
sg13
I64
sg14
F0.15
sg15
I0
sg16
I2
sg17
F1.2
sg18
F0.125
sg19
F0.9
sg20
I1
sg21
g22
(g26
S'\x00\x00\x00\x00\x00\x00 @'
p1595
tp1596
Rp1597
sg32
I6
sg33
I1
sg34
I512
sg35
F0.8
sg36
F0.15
sg37
I1024
sg38
F0.125
sg39
g22
(g26
S'\x00\x00\x00\x00\x00\x00\xc0\xbf'
p1598
tp1599
Rp1600
sg43
F0.25
sg44
I2
sg45
F0.2
sg46
F0.1
sg47
F0.6
sg48
I6
sg49
I12
sg50
g22
(g26
S'333333\xb3\xbf'
p1601
tp1602
Rp1603
sg54
I1
sg55
I1
sg56
g57
sg58
I10
sg59
F0.1225
sg60
I1
sg61
I6
sg62
g22
(g26
S'\x00\x00\x00\x00\x00\x80f@'
p1604
tp1605
Rp1606
sg66
I1
sg67
F0.2
sg68
g69
sg72
I15
sa(dp1607
g4
I20
sg5
F0.3
sg6
F0.2
sg7
F0.05
sg8
F0.4
sg9
I8
sg10
I8
sg11
F0.99
sg12
F0.4
sg13
I64
sg14
F0.15
sg15
I0
sg16
I2
sg17
F1.2
sg18
F0.125
sg19
F0.9
sg20
I1
sg21
g22
(g26
S'\x00\x00\x00\x00\x00\x00"@'
p1608
tp1609
Rp1610
sg32
I6
sg33
I1
sg34
I512
sg35
F0.8
sg36
F0.15
sg37
I1024
sg38
F0.125
sg39
g22
(g26
S'\x9a\x99\x99\x99\x99\x99\xb9?'
p1611
tp1612
Rp1613
sg43
F0.25
sg44
I2
sg45
F0.2
sg46
F0.1
sg47
F0.6
sg48
I6
sg49
I12
sg50
g22
(g26
S'\x9a\x99\x99\x99\x99\x99\xb9\xbf'
p1614
tp1615
Rp1616
sg54
I1
sg55
I1
sg56
g57
sg58
I10
sg59
F0.1225
sg60
I1
sg61
I6
sg62
g22
(g26
S'\x00\x00\x00\x00\x00\x80f@'
p1617
tp1618
Rp1619
sg66
I1
sg67
F0.2
sg68
g69
sg72
I15
sa(dp1620
g4
I20
sg5
F0.3
sg6
F0.2
sg7
F0.05
sg8
F0.4
sg9
I8
sg10
I8
sg11
F0.99
sg12
F0.4
sg13
I64
sg14
F0.15
sg15
I0
sg16
I2
sg17
F1.2
sg18
F0.125
sg19
F0.9
sg20
I1
sg21
g22
(g26
S'\x00\x00\x00\x00\x00\x00$@'
p1621
tp1622
Rp1623
sg32
I6
sg33
I0
sg34
I512
sg35
F0.8
sg36
F0.15
sg37
I1024
sg38
F0.125
sg39
g22
(g26
S'333333\xc3?'
p1624
tp1625
Rp1626
sg43
F0.25
sg44
I2
sg45
F0.2
sg46
F0.1
sg47
F0.6
sg48
I6
sg49
I12
sg50
g22
(g26
S'\x9a\x99\x99\x99\x99\x99\xa9?'
p1627
tp1628
Rp1629
sg54
I1
sg55
I1
sg56
g57
sg58
I10
sg59
F0.1225
sg60
I1
sg61
I6
sg62
g22
(g26
S'\x00\x00\x00\x00\x00\x80f@'
p1630
tp1631
Rp1632
sg66
I1
sg67
F0.2
sg68
g69
sg72
I15
sa(dp1633
g4
I20
sg5
F0.3
sg6
F0.2
sg7
F0.05
sg8
F0.4
sg9
I8
sg10
I8
sg11
F0.99
sg12
F0.4
sg13
I64
sg14
F0.15
sg15
I0
sg16
I2
sg17
F1.2
sg18
F0.125
sg19
F0.9
sg20
I1
sg21
g22
(g26
S'\x00\x00\x00\x00\x00\x00&@'
p1634
tp1635
Rp1636
sg32
I6
sg33
I1
sg34
I512
sg35
F0.8
sg36
F0.15
sg37
I1024
sg38
F0.125
sg39
g22
(g26
S'\x99\x99\x99\x99\x99\x99\x99?'
p1637
tp1638
Rp1639
sg43
F0.25
sg44
I2
sg45
F0.2
sg46
F0.1
sg47
F0.6
sg48
I6
sg49
I12
sg50
g22
(g26
S'\x9a\x99\x99\x99\x99\x99\xa9\xbf'
p1640
tp1641
Rp1642
sg54
I1
sg55
I1
sg56
g57
sg58
I10
sg59
F0.1225
sg60
I1
sg61
I6
sg62
g22
(g26
S'\x00\x00\x00\x00\x00\x80f@'
p1643
tp1644
Rp1645
sg66
I1
sg67
F0.2
sg68
g69
sg72
I15
sa(dp1646
g4
I20
sg5
F0.3
sg6
F0.2
sg7
F0.05
sg8
F0.4
sg9
I8
sg10
I8
sg11
F0.99
sg12
F0.4
sg13
I64
sg14
F0.15
sg15
I0
sg16
I2
sg17
F1.2
sg18
F0.125
sg19
F0.9
sg20
I1
sg21
g22
(g26
S'\x00\x00\x00\x00\x00\x00(@'
p1647
tp1648
Rp1649
sg32
I6
sg33
I0
sg34
I512
sg35
F0.8
sg36
F0.15
sg37
I1024
sg38
F0.125
sg39
g22
(g26
S'\x00\x00\x00\x00\x00\x00\xc0?'
p1650
tp1651
Rp1652
sg43
F0.25
sg44
I2
sg45
F0.2
sg46
F0.1
sg47
F0.6
sg48
I6
sg49
I12
sg50
g22
(g26
S'\x9a\x99\x99\x99\x99\x99\xa9\xbf'
p1653
tp1654
Rp1655
sg54
I1
sg55
I1
sg56
g57
sg58
I10
sg59
F0.1225
sg60
I1
sg61
I6
sg62
g22
(g26
S'\x00\x00\x00\x00\x00\x80f@'
p1656
tp1657
Rp1658
sg66
I1
sg67
F0.2
sg68
g69
sg72
I15
sa(dp1659
g4
I20
sg5
F0.3
sg6
F0.2
sg7
F0.05
sg8
F0.4
sg9
I8
sg10
I8
sg11
F0.99
sg12
F0.4
sg13
I64
sg14
F0.15
sg15
I0
sg16
I2
sg17
F1.2
sg18
F0.125
sg19
F0.9
sg20
I1
sg21
g22
(g26
S'\x00\x00\x00\x00\x00\x00*@'
p1660
tp1661
Rp1662
sg32
I6
sg33
I-1
sg34
I512
sg35
F0.8
sg36
F0.15
sg37
I1024
sg38
F0.125
sg39
g22
(g26
S'333333\xc3?'
p1663
tp1664
Rp1665
sg43
F0.25
sg44
I2
sg45
F0.2
sg46
F0.1
sg47
F0.6
sg48
I6
sg49
I12
sg50
g22
(g26
S'\x9a\x99\x99\x99\x99\x99\xa9\xbf'
p1666
tp1667
Rp1668
sg54
I1
sg55
I1
sg56
g57
sg58
I10
sg59
F0.1225
sg60
I1
sg61
I6
sg62
g22
(g26
S'\x00\x00\x00\x00\x00\x80f@'
p1669
tp1670
Rp1671
sg66
I1
sg67
F0.2
sg68
g69
sg72
I15
sa(dp1672
g4
I20
sg5
F0.3
sg6
F0.2
sg7
F0.05
sg8
F0.4
sg9
I8
sg10
I8
sg11
F0.99
sg12
F0.4
sg13
I64
sg14
F0.15
sg15
I0
sg16
I2
sg17
F1.2
sg18
F0.125
sg19
F0.9
sg20
I1
sg21
g22
(g26
S'\x00\x00\x00\x00\x00\x00,@'
p1673
tp1674
Rp1675
sg32
I6
sg33
I1
sg34
I512
sg35
F0.8
sg36
F0.15
sg37
I1024
sg38
F0.125
sg39
g22
(g26
S'\x00\x00\x00\x00\x00\x00\xc0\xbf'
p1676
tp1677
Rp1678
sg43
F0.25
sg44
I2
sg45
F0.2
sg46
F0.1
sg47
F0.6
sg48
I6
sg49
I12
sg50
g22
(g26
S'333333\xc3?'
p1679
tp1680
Rp1681
sg54
I1
sg55
I1
sg56
g57
sg58
I10
sg59
F0.1225
sg60
I1
sg61
I6
sg62
g22
(g26
S'\x00\x00\x00\x00\x00\x80f@'
p1682
tp1683
Rp1684
sg66
I1
sg67
F0.2
sg68
g69
sg72
I15
sa(dp1685
g4
I20
sg5
F0.3
sg6
F0.2
sg7
F0.05
sg8
F0.4
sg9
I8
sg10
I8
sg11
F0.99
sg12
F0.4
sg13
I64
sg14
F0.15
sg15
I0
sg16
I2
sg17
F1.2
sg18
F0.125
sg19
F0.9
sg20
I1
sg21
g22
(g26
S'\x00\x00\x00\x00\x00\x00.@'
p1686
tp1687
Rp1688
sg32
I6
sg33
I0
sg34
I512
sg35
F0.8
sg36
F0.15
sg37
I1024
sg38
F0.125
sg39
g22
(g26
S'\x9a\x99\x99\x99\x99\x99\xb9\xbf'
p1689
tp1690
Rp1691
sg43
F0.25
sg44
I2
sg45
F0.2
sg46
F0.1
sg47
F0.6
sg48
I6
sg49
I12
sg50
g22
(g26
S'\x99\x99\x99\x99\x99\x99\x99?'
p1692
tp1693
Rp1694
sg54
I1
sg55
I1
sg56
g57
sg58
I10
sg59
F0.1225
sg60
I1
sg61
I6
sg62
g22
(g26
S'\x00\x00\x00\x00\x00\x80f@'
p1695
tp1696
Rp1697
sg66
I1
sg67
F0.2
sg68
g69
sg72
I15
sa(dp1698
g4
I20
sg5
F0.3
sg6
F0.2
sg7
F0.05
sg8
F0.4
sg9
I8
sg10
I8
sg11
F0.99
sg12
F0.4
sg13
I64
sg14
F0.15
sg15
I0
sg16
I2
sg17
F1.2
sg18
F0.125
sg19
F0.9
sg20
I1
sg21
g22
(g26
S'\x00\x00\x00\x00\x00\x000@'
p1699
tp1700
Rp1701
sg32
I6
sg33
I1
sg34
I512
sg35
F0.8
sg36
F0.15
sg37
I1024
sg38
F0.125
sg39
g22
(g26
S'\x9a\x99\x99\x99\x99\x99\xa9\xbf'
p1702
tp1703
Rp1704
sg43
F0.25
sg44
I2
sg45
F0.2
sg46
F0.1
sg47
F0.6
sg48
I6
sg49
I12
sg50
g22
(g26
S'333333\xc3\xbf'
p1705
tp1706
Rp1707
sg54
I1
sg55
I1
sg56
g57
sg58
I10
sg59
F0.1225
sg60
I1
sg61
I6
sg62
g22
(g26
S'\x00\x00\x00\x00\x00\x80f@'
p1708
tp1709
Rp1710
sg66
I1
sg67
F0.2
sg68
g69
sg72
I15
sa(dp1711
g4
I20
sg5
F0.3
sg6
F0.2
sg7
F0.05
sg8
F0.4
sg9
I8
sg10
I8
sg11
F0.99
sg12
F0.4
sg13
I64
sg14
F0.15
sg15
I0
sg16
I2
sg17
F1.2
sg18
F0.125
sg19
F0.9
sg20
I1
sg21
g22
(g26
S'\x00\x00\x00\x00\x00\x001@'
p1712
tp1713
Rp1714
sg32
I6
sg33
I1
sg34
I512
sg35
F0.8
sg36
F0.15
sg37
I1024
sg38
F0.125
sg39
g22
(g26
S'\x9a\x99\x99\x99\x99\x99\xa9?'
p1715
tp1716
Rp1717
sg43
F0.25
sg44
I2
sg45
F0.2
sg46
F0.1
sg47
F0.6
sg48
I6
sg49
I12
sg50
g22
(g26
S'333333\xc3\xbf'
p1718
tp1719
Rp1720
sg54
I1
sg55
I1
sg56
g57
sg58
I10
sg59
F0.1225
sg60
I1
sg61
I6
sg62
g22
(g26
S'\x00\x00\x00\x00\x00\x80f@'
p1721
tp1722
Rp1723
sg66
I1
sg67
F0.2
sg68
g69
sg72
I15
sa(dp1724
g4
I20
sg5
F0.3
sg6
F0.2
sg7
F0.05
sg8
F0.4
sg9
I8
sg10
I8
sg11
F0.99
sg12
F0.4
sg13
I64
sg14
F0.15
sg15
I0
sg16
I2
sg17
F1.2
sg18
F0.125
sg19
F0.9
sg20
I1
sg21
g22
(g26
S'\x00\x00\x00\x00\x00\x002@'
p1725
tp1726
Rp1727
sg32
I6
sg33
I0
sg34
I512
sg35
F0.8
sg36
F0.15
sg37
I1024
sg38
F0.125
sg39
g22
(g26
S'\x9a\x99\x99\x99\x99\x99\xb9\xbf'
p1728
tp1729
Rp1730
sg43
F0.25
sg44
I2
sg45
F0.2
sg46
F0.1
sg47
F0.6
sg48
I6
sg49
I12
sg50
g22
(g26
S'\x9a\x99\x99\x99\x99\x99\xb9?'
p1731
tp1732
Rp1733
sg54
I1
sg55
I1
sg56
g57
sg58
I10
sg59
F0.1225
sg60
I1
sg61
I6
sg62
g22
(g26
S'\x00\x00\x00\x00\x00\x80f@'
p1734
tp1735
Rp1736
sg66
I1
sg67
F0.2
sg68
g69
sg72
I15
sa(dp1737
g4
I20
sg5
F0.3
sg6
F0.2
sg7
F0.05
sg8
F0.4
sg9
I8
sg10
I8
sg11
F0.99
sg12
F0.4
sg13
I64
sg14
F0.15
sg15
I0
sg16
I2
sg17
F1.2
sg18
F0.125
sg19
F0.9
sg20
I1
sg21
g22
(g26
S'\x00\x00\x00\x00\x00\x003@'
p1738
tp1739
Rp1740
sg32
I6
sg33
I0
sg34
I512
sg35
F0.8
sg36
F0.15
sg37
I1024
sg38
F0.125
sg39
g22
(g26
S'333333\xc3?'
p1741
tp1742
Rp1743
sg43
F0.25
sg44
I2
sg45
F0.2
sg46
F0.1
sg47
F0.6
sg48
I6
sg49
I12
sg50
g22
(g26
S'\x9a\x99\x99\x99\x99\x99\xa9\xbf'
p1744
tp1745
Rp1746
sg54
I1
sg55
I1
sg56
g57
sg58
I10
sg59
F0.1225
sg60
I1
sg61
I6
sg62
g22
(g26
S'\x00\x00\x00\x00\x00\x80f@'
p1747
tp1748
Rp1749
sg66
I1
sg67
F0.2
sg68
g69
sg72
I15
sa(dp1750
g4
I20
sg5
F0.3
sg6
F0.2
sg7
F0.05
sg8
F0.4
sg9
I8
sg10
I8
sg11
F0.99
sg12
F0.4
sg13
I64
sg14
F0.15
sg15
I0
sg16
I2
sg17
F1.2
sg18
F0.125
sg19
F0.9
sg20
I1
sg21
g22
(g26
S'\x00\x00\x00\x00\x00\x00\x00\x00'
p1751
tp1752
Rp1753
sg32
I6
sg33
I1
sg34
I512
sg35
F0.8
sg36
F0.15
sg37
I1024
sg38
F0.125
sg39
g22
(g26
S'\x99\x99\x99\x99\x99\x99\x99?'
p1754
tp1755
Rp1756
sg43
F0.25
sg44
I2
sg45
F0.2
sg46
F0.1
sg47
F0.6
sg48
I6
sg49
I12
sg50
g22
(g26
S'\x9a\x99\x99\x99\x99\x99\xb9\xbf'
p1757
tp1758
Rp1759
sg54
I1
sg55
I1
sg56
g57
sg58
I10
sg59
F0.1225
sg60
I1
sg61
I6
sg62
g22
(g26
S'\x00\x00\x00\x00\x00\x80F@'
p1760
tp1761
Rp1762
sg66
I1
sg67
F0.2
sg68
g69
sg72
I15
sa(dp1763
g4
I20
sg5
F0.3
sg6
F0.2
sg7
F0.05
sg8
F0.4
sg9
I8
sg10
I8
sg11
F0.99
sg12
F0.4
sg13
I64
sg14
F0.15
sg15
I0
sg16
I2
sg17
F1.2
sg18
F0.125
sg19
F0.9
sg20
I1
sg21
g22
(g26
S'\x00\x00\x00\x00\x00\x00\xf0?'
p1764
tp1765
Rp1766
sg32
I6
sg33
I0
sg34
I512
sg35
F0.8
sg36
F0.15
sg37
I1024
sg38
F0.125
sg39
g22
(g26
S'\x99\x99\x99\x99\x99\x99\x99\xbf'
p1767
tp1768
Rp1769
sg43
F0.25
sg44
I2
sg45
F0.2
sg46
F0.1
sg47
F0.6
sg48
I6
sg49
I12
sg50
g22
(g26
S'\x9a\x99\x99\x99\x99\x99\xb9?'
p1770
tp1771
Rp1772
sg54
I1
sg55
I1
sg56
g57
sg58
I10
sg59
F0.1225
sg60
I1
sg61
I6
sg62
g22
(g26
S'\x00\x00\x00\x00\x00\x80F@'
p1773
tp1774
Rp1775
sg66
I1
sg67
F0.2
sg68
g69
sg72
I15
sa(dp1776
g4
I20
sg5
F0.3
sg6
F0.2
sg7
F0.05
sg8
F0.4
sg9
I8
sg10
I8
sg11
F0.99
sg12
F0.4
sg13
I64
sg14
F0.15
sg15
I0
sg16
I2
sg17
F1.2
sg18
F0.125
sg19
F0.9
sg20
I1
sg21
g22
(g26
S'\x00\x00\x00\x00\x00\x00\x00@'
p1777
tp1778
Rp1779
sg32
I6
sg33
I1
sg34
I512
sg35
F0.8
sg36
F0.15
sg37
I1024
sg38
F0.125
sg39
g22
(g26
S'\x00\x00\x00\x00\x00\x00\xc0\xbf'
p1780
tp1781
Rp1782
sg43
F0.25
sg44
I2
sg45
F0.2
sg46
F0.1
sg47
F0.6
sg48
I6
sg49
I12
sg50
g22
(g26
S'\x99\x99\x99\x99\x99\x99\x99\xbf'
p1783
tp1784
Rp1785
sg54
I1
sg55
I1
sg56
g57
sg58
I10
sg59
F0.1225
sg60
I1
sg61
I6
sg62
g22
(g26
S'\x00\x00\x00\x00\x00\x80F@'
p1786
tp1787
Rp1788
sg66
I1
sg67
F0.2
sg68
g69
sg72
I15
sa(dp1789
g4
I20
sg5
F0.3
sg6
F0.2
sg7
F0.05
sg8
F0.4
sg9
I8
sg10
I8
sg11
F0.99
sg12
F0.4
sg13
I64
sg14
F0.15
sg15
I0
sg16
I2
sg17
F1.2
sg18
F0.125
sg19
F0.9
sg20
I1
sg21
g22
(g26
S'\x00\x00\x00\x00\x00\x00\x08@'
p1790
tp1791
Rp1792
sg32
I6
sg33
I-1
sg34
I512
sg35
F0.8
sg36
F0.15
sg37
I1024
sg38
F0.125
sg39
g22
(g26
S'\x9a\x99\x99\x99\x99\x99\xb9\xbf'
p1793
tp1794
Rp1795
sg43
F0.25
sg44
I2
sg45
F0.2
sg46
F0.1
sg47
F0.6
sg48
I6
sg49
I12
sg50
g22
(g26
S'\x9a\x99\x99\x99\x99\x99\xa9?'
p1796
tp1797
Rp1798
sg54
I1
sg55
I1
sg56
g57
sg58
I10
sg59
F0.1225
sg60
I1
sg61
I6
sg62
g22
(g26
S'\x00\x00\x00\x00\x00\x80F@'
p1799
tp1800
Rp1801
sg66
I1
sg67
F0.2
sg68
g69
sg72
I15
sa(dp1802
g4
I20
sg5
F0.3
sg6
F0.2
sg7
F0.05
sg8
F0.4
sg9
I8
sg10
I8
sg11
F0.99
sg12
F0.4
sg13
I64
sg14
F0.15
sg15
I0
sg16
I2
sg17
F1.2
sg18
F0.125
sg19
F0.9
sg20
I1
sg21
g22
(g26
S'\x00\x00\x00\x00\x00\x00\x10@'
p1803
tp1804
Rp1805
sg32
I6
sg33
I1
sg34
I512
sg35
F0.8
sg36
F0.15
sg37
I1024
sg38
F0.125
sg39
g22
(g26
S'\x9a\x99\x99\x99\x99\x99\xb9?'
p1806
tp1807
Rp1808
sg43
F0.25
sg44
I2
sg45
F0.2
sg46
F0.1
sg47
F0.6
sg48
I6
sg49
I12
sg50
g22
(g26
S'\x00\x00\x00\x00\x00\x00\xc0?'
p1809
tp1810
Rp1811
sg54
I1
sg55
I1
sg56
g57
sg58
I10
sg59
F0.1225
sg60
I1
sg61
I6
sg62
g22
(g26
S'\x00\x00\x00\x00\x00\x80F@'
p1812
tp1813
Rp1814
sg66
I1
sg67
F0.2
sg68
g69
sg72
I15
sa(dp1815
g4
I20
sg5
F0.3
sg6
F0.2
sg7
F0.05
sg8
F0.4
sg9
I8
sg10
I8
sg11
F0.99
sg12
F0.4
sg13
I64
sg14
F0.15
sg15
I0
sg16
I2
sg17
F1.2
sg18
F0.125
sg19
F0.9
sg20
I1
sg21
g22
(g26
S'\x00\x00\x00\x00\x00\x00\x14@'
p1816
tp1817
Rp1818
sg32
I6
sg33
I-1
sg34
I512
sg35
F0.8
sg36
F0.15
sg37
I1024
sg38
F0.125
sg39
g22
(g26
S'333333\xb3\xbf'
p1819
tp1820
Rp1821
sg43
F0.25
sg44
I2
sg45
F0.2
sg46
F0.1
sg47
F0.6
sg48
I6
sg49
I12
sg50
g22
(g26
S'\x99\x99\x99\x99\x99\x99\x99?'
p1822
tp1823
Rp1824
sg54
I1
sg55
I1
sg56
g57
sg58
I10
sg59
F0.1225
sg60
I1
sg61
I6
sg62
g22
(g26
S'\x00\x00\x00\x00\x00\x80F@'
p1825
tp1826
Rp1827
sg66
I1
sg67
F0.2
sg68
g69
sg72
I15
sa(dp1828
g4
I20
sg5
F0.3
sg6
F0.2
sg7
F0.05
sg8
F0.4
sg9
I8
sg10
I8
sg11
F0.99
sg12
F0.4
sg13
I64
sg14
F0.15
sg15
I0
sg16
I2
sg17
F1.2
sg18
F0.125
sg19
F0.9
sg20
I1
sg21
g22
(g26
S'\x00\x00\x00\x00\x00\x00\x18@'
p1829
tp1830
Rp1831
sg32
I6
sg33
I1
sg34
I512
sg35
F0.8
sg36
F0.15
sg37
I1024
sg38
F0.125
sg39
g22
(g26
S'\x99\x99\x99\x99\x99\x99\x99\xbf'
p1832
tp1833
Rp1834
sg43
F0.25
sg44
I2
sg45
F0.2
sg46
F0.1
sg47
F0.6
sg48
I6
sg49
I12
sg50
g22
(g26
S'333333\xb3?'
p1835
tp1836
Rp1837
sg54
I1
sg55
I1
sg56
g57
sg58
I10
sg59
F0.1225
sg60
I1
sg61
I6
sg62
g22
(g26
S'\x00\x00\x00\x00\x00\x80F@'
p1838
tp1839
Rp1840
sg66
I1
sg67
F0.2
sg68
g69
sg72
I15
sa(dp1841
g4
I20
sg5
F0.3
sg6
F0.2
sg7
F0.05
sg8
F0.4
sg9
I8
sg10
I8
sg11
F0.99
sg12
F0.4
sg13
I64
sg14
F0.15
sg15
I0
sg16
I2
sg17
F1.2
sg18
F0.125
sg19
F0.9
sg20
I1
sg21
g22
(g26
S'\x00\x00\x00\x00\x00\x00\x1c@'
p1842
tp1843
Rp1844
sg32
I6
sg33
I0
sg34
I512
sg35
F0.8
sg36
F0.15
sg37
I1024
sg38
F0.125
sg39
g22
(g26
S'\x99\x99\x99\x99\x99\x99\x99?'
p1845
tp1846
Rp1847
sg43
F0.25
sg44
I2
sg45
F0.2
sg46
F0.1
sg47
F0.6
sg48
I6
sg49
I12
sg50
g22
(g26
S'\x99\x99\x99\x99\x99\x99\x99?'
p1848
tp1849
Rp1850
sg54
I1
sg55
I1
sg56
g57
sg58
I10
sg59
F0.1225
sg60
I1
sg61
I6
sg62
g22
(g26
S'\x00\x00\x00\x00\x00\x80F@'
p1851
tp1852
Rp1853
sg66
I1
sg67
F0.2
sg68
g69
sg72
I15
sa(dp1854
g4
I20
sg5
F0.3
sg6
F0.2
sg7
F0.05
sg8
F0.4
sg9
I8
sg10
I8
sg11
F0.99
sg12
F0.4
sg13
I64
sg14
F0.15
sg15
I0
sg16
I2
sg17
F1.2
sg18
F0.125
sg19
F0.9
sg20
I1
sg21
g22
(g26
S'\x00\x00\x00\x00\x00\x00 @'
p1855
tp1856
Rp1857
sg32
I6
sg33
I0
sg34
I512
sg35
F0.8
sg36
F0.15
sg37
I1024
sg38
F0.125
sg39
g22
(g26
S'333333\xc3?'
p1858
tp1859
Rp1860
sg43
F0.25
sg44
I2
sg45
F0.2
sg46
F0.1
sg47
F0.6
sg48
I6
sg49
I12
sg50
g22
(g26
S'\x9a\x99\x99\x99\x99\x99\xa9?'
p1861
tp1862
Rp1863
sg54
I1
sg55
I1
sg56
g57
sg58
I10
sg59
F0.1225
sg60
I1
sg61
I6
sg62
g22
(g26
S'\x00\x00\x00\x00\x00\x80F@'
p1864
tp1865
Rp1866
sg66
I1
sg67
F0.2
sg68
g69
sg72
I15
sa(dp1867
g4
I20
sg5
F0.3
sg6
F0.2
sg7
F0.05
sg8
F0.4
sg9
I8
sg10
I8
sg11
F0.99
sg12
F0.4
sg13
I64
sg14
F0.15
sg15
I0
sg16
I2
sg17
F1.2
sg18
F0.125
sg19
F0.9
sg20
I1
sg21
g22
(g26
S'\x00\x00\x00\x00\x00\x00"@'
p1868
tp1869
Rp1870
sg32
I6
sg33
I0
sg34
I512
sg35
F0.8
sg36
F0.15
sg37
I1024
sg38
F0.125
sg39
g22
(g26
S'\x00\x00\x00\x00\x00\x00\xc0\xbf'
p1871
tp1872
Rp1873
sg43
F0.25
sg44
I2
sg45
F0.2
sg46
F0.1
sg47
F0.6
sg48
I6
sg49
I12
sg50
g22
(g26
S'333333\xb3?'
p1874
tp1875
Rp1876
sg54
I1
sg55
I1
sg56
g57
sg58
I10
sg59
F0.1225
sg60
I1
sg61
I6
sg62
g22
(g26
S'\x00\x00\x00\x00\x00\x80F@'
p1877
tp1878
Rp1879
sg66
I1
sg67
F0.2
sg68
g69
sg72
I15
sa(dp1880
g4
I20
sg5
F0.3
sg6
F0.2
sg7
F0.05
sg8
F0.4
sg9
I8
sg10
I8
sg11
F0.99
sg12
F0.4
sg13
I64
sg14
F0.15
sg15
I0
sg16
I2
sg17
F1.2
sg18
F0.125
sg19
F0.9
sg20
I1
sg21
g22
(g26
S'\x00\x00\x00\x00\x00\x00$@'
p1881
tp1882
Rp1883
sg32
I6
sg33
I0
sg34
I512
sg35
F0.8
sg36
F0.15
sg37
I1024
sg38
F0.125
sg39
g22
(g26
S'333333\xb3\xbf'
p1884
tp1885
Rp1886
sg43
F0.25
sg44
I2
sg45
F0.2
sg46
F0.1
sg47
F0.6
sg48
I6
sg49
I12
sg50
g22
(g26
S'\x9a\x99\x99\x99\x99\x99\xa9?'
p1887
tp1888
Rp1889
sg54
I1
sg55
I1
sg56
g57
sg58
I10
sg59
F0.1225
sg60
I1
sg61
I6
sg62
g22
(g26
S'\x00\x00\x00\x00\x00\x80F@'
p1890
tp1891
Rp1892
sg66
I1
sg67
F0.2
sg68
g69
sg72
I15
sa(dp1893
g4
I20
sg5
F0.3
sg6
F0.2
sg7
F0.05
sg8
F0.4
sg9
I8
sg10
I8
sg11
F0.99
sg12
F0.4
sg13
I64
sg14
F0.15
sg15
I0
sg16
I2
sg17
F1.2
sg18
F0.125
sg19
F0.9
sg20
I1
sg21
g22
(g26
S'\x00\x00\x00\x00\x00\x00&@'
p1894
tp1895
Rp1896
sg32
I6
sg33
I1
sg34
I512
sg35
F0.8
sg36
F0.15
sg37
I1024
sg38
F0.125
sg39
g22
(g26
S'333333\xc3?'
p1897
tp1898
Rp1899
sg43
F0.25
sg44
I2
sg45
F0.2
sg46
F0.1
sg47
F0.6
sg48
I6
sg49
I12
sg50
g22
(g26
S'333333\xc3\xbf'
p1900
tp1901
Rp1902
sg54
I1
sg55
I1
sg56
g57
sg58
I10
sg59
F0.1225
sg60
I1
sg61
I6
sg62
g22
(g26
S'\x00\x00\x00\x00\x00\x80F@'
p1903
tp1904
Rp1905
sg66
I1
sg67
F0.2
sg68
g69
sg72
I15
sa(dp1906
g4
I20
sg5
F0.3
sg6
F0.2
sg7
F0.05
sg8
F0.4
sg9
I8
sg10
I8
sg11
F0.99
sg12
F0.4
sg13
I64
sg14
F0.15
sg15
I0
sg16
I2
sg17
F1.2
sg18
F0.125
sg19
F0.9
sg20
I1
sg21
g22
(g26
S'\x00\x00\x00\x00\x00\x00(@'
p1907
tp1908
Rp1909
sg32
I6
sg33
I0
sg34
I512
sg35
F0.8
sg36
F0.15
sg37
I1024
sg38
F0.125
sg39
g22
(g26
S'333333\xb3?'
p1910
tp1911
Rp1912
sg43
F0.25
sg44
I2
sg45
F0.2
sg46
F0.1
sg47
F0.6
sg48
I6
sg49
I12
sg50
g22
(g26
S'\x9a\x99\x99\x99\x99\x99\xa9?'
p1913
tp1914
Rp1915
sg54
I1
sg55
I1
sg56
g57
sg58
I10
sg59
F0.1225
sg60
I1
sg61
I6
sg62
g22
(g26
S'\x00\x00\x00\x00\x00\x80F@'
p1916
tp1917
Rp1918
sg66
I1
sg67
F0.2
sg68
g69
sg72
I15
sa(dp1919
g4
I20
sg5
F0.3
sg6
F0.2
sg7
F0.05
sg8
F0.4
sg9
I8
sg10
I8
sg11
F0.99
sg12
F0.4
sg13
I64
sg14
F0.15
sg15
I0
sg16
I2
sg17
F1.2
sg18
F0.125
sg19
F0.9
sg20
I1
sg21
g22
(g26
S'\x00\x00\x00\x00\x00\x00*@'
p1920
tp1921
Rp1922
sg32
I6
sg33
I1
sg34
I512
sg35
F0.8
sg36
F0.15
sg37
I1024
sg38
F0.125
sg39
g22
(g26
S'\x99\x99\x99\x99\x99\x99\x99?'
p1923
tp1924
Rp1925
sg43
F0.25
sg44
I2
sg45
F0.2
sg46
F0.1
sg47
F0.6
sg48
I6
sg49
I12
sg50
g22
(g26
S'\x00\x00\x00\x00\x00\x00\xc0\xbf'
p1926
tp1927
Rp1928
sg54
I1
sg55
I1
sg56
g57
sg58
I10
sg59
F0.1225
sg60
I1
sg61
I6
sg62
g22
(g26
S'\x00\x00\x00\x00\x00\x80F@'
p1929
tp1930
Rp1931
sg66
I1
sg67
F0.2
sg68
g69
sg72
I15
sa(dp1932
g4
I20
sg5
F0.3
sg6
F0.2
sg7
F0.05
sg8
F0.4
sg9
I8
sg10
I8
sg11
F0.99
sg12
F0.4
sg13
I64
sg14
F0.15
sg15
I0
sg16
I2
sg17
F1.2
sg18
F0.125
sg19
F0.9
sg20
I1
sg21
g22
(g26
S'\x00\x00\x00\x00\x00\x00,@'
p1933
tp1934
Rp1935
sg32
I6
sg33
I-1
sg34
I512
sg35
F0.8
sg36
F0.15
sg37
I1024
sg38
F0.125
sg39
g22
(g26
S'\x99\x99\x99\x99\x99\x99\x99\xbf'
p1936
tp1937
Rp1938
sg43
F0.25
sg44
I2
sg45
F0.2
sg46
F0.1
sg47
F0.6
sg48
I6
sg49
I12
sg50
g22
(g26
S'\x9a\x99\x99\x99\x99\x99\xa9\xbf'
p1939
tp1940
Rp1941
sg54
I1
sg55
I1
sg56
g57
sg58
I10
sg59
F0.1225
sg60
I1
sg61
I6
sg62
g22
(g26
S'\x00\x00\x00\x00\x00\x80F@'
p1942
tp1943
Rp1944
sg66
I1
sg67
F0.2
sg68
g69
sg72
I15
sa(dp1945
g4
I20
sg5
F0.3
sg6
F0.2
sg7
F0.05
sg8
F0.4
sg9
I8
sg10
I8
sg11
F0.99
sg12
F0.4
sg13
I64
sg14
F0.15
sg15
I0
sg16
I2
sg17
F1.2
sg18
F0.125
sg19
F0.9
sg20
I1
sg21
g22
(g26
S'\x00\x00\x00\x00\x00\x00.@'
p1946
tp1947
Rp1948
sg32
I6
sg33
I0
sg34
I512
sg35
F0.8
sg36
F0.15
sg37
I1024
sg38
F0.125
sg39
g22
(g26
S'333333\xb3\xbf'
p1949
tp1950
Rp1951
sg43
F0.25
sg44
I2
sg45
F0.2
sg46
F0.1
sg47
F0.6
sg48
I6
sg49
I12
sg50
g22
(g26
S'\x9a\x99\x99\x99\x99\x99\xb9\xbf'
p1952
tp1953
Rp1954
sg54
I1
sg55
I1
sg56
g57
sg58
I10
sg59
F0.1225
sg60
I1
sg61
I6
sg62
g22
(g26
S'\x00\x00\x00\x00\x00\x80F@'
p1955
tp1956
Rp1957
sg66
I1
sg67
F0.2
sg68
g69
sg72
I15
sa(dp1958
g4
I20
sg5
F0.3
sg6
F0.2
sg7
F0.05
sg8
F0.4
sg9
I8
sg10
I8
sg11
F0.99
sg12
F0.4
sg13
I64
sg14
F0.15
sg15
I0
sg16
I2
sg17
F1.2
sg18
F0.125
sg19
F0.9
sg20
I1
sg21
g22
(g26
S'\x00\x00\x00\x00\x00\x000@'
p1959
tp1960
Rp1961
sg32
I6
sg33
I-1
sg34
I512
sg35
F0.8
sg36
F0.15
sg37
I1024
sg38
F0.125
sg39
g22
(g26
S'333333\xc3?'
p1962
tp1963
Rp1964
sg43
F0.25
sg44
I2
sg45
F0.2
sg46
F0.1
sg47
F0.6
sg48
I6
sg49
I12
sg50
g22
(g26
S'\x9a\x99\x99\x99\x99\x99\xa9\xbf'
p1965
tp1966
Rp1967
sg54
I1
sg55
I1
sg56
g57
sg58
I10
sg59
F0.1225
sg60
I1
sg61
I6
sg62
g22
(g26
S'\x00\x00\x00\x00\x00\x80F@'
p1968
tp1969
Rp1970
sg66
I1
sg67
F0.2
sg68
g69
sg72
I15
sa(dp1971
g4
I20
sg5
F0.3
sg6
F0.2
sg7
F0.05
sg8
F0.4
sg9
I8
sg10
I8
sg11
F0.99
sg12
F0.4
sg13
I64
sg14
F0.15
sg15
I0
sg16
I2
sg17
F1.2
sg18
F0.125
sg19
F0.9
sg20
I1
sg21
g22
(g26
S'\x00\x00\x00\x00\x00\x001@'
p1972
tp1973
Rp1974
sg32
I6
sg33
I1
sg34
I512
sg35
F0.8
sg36
F0.15
sg37
I1024
sg38
F0.125
sg39
g22
(g26
S'333333\xc3?'
p1975
tp1976
Rp1977
sg43
F0.25
sg44
I2
sg45
F0.2
sg46
F0.1
sg47
F0.6
sg48
I6
sg49
I12
sg50
g22
(g26
S'333333\xc3\xbf'
p1978
tp1979
Rp1980
sg54
I1
sg55
I1
sg56
g57
sg58
I10
sg59
F0.1225
sg60
I1
sg61
I6
sg62
g22
(g26
S'\x00\x00\x00\x00\x00\x80F@'
p1981
tp1982
Rp1983
sg66
I1
sg67
F0.2
sg68
g69
sg72
I15
sa(dp1984
g4
I20
sg5
F0.3
sg6
F0.2
sg7
F0.05
sg8
F0.4
sg9
I8
sg10
I8
sg11
F0.99
sg12
F0.4
sg13
I64
sg14
F0.15
sg15
I0
sg16
I2
sg17
F1.2
sg18
F0.125
sg19
F0.9
sg20
I1
sg21
g22
(g26
S'\x00\x00\x00\x00\x00\x002@'
p1985
tp1986
Rp1987
sg32
I6
sg33
I1
sg34
I512
sg35
F0.8
sg36
F0.15
sg37
I1024
sg38
F0.125
sg39
g22
(g26
S'\x9a\x99\x99\x99\x99\x99\xb9?'
p1988
tp1989
Rp1990
sg43
F0.25
sg44
I2
sg45
F0.2
sg46
F0.1
sg47
F0.6
sg48
I6
sg49
I12
sg50
g22
(g26
S'\x99\x99\x99\x99\x99\x99\x99\xbf'
p1991
tp1992
Rp1993
sg54
I1
sg55
I1
sg56
g57
sg58
I10
sg59
F0.1225
sg60
I1
sg61
I6
sg62
g22
(g26
S'\x00\x00\x00\x00\x00\x80F@'
p1994
tp1995
Rp1996
sg66
I1
sg67
F0.2
sg68
g69
sg72
I15
sa(dp1997
g4
I20
sg5
F0.3
sg6
F0.2
sg7
F0.05
sg8
F0.4
sg9
I8
sg10
I8
sg11
F0.99
sg12
F0.4
sg13
I64
sg14
F0.15
sg15
I0
sg16
I2
sg17
F1.2
sg18
F0.125
sg19
F0.9
sg20
I1
sg21
g22
(g26
S'\x00\x00\x00\x00\x00\x003@'
p1998
tp1999
Rp2000
sg32
I6
sg33
I-1
sg34
I512
sg35
F0.8
sg36
F0.15
sg37
I1024
sg38
F0.125
sg39
g22
(g26
S'\x9a\x99\x99\x99\x99\x99\xa9\xbf'
p2001
tp2002
Rp2003
sg43
F0.25
sg44
I2
sg45
F0.2
sg46
F0.1
sg47
F0.6
sg48
I6
sg49
I12
sg50
g22
(g26
S'\x99\x99\x99\x99\x99\x99\x99?'
p2004
tp2005
Rp2006
sg54
I1
sg55
I1
sg56
g57
sg58
I10
sg59
F0.1225
sg60
I1
sg61
I6
sg62
g22
(g26
S'\x00\x00\x00\x00\x00\x80F@'
p2007
tp2008
Rp2009
sg66
I1
sg67
F0.2
sg68
g69
sg72
I15
sa(dp2010
g4
I20
sg5
F0.3
sg6
F0.2
sg7
F0.05
sg8
F0.4
sg9
I8
sg10
I8
sg11
F0.99
sg12
F0.4
sg13
I64
sg14
F0.15
sg15
I0
sg16
I2
sg17
F1.2
sg18
F0.125
sg19
F0.9
sg20
I1
sg21
g22
(g26
S'\x00\x00\x00\x00\x00\x00\x00\x00'
p2011
tp2012
Rp2013
sg32
I6
sg33
I0
sg34
I512
sg35
F0.8
sg36
F0.15
sg37
I1024
sg38
F0.125
sg39
g22
(g26
S'333333\xc3\xbf'
p2014
tp2015
Rp2016
sg43
F0.25
sg44
I2
sg45
F0.2
sg46
F0.1
sg47
F0.6
sg48
I6
sg49
I12
sg50
g22
(g26
S'\x9a\x99\x99\x99\x99\x99\xb9?'
p2017
tp2018
Rp2019
sg54
I1
sg55
I1
sg56
g57
sg58
I10
sg59
F0.1225
sg60
I1
sg61
I6
sg62
g22
(g26
S'\x00\x00\x00\x00\x00\x00\xf0\xbf'
p2020
tp2021
Rp2022
sg66
I1
sg67
F0.2
sg68
g69
sg72
I15
sa(dp2023
g4
I20
sg5
F0.3
sg6
F0.2
sg7
F0.05
sg8
F0.4
sg9
I8
sg10
I8
sg11
F0.99
sg12
F0.4
sg13
I64
sg14
F0.15
sg15
I0
sg16
I2
sg17
F1.2
sg18
F0.125
sg19
F0.9
sg20
I1
sg21
g22
(g26
S'\x00\x00\x00\x00\x00\x00\xf0?'
p2024
tp2025
Rp2026
sg32
I6
sg33
I1
sg34
I512
sg35
F0.8
sg36
F0.15
sg37
I1024
sg38
F0.125
sg39
g22
(g26
S'\x9a\x99\x99\x99\x99\x99\xb9?'
p2027
tp2028
Rp2029
sg43
F0.25
sg44
I2
sg45
F0.2
sg46
F0.1
sg47
F0.6
sg48
I6
sg49
I12
sg50
g22
(g26
S'\x9a\x99\x99\x99\x99\x99\xa9\xbf'
p2030
tp2031
Rp2032
sg54
I1
sg55
I1
sg56
g57
sg58
I10
sg59
F0.1225
sg60
I1
sg61
I6
sg62
g22
(g26
S'\x00\x00\x00\x00\x00\x00\xf0\xbf'
p2033
tp2034
Rp2035
sg66
I1
sg67
F0.2
sg68
g69
sg72
I15
sa(dp2036
g4
I20
sg5
F0.3
sg6
F0.2
sg7
F0.05
sg8
F0.4
sg9
I8
sg10
I8
sg11
F0.99
sg12
F0.4
sg13
I64
sg14
F0.15
sg15
I0
sg16
I2
sg17
F1.2
sg18
F0.125
sg19
F0.9
sg20
I1
sg21
g22
(g26
S'\x00\x00\x00\x00\x00\x00\x00@'
p2037
tp2038
Rp2039
sg32
I6
sg33
I0
sg34
I512
sg35
F0.8
sg36
F0.15
sg37
I1024
sg38
F0.125
sg39
g22
(g26
S'\x99\x99\x99\x99\x99\x99\x99\xbf'
p2040
tp2041
Rp2042
sg43
F0.25
sg44
I2
sg45
F0.2
sg46
F0.1
sg47
F0.6
sg48
I6
sg49
I12
sg50
g22
(g26
S'\x00\x00\x00\x00\x00\x00\xc0?'
p2043
tp2044
Rp2045
sg54
I1
sg55
I1
sg56
g57
sg58
I10
sg59
F0.1225
sg60
I1
sg61
I6
sg62
g22
(g26
S'\x00\x00\x00\x00\x00\x00\xf0\xbf'
p2046
tp2047
Rp2048
sg66
I1
sg67
F0.2
sg68
g69
sg72
I15
sa(dp2049
g4
I20
sg5
F0.3
sg6
F0.2
sg7
F0.05
sg8
F0.4
sg9
I8
sg10
I8
sg11
F0.99
sg12
F0.4
sg13
I64
sg14
F0.15
sg15
I0
sg16
I2
sg17
F1.2
sg18
F0.125
sg19
F0.9
sg20
I1
sg21
g22
(g26
S'\x00\x00\x00\x00\x00\x00\x08@'
p2050
tp2051
Rp2052
sg32
I6
sg33
I0
sg34
I512
sg35
F0.8
sg36
F0.15
sg37
I1024
sg38
F0.125
sg39
g22
(g26
S'333333\xc3?'
p2053
tp2054
Rp2055
sg43
F0.25
sg44
I2
sg45
F0.2
sg46
F0.1
sg47
F0.6
sg48
I6
sg49
I12
sg50
g22
(g26
S'\x99\x99\x99\x99\x99\x99\x99?'
p2056
tp2057
Rp2058
sg54
I1
sg55
I1
sg56
g57
sg58
I10
sg59
F0.1225
sg60
I1
sg61
I6
sg62
g22
(g26
S'\x00\x00\x00\x00\x00\x00\xf0\xbf'
p2059
tp2060
Rp2061
sg66
I1
sg67
F0.2
sg68
g69
sg72
I15
sa(dp2062
g4
I20
sg5
F0.3
sg6
F0.2
sg7
F0.05
sg8
F0.4
sg9
I8
sg10
I8
sg11
F0.99
sg12
F0.4
sg13
I64
sg14
F0.15
sg15
I0
sg16
I2
sg17
F1.2
sg18
F0.125
sg19
F0.9
sg20
I1
sg21
g22
(g26
S'\x00\x00\x00\x00\x00\x00\x10@'
p2063
tp2064
Rp2065
sg32
I6
sg33
I-1
sg34
I512
sg35
F0.8
sg36
F0.15
sg37
I1024
sg38
F0.125
sg39
g22
(g26
S'\x9a\x99\x99\x99\x99\x99\xb9\xbf'
p2066
tp2067
Rp2068
sg43
F0.25
sg44
I2
sg45
F0.2
sg46
F0.1
sg47
F0.6
sg48
I6
sg49
I12
sg50
g22
(g26
S'\x9a\x99\x99\x99\x99\x99\xa9?'
p2069
tp2070
Rp2071
sg54
I1
sg55
I1
sg56
g57
sg58
I10
sg59
F0.1225
sg60
I1
sg61
I6
sg62
g22
(g26
S'\x00\x00\x00\x00\x00\x00\xf0\xbf'
p2072
tp2073
Rp2074
sg66
I1
sg67
F0.2
sg68
g69
sg72
I15
sa(dp2075
g4
I20
sg5
F0.3
sg6
F0.2
sg7
F0.05
sg8
F0.4
sg9
I8
sg10
I8
sg11
F0.99
sg12
F0.4
sg13
I64
sg14
F0.15
sg15
I0
sg16
I2
sg17
F1.2
sg18
F0.125
sg19
F0.9
sg20
I1
sg21
g22
(g26
S'\x00\x00\x00\x00\x00\x00\x14@'
p2076
tp2077
Rp2078
sg32
I6
sg33
I1
sg34
I512
sg35
F0.8
sg36
F0.15
sg37
I1024
sg38
F0.125
sg39
g22
(g26
S'\x9a\x99\x99\x99\x99\x99\xb9\xbf'
p2079
tp2080
Rp2081
sg43
F0.25
sg44
I2
sg45
F0.2
sg46
F0.1
sg47
F0.6
sg48
I6
sg49
I12
sg50
g22
(g26
S'333333\xb3?'
p2082
tp2083
Rp2084
sg54
I1
sg55
I1
sg56
g57
sg58
I10
sg59
F0.1225
sg60
I1
sg61
I6
sg62
g22
(g26
S'\x00\x00\x00\x00\x00\x00\xf0\xbf'
p2085
tp2086
Rp2087
sg66
I1
sg67
F0.2
sg68
g69
sg72
I15
sa(dp2088
g4
I20
sg5
F0.3
sg6
F0.2
sg7
F0.05
sg8
F0.4
sg9
I8
sg10
I8
sg11
F0.99
sg12
F0.4
sg13
I64
sg14
F0.15
sg15
I0
sg16
I2
sg17
F1.2
sg18
F0.125
sg19
F0.9
sg20
I1
sg21
g22
(g26
S'\x00\x00\x00\x00\x00\x00\x18@'
p2089
tp2090
Rp2091
sg32
I6
sg33
I1
sg34
I512
sg35
F0.8
sg36
F0.15
sg37
I1024
sg38
F0.125
sg39
g22
(g26
S'\x00\x00\x00\x00\x00\x00\xc0\xbf'
p2092
tp2093
Rp2094
sg43
F0.25
sg44
I2
sg45
F0.2
sg46
F0.1
sg47
F0.6
sg48
I6
sg49
I12
sg50
g22
(g26
S'333333\xc3\xbf'
p2095
tp2096
Rp2097
sg54
I1
sg55
I1
sg56
g57
sg58
I10
sg59
F0.1225
sg60
I1
sg61
I6
sg62
g22
(g26
S'\x00\x00\x00\x00\x00\x00\xf0\xbf'
p2098
tp2099
Rp2100
sg66
I1
sg67
F0.2
sg68
g69
sg72
I15
sa(dp2101
g4
I20
sg5
F0.3
sg6
F0.2
sg7
F0.05
sg8
F0.4
sg9
I8
sg10
I8
sg11
F0.99
sg12
F0.4
sg13
I64
sg14
F0.15
sg15
I0
sg16
I2
sg17
F1.2
sg18
F0.125
sg19
F0.9
sg20
I1
sg21
g22
(g26
S'\x00\x00\x00\x00\x00\x00\x1c@'
p2102
tp2103
Rp2104
sg32
I6
sg33
I0
sg34
I512
sg35
F0.8
sg36
F0.15
sg37
I1024
sg38
F0.125
sg39
g22
(g26
S'\x9a\x99\x99\x99\x99\x99\xb9?'
p2105
tp2106
Rp2107
sg43
F0.25
sg44
I2
sg45
F0.2
sg46
F0.1
sg47
F0.6
sg48
I6
sg49
I12
sg50
g22
(g26
S'\x00\x00\x00\x00\x00\x00\xc0?'
p2108
tp2109
Rp2110
sg54
I1
sg55
I1
sg56
g57
sg58
I10
sg59
F0.1225
sg60
I1
sg61
I6
sg62
g22
(g26
S'\x00\x00\x00\x00\x00\x00\xf0\xbf'
p2111
tp2112
Rp2113
sg66
I1
sg67
F0.2
sg68
g69
sg72
I15
sa(dp2114
g4
I20
sg5
F0.3
sg6
F0.2
sg7
F0.05
sg8
F0.4
sg9
I8
sg10
I8
sg11
F0.99
sg12
F0.4
sg13
I64
sg14
F0.15
sg15
I0
sg16
I2
sg17
F1.2
sg18
F0.125
sg19
F0.9
sg20
I1
sg21
g22
(g26
S'\x00\x00\x00\x00\x00\x00 @'
p2115
tp2116
Rp2117
sg32
I6
sg33
I0
sg34
I512
sg35
F0.8
sg36
F0.15
sg37
I1024
sg38
F0.125
sg39
g22
(g26
S'\x99\x99\x99\x99\x99\x99\x99\xbf'
p2118
tp2119
Rp2120
sg43
F0.25
sg44
I2
sg45
F0.2
sg46
F0.1
sg47
F0.6
sg48
I6
sg49
I12
sg50
g22
(g26
S'\x9a\x99\x99\x99\x99\x99\xb9?'
p2121
tp2122
Rp2123
sg54
I1
sg55
I1
sg56
g57
sg58
I10
sg59
F0.1225
sg60
I1
sg61
I6
sg62
g22
(g26
S'\x00\x00\x00\x00\x00\x00\xf0\xbf'
p2124
tp2125
Rp2126
sg66
I1
sg67
F0.2
sg68
g69
sg72
I15
sa(dp2127
g4
I20
sg5
F0.3
sg6
F0.2
sg7
F0.05
sg8
F0.4
sg9
I8
sg10
I8
sg11
F0.99
sg12
F0.4
sg13
I64
sg14
F0.15
sg15
I0
sg16
I2
sg17
F1.2
sg18
F0.125
sg19
F0.9
sg20
I1
sg21
g22
(g26
S'\x00\x00\x00\x00\x00\x00"@'
p2128
tp2129
Rp2130
sg32
I6
sg33
I0
sg34
I512
sg35
F0.8
sg36
F0.15
sg37
I1024
sg38
F0.125
sg39
g22
(g26
S'\x9a\x99\x99\x99\x99\x99\xa9?'
p2131
tp2132
Rp2133
sg43
F0.25
sg44
I2
sg45
F0.2
sg46
F0.1
sg47
F0.6
sg48
I6
sg49
I12
sg50
g22
(g26
S'\x9a\x99\x99\x99\x99\x99\xa9?'
p2134
tp2135
Rp2136
sg54
I1
sg55
I1
sg56
g57
sg58
I10
sg59
F0.1225
sg60
I1
sg61
I6
sg62
g22
(g26
S'\x00\x00\x00\x00\x00\x00\xf0\xbf'
p2137
tp2138
Rp2139
sg66
I1
sg67
F0.2
sg68
g69
sg72
I15
sa(dp2140
g4
I20
sg5
F0.3
sg6
F0.2
sg7
F0.05
sg8
F0.4
sg9
I8
sg10
I8
sg11
F0.99
sg12
F0.4
sg13
I64
sg14
F0.15
sg15
I0
sg16
I2
sg17
F1.2
sg18
F0.125
sg19
F0.9
sg20
I1
sg21
g22
(g26
S'\x00\x00\x00\x00\x00\x00\x00\x00'
p2141
tp2142
Rp2143
sg32
I6
sg33
I1
sg34
I512
sg35
F0.8
sg36
F0.15
sg37
I1024
sg38
F0.125
sg39
g22
(g26
S'\x00\x00\x00\x00\x00\x00\xc0?'
p2144
tp2145
Rp2146
sg43
F0.25
sg44
I2
sg45
F0.2
sg46
F0.1
sg47
F0.6
sg48
I6
sg49
I12
sg50
g22
(g26
S'333333\xc3\xbf'
p2147
tp2148
Rp2149
sg54
I1
sg55
I1
sg56
g57
sg58
I10
sg59
F0.1225
sg60
I1
sg61
I6
sg62
g22
(g26
S'\x00\x00\x00\x00\x00\xe0p@'
p2150
tp2151
Rp2152
sg66
I1
sg67
F0.2
sg68
g69
sg72
I15
sa(dp2153
g4
I20
sg5
F0.3
sg6
F0.2
sg7
F0.05
sg8
F0.4
sg9
I8
sg10
I8
sg11
F0.99
sg12
F0.4
sg13
I64
sg14
F0.15
sg15
I0
sg16
I2
sg17
F1.2
sg18
F0.125
sg19
F0.9
sg20
I1
sg21
g22
(g26
S'\x00\x00\x00\x00\x00\x00\xf0?'
p2154
tp2155
Rp2156
sg32
I6
sg33
I0
sg34
I512
sg35
F0.8
sg36
F0.15
sg37
I1024
sg38
F0.125
sg39
g22
(g26
S'333333\xc3?'
p2157
tp2158
Rp2159
sg43
F0.25
sg44
I2
sg45
F0.2
sg46
F0.1
sg47
F0.6
sg48
I6
sg49
I12
sg50
g22
(g26
S'\x99\x99\x99\x99\x99\x99\x99?'
p2160
tp2161
Rp2162
sg54
I1
sg55
I1
sg56
g57
sg58
I10
sg59
F0.1225
sg60
I1
sg61
I6
sg62
g22
(g26
S'\x00\x00\x00\x00\x00\xe0p@'
p2163
tp2164
Rp2165
sg66
I1
sg67
F0.2
sg68
g69
sg72
I15
sa(dp2166
g4
I20
sg5
F0.3
sg6
F0.2
sg7
F0.05
sg8
F0.4
sg9
I8
sg10
I8
sg11
F0.99
sg12
F0.4
sg13
I64
sg14
F0.15
sg15
I0
sg16
I2
sg17
F1.2
sg18
F0.125
sg19
F0.9
sg20
I1
sg21
g22
(g26
S'\x00\x00\x00\x00\x00\x00\x00@'
p2167
tp2168
Rp2169
sg32
I6
sg33
I1
sg34
I512
sg35
F0.8
sg36
F0.15
sg37
I1024
sg38
F0.125
sg39
g22
(g26
S'\x99\x99\x99\x99\x99\x99\x99\xbf'
p2170
tp2171
Rp2172
sg43
F0.25
sg44
I2
sg45
F0.2
sg46
F0.1
sg47
F0.6
sg48
I6
sg49
I12
sg50
g22
(g26
S'333333\xc3\xbf'
p2173
tp2174
Rp2175
sg54
I1
sg55
I1
sg56
g57
sg58
I10
sg59
F0.1225
sg60
I1
sg61
I6
sg62
g22
(g26
S'\x00\x00\x00\x00\x00\xe0p@'
p2176
tp2177
Rp2178
sg66
I1
sg67
F0.2
sg68
g69
sg72
I15
sa(dp2179
g4
I20
sg5
F0.3
sg6
F0.2
sg7
F0.05
sg8
F0.4
sg9
I8
sg10
I8
sg11
F0.99
sg12
F0.4
sg13
I64
sg14
F0.15
sg15
I0
sg16
I2
sg17
F1.2
sg18
F0.125
sg19
F0.9
sg20
I1
sg21
g22
(g26
S'\x00\x00\x00\x00\x00\x00\x08@'
p2180
tp2181
Rp2182
sg32
I6
sg33
I-1
sg34
I512
sg35
F0.8
sg36
F0.15
sg37
I1024
sg38
F0.125
sg39
g22
(g26
S'\x99\x99\x99\x99\x99\x99\x99?'
p2183
tp2184
Rp2185
sg43
F0.25
sg44
I2
sg45
F0.2
sg46
F0.1
sg47
F0.6
sg48
I6
sg49
I12
sg50
g22
(g26
S'\x9a\x99\x99\x99\x99\x99\xb9\xbf'
p2186
tp2187
Rp2188
sg54
I1
sg55
I1
sg56
g57
sg58
I10
sg59
F0.1225
sg60
I1
sg61
I6
sg62
g22
(g26
S'\x00\x00\x00\x00\x00\xe0p@'
p2189
tp2190
Rp2191
sg66
I1
sg67
F0.2
sg68
g69
sg72
I15
sa(dp2192
g4
I20
sg5
F0.3
sg6
F0.2
sg7
F0.05
sg8
F0.4
sg9
I8
sg10
I8
sg11
F0.99
sg12
F0.4
sg13
I64
sg14
F0.15
sg15
I0
sg16
I2
sg17
F1.2
sg18
F0.125
sg19
F0.9
sg20
I1
sg21
g22
(g26
S'\x00\x00\x00\x00\x00\x00\x10@'
p2193
tp2194
Rp2195
sg32
I6
sg33
I1
sg34
I512
sg35
F0.8
sg36
F0.15
sg37
I1024
sg38
F0.125
sg39
g22
(g26
S'333333\xb3?'
p2196
tp2197
Rp2198
sg43
F0.25
sg44
I2
sg45
F0.2
sg46
F0.1
sg47
F0.6
sg48
I6
sg49
I12
sg50
g22
(g26
S'333333\xc3\xbf'
p2199
tp2200
Rp2201
sg54
I1
sg55
I1
sg56
g57
sg58
I10
sg59
F0.1225
sg60
I1
sg61
I6
sg62
g22
(g26
S'\x00\x00\x00\x00\x00\xe0p@'
p2202
tp2203
Rp2204
sg66
I1
sg67
F0.2
sg68
g69
sg72
I15
sa(dp2205
g4
I20
sg5
F0.3
sg6
F0.2
sg7
F0.05
sg8
F0.4
sg9
I8
sg10
I8
sg11
F0.99
sg12
F0.4
sg13
I64
sg14
F0.15
sg15
I0
sg16
I2
sg17
F1.2
sg18
F0.125
sg19
F0.9
sg20
I1
sg21
g22
(g26
S'\x00\x00\x00\x00\x00\x00\x14@'
p2206
tp2207
Rp2208
sg32
I6
sg33
I0
sg34
I512
sg35
F0.8
sg36
F0.15
sg37
I1024
sg38
F0.125
sg39
g22
(g26
S'\x9a\x99\x99\x99\x99\x99\xb9\xbf'
p2209
tp2210
Rp2211
sg43
F0.25
sg44
I2
sg45
F0.2
sg46
F0.1
sg47
F0.6
sg48
I6
sg49
I12
sg50
g22
(g26
S'\x9a\x99\x99\x99\x99\x99\xb9?'
p2212
tp2213
Rp2214
sg54
I1
sg55
I1
sg56
g57
sg58
I10
sg59
F0.1225
sg60
I1
sg61
I6
sg62
g22
(g26
S'\x00\x00\x00\x00\x00\xe0p@'
p2215
tp2216
Rp2217
sg66
I1
sg67
F0.2
sg68
g69
sg72
I15
sa(dp2218
g4
I20
sg5
F0.3
sg6
F0.2
sg7
F0.05
sg8
F0.4
sg9
I8
sg10
I8
sg11
F0.99
sg12
F0.4
sg13
I64
sg14
F0.15
sg15
I0
sg16
I2
sg17
F1.2
sg18
F0.125
sg19
F0.9
sg20
I1
sg21
g22
(g26
S'\x00\x00\x00\x00\x00\x00\x18@'
p2219
tp2220
Rp2221
sg32
I6
sg33
I0
sg34
I512
sg35
F0.8
sg36
F0.15
sg37
I1024
sg38
F0.125
sg39
g22
(g26
S'333333\xb3\xbf'
p2222
tp2223
Rp2224
sg43
F0.25
sg44
I2
sg45
F0.2
sg46
F0.1
sg47
F0.6
sg48
I6
sg49
I12
sg50
g22
(g26
S'\x9a\x99\x99\x99\x99\x99\xb9?'
p2225
tp2226
Rp2227
sg54
I1
sg55
I1
sg56
g57
sg58
I10
sg59
F0.1225
sg60
I1
sg61
I6
sg62
g22
(g26
S'\x00\x00\x00\x00\x00\xe0p@'
p2228
tp2229
Rp2230
sg66
I1
sg67
F0.2
sg68
g69
sg72
I15
sa(dp2231
g4
I20
sg5
F0.3
sg6
F0.2
sg7
F0.05
sg8
F0.4
sg9
I8
sg10
I8
sg11
F0.99
sg12
F0.4
sg13
I64
sg14
F0.15
sg15
I0
sg16
I2
sg17
F1.2
sg18
F0.125
sg19
F0.9
sg20
I1
sg21
g22
(g26
S'\x00\x00\x00\x00\x00\x00\x1c@'
p2232
tp2233
Rp2234
sg32
I6
sg33
I1
sg34
I512
sg35
F0.8
sg36
F0.15
sg37
I1024
sg38
F0.125
sg39
g22
(g26
S'\x00\x00\x00\x00\x00\x00\xc0\xbf'
p2235
tp2236
Rp2237
sg43
F0.25
sg44
I2
sg45
F0.2
sg46
F0.1
sg47
F0.6
sg48
I6
sg49
I12
sg50
g22
(g26
S'\x99\x99\x99\x99\x99\x99\x99?'
p2238
tp2239
Rp2240
sg54
I1
sg55
I1
sg56
g57
sg58
I10
sg59
F0.1225
sg60
I1
sg61
I6
sg62
g22
(g26
S'\x00\x00\x00\x00\x00\xe0p@'
p2241
tp2242
Rp2243
sg66
I1
sg67
F0.2
sg68
g69
sg72
I15
sa(dp2244
g4
I20
sg5
F0.3
sg6
F0.2
sg7
F0.05
sg8
F0.4
sg9
I8
sg10
I8
sg11
F0.99
sg12
F0.4
sg13
I64
sg14
F0.15
sg15
I0
sg16
I2
sg17
F1.2
sg18
F0.125
sg19
F0.9
sg20
I1
sg21
g22
(g26
S'\x00\x00\x00\x00\x00\x00 @'
p2245
tp2246
Rp2247
sg32
I6
sg33
I0
sg34
I512
sg35
F0.8
sg36
F0.15
sg37
I1024
sg38
F0.125
sg39
g22
(g26
S'\x9a\x99\x99\x99\x99\x99\xb9?'
p2248
tp2249
Rp2250
sg43
F0.25
sg44
I2
sg45
F0.2
sg46
F0.1
sg47
F0.6
sg48
I6
sg49
I12
sg50
g22
(g26
S'333333\xc3?'
p2251
tp2252
Rp2253
sg54
I1
sg55
I1
sg56
g57
sg58
I10
sg59
F0.1225
sg60
I1
sg61
I6
sg62
g22
(g26
S'\x00\x00\x00\x00\x00\xe0p@'
p2254
tp2255
Rp2256
sg66
I1
sg67
F0.2
sg68
g69
sg72
I15
sa(dp2257
g4
I20
sg5
F0.3
sg6
F0.2
sg7
F0.05
sg8
F0.4
sg9
I8
sg10
I8
sg11
F0.99
sg12
F0.4
sg13
I64
sg14
F0.15
sg15
I0
sg16
I2
sg17
F1.2
sg18
F0.125
sg19
F0.9
sg20
I1
sg21
g22
(g26
S'\x00\x00\x00\x00\x00\x00"@'
p2258
tp2259
Rp2260
sg32
I6
sg33
I0
sg34
I512
sg35
F0.8
sg36
F0.15
sg37
I1024
sg38
F0.125
sg39
g22
(g26
S'333333\xc3?'
p2261
tp2262
Rp2263
sg43
F0.25
sg44
I2
sg45
F0.2
sg46
F0.1
sg47
F0.6
sg48
I6
sg49
I12
sg50
g22
(g26
S'\x9a\x99\x99\x99\x99\x99\xb9?'
p2264
tp2265
Rp2266
sg54
I1
sg55
I1
sg56
g57
sg58
I10
sg59
F0.1225
sg60
I1
sg61
I6
sg62
g22
(g26
S'\x00\x00\x00\x00\x00\xe0p@'
p2267
tp2268
Rp2269
sg66
I1
sg67
F0.2
sg68
g69
sg72
I15
sa(dp2270
g4
I20
sg5
F0.3
sg6
F0.2
sg7
F0.05
sg8
F0.4
sg9
I8
sg10
I8
sg11
F0.99
sg12
F0.4
sg13
I64
sg14
F0.15
sg15
I0
sg16
I2
sg17
F1.2
sg18
F0.125
sg19
F0.9
sg20
I1
sg21
g22
(g26
S'\x00\x00\x00\x00\x00\x00$@'
p2271
tp2272
Rp2273
sg32
I6
sg33
I1
sg34
I512
sg35
F0.8
sg36
F0.15
sg37
I1024
sg38
F0.125
sg39
g22
(g26
S'\x9a\x99\x99\x99\x99\x99\xb9\xbf'
p2274
tp2275
Rp2276
sg43
F0.25
sg44
I2
sg45
F0.2
sg46
F0.1
sg47
F0.6
sg48
I6
sg49
I12
sg50
g22
(g26
S'333333\xc3\xbf'
p2277
tp2278
Rp2279
sg54
I1
sg55
I1
sg56
g57
sg58
I10
sg59
F0.1225
sg60
I1
sg61
I6
sg62
g22
(g26
S'\x00\x00\x00\x00\x00\xe0p@'
p2280
tp2281
Rp2282
sg66
I1
sg67
F0.2
sg68
g69
sg72
I15
sa(dp2283
g4
I20
sg5
F0.3
sg6
F0.2
sg7
F0.05
sg8
F0.4
sg9
I8
sg10
I8
sg11
F0.99
sg12
F0.4
sg13
I64
sg14
F0.15
sg15
I0
sg16
I2
sg17
F1.2
sg18
F0.125
sg19
F0.9
sg20
I1
sg21
g22
(g26
S'\x00\x00\x00\x00\x00\x00&@'
p2284
tp2285
Rp2286
sg32
I6
sg33
I0
sg34
I512
sg35
F0.8
sg36
F0.15
sg37
I1024
sg38
F0.125
sg39
g22
(g26
S'\x9a\x99\x99\x99\x99\x99\xa9\xbf'
p2287
tp2288
Rp2289
sg43
F0.25
sg44
I2
sg45
F0.2
sg46
F0.1
sg47
F0.6
sg48
I6
sg49
I12
sg50
g22
(g26
S'333333\xb3?'
p2290
tp2291
Rp2292
sg54
I1
sg55
I1
sg56
g57
sg58
I10
sg59
F0.1225
sg60
I1
sg61
I6
sg62
g22
(g26
S'\x00\x00\x00\x00\x00\xe0p@'
p2293
tp2294
Rp2295
sg66
I1
sg67
F0.2
sg68
g69
sg72
I15
sa(dp2296
g4
I20
sg5
F0.3
sg6
F0.2
sg7
F0.05
sg8
F0.4
sg9
I8
sg10
I8
sg11
F0.99
sg12
F0.4
sg13
I64
sg14
F0.15
sg15
I0
sg16
I2
sg17
F1.2
sg18
F0.125
sg19
F0.9
sg20
I1
sg21
g22
(g26
S'\x00\x00\x00\x00\x00\x00(@'
p2297
tp2298
Rp2299
sg32
I6
sg33
I0
sg34
I512
sg35
F0.8
sg36
F0.15
sg37
I1024
sg38
F0.125
sg39
g22
(g26
S'333333\xc3\xbf'
p2300
tp2301
Rp2302
sg43
F0.25
sg44
I2
sg45
F0.2
sg46
F0.1
sg47
F0.6
sg48
I6
sg49
I12
sg50
g22
(g26
S'\x9a\x99\x99\x99\x99\x99\xb9?'
p2303
tp2304
Rp2305
sg54
I1
sg55
I1
sg56
g57
sg58
I10
sg59
F0.1225
sg60
I1
sg61
I6
sg62
g22
(g26
S'\x00\x00\x00\x00\x00\xe0p@'
p2306
tp2307
Rp2308
sg66
I1
sg67
F0.2
sg68
g69
sg72
I15
sa(dp2309
g4
I20
sg5
F0.3
sg6
F0.2
sg7
F0.05
sg8
F0.4
sg9
I8
sg10
I8
sg11
F0.99
sg12
F0.4
sg13
I64
sg14
F0.15
sg15
I0
sg16
I2
sg17
F1.2
sg18
F0.125
sg19
F0.9
sg20
I1
sg21
g22
(g26
S'\x00\x00\x00\x00\x00\x00*@'
p2310
tp2311
Rp2312
sg32
I6
sg33
I1
sg34
I512
sg35
F0.8
sg36
F0.15
sg37
I1024
sg38
F0.125
sg39
g22
(g26
S'\x00\x00\x00\x00\x00\x00\xc0\xbf'
p2313
tp2314
Rp2315
sg43
F0.25
sg44
I2
sg45
F0.2
sg46
F0.1
sg47
F0.6
sg48
I6
sg49
I12
sg50
g22
(g26
S'\x99\x99\x99\x99\x99\x99\x99\xbf'
p2316
tp2317
Rp2318
sg54
I1
sg55
I1
sg56
g57
sg58
I10
sg59
F0.1225
sg60
I1
sg61
I6
sg62
g22
(g26
S'\x00\x00\x00\x00\x00\xe0p@'
p2319
tp2320
Rp2321
sg66
I1
sg67
F0.2
sg68
g69
sg72
I15
sa(dp2322
g4
I20
sg5
F0.3
sg6
F0.2
sg7
F0.05
sg8
F0.4
sg9
I8
sg10
I8
sg11
F0.99
sg12
F0.4
sg13
I64
sg14
F0.15
sg15
I0
sg16
I2
sg17
F1.2
sg18
F0.125
sg19
F0.9
sg20
I1
sg21
g22
(g26
S'\x00\x00\x00\x00\x00\x00,@'
p2323
tp2324
Rp2325
sg32
I6
sg33
I0
sg34
I512
sg35
F0.8
sg36
F0.15
sg37
I1024
sg38
F0.125
sg39
g22
(g26
S'333333\xb3?'
p2326
tp2327
Rp2328
sg43
F0.25
sg44
I2
sg45
F0.2
sg46
F0.1
sg47
F0.6
sg48
I6
sg49
I12
sg50
g22
(g26
S'\x00\x00\x00\x00\x00\x00\xc0\xbf'
p2329
tp2330
Rp2331
sg54
I1
sg55
I1
sg56
g57
sg58
I10
sg59
F0.1225
sg60
I1
sg61
I6
sg62
g22
(g26
S'\x00\x00\x00\x00\x00\xe0p@'
p2332
tp2333
Rp2334
sg66
I1
sg67
F0.2
sg68
g69
sg72
I15
sa(dp2335
g4
I20
sg5
F0.3
sg6
F0.2
sg7
F0.05
sg8
F0.4
sg9
I8
sg10
I8
sg11
F0.99
sg12
F0.4
sg13
I64
sg14
F0.15
sg15
I0
sg16
I2
sg17
F1.2
sg18
F0.125
sg19
F0.9
sg20
I1
sg21
g22
(g26
S'\x00\x00\x00\x00\x00\x00.@'
p2336
tp2337
Rp2338
sg32
I6
sg33
I-1
sg34
I512
sg35
F0.8
sg36
F0.15
sg37
I1024
sg38
F0.125
sg39
g22
(g26
S'\x9a\x99\x99\x99\x99\x99\xb9?'
p2339
tp2340
Rp2341
sg43
F0.25
sg44
I2
sg45
F0.2
sg46
F0.1
sg47
F0.6
sg48
I6
sg49
I12
sg50
g22
(g26
S'\x9a\x99\x99\x99\x99\x99\xb9?'
p2342
tp2343
Rp2344
sg54
I1
sg55
I1
sg56
g57
sg58
I10
sg59
F0.1225
sg60
I1
sg61
I6
sg62
g22
(g26
S'\x00\x00\x00\x00\x00\xe0p@'
p2345
tp2346
Rp2347
sg66
I1
sg67
F0.2
sg68
g69
sg72
I15
sa(dp2348
g4
I20
sg5
F0.3
sg6
F0.2
sg7
F0.05
sg8
F0.4
sg9
I8
sg10
I8
sg11
F0.99
sg12
F0.4
sg13
I64
sg14
F0.15
sg15
I0
sg16
I2
sg17
F1.2
sg18
F0.125
sg19
F0.9
sg20
I1
sg21
g22
(g26
S'\x00\x00\x00\x00\x00\x000@'
p2349
tp2350
Rp2351
sg32
I6
sg33
I0
sg34
I512
sg35
F0.8
sg36
F0.15
sg37
I1024
sg38
F0.125
sg39
g22
(g26
S'333333\xc3?'
p2352
tp2353
Rp2354
sg43
F0.25
sg44
I2
sg45
F0.2
sg46
F0.1
sg47
F0.6
sg48
I6
sg49
I12
sg50
g22
(g26
S'\x99\x99\x99\x99\x99\x99\x99?'
p2355
tp2356
Rp2357
sg54
I1
sg55
I1
sg56
g57
sg58
I10
sg59
F0.1225
sg60
I1
sg61
I6
sg62
g22
(g26
S'\x00\x00\x00\x00\x00\xe0p@'
p2358
tp2359
Rp2360
sg66
I1
sg67
F0.2
sg68
g69
sg72
I15
sa(dp2361
g4
I20
sg5
F0.3
sg6
F0.2
sg7
F0.05
sg8
F0.4
sg9
I8
sg10
I8
sg11
F0.99
sg12
F0.4
sg13
I64
sg14
F0.15
sg15
I0
sg16
I2
sg17
F1.2
sg18
F0.125
sg19
F0.9
sg20
I1
sg21
g22
(g26
S'\x00\x00\x00\x00\x00\x001@'
p2362
tp2363
Rp2364
sg32
I6
sg33
I1
sg34
I512
sg35
F0.8
sg36
F0.15
sg37
I1024
sg38
F0.125
sg39
g22
(g26
S'\x99\x99\x99\x99\x99\x99\x99?'
p2365
tp2366
Rp2367
sg43
F0.25
sg44
I2
sg45
F0.2
sg46
F0.1
sg47
F0.6
sg48
I6
sg49
I12
sg50
g22
(g26
S'333333\xb3\xbf'
p2368
tp2369
Rp2370
sg54
I1
sg55
I1
sg56
g57
sg58
I10
sg59
F0.1225
sg60
I1
sg61
I6
sg62
g22
(g26
S'\x00\x00\x00\x00\x00\xe0p@'
p2371
tp2372
Rp2373
sg66
I1
sg67
F0.2
sg68
g69
sg72
I15
sa(dp2374
g4
I20
sg5
F0.3
sg6
F0.2
sg7
F0.05
sg8
F0.4
sg9
I8
sg10
I8
sg11
F0.99
sg12
F0.4
sg13
I64
sg14
F0.15
sg15
I0
sg16
I2
sg17
F1.2
sg18
F0.125
sg19
F0.9
sg20
I1
sg21
g22
(g26
S'\x00\x00\x00\x00\x00\x002@'
p2375
tp2376
Rp2377
sg32
I6
sg33
I0
sg34
I512
sg35
F0.8
sg36
F0.15
sg37
I1024
sg38
F0.125
sg39
g22
(g26
S'333333\xb3\xbf'
p2378
tp2379
Rp2380
sg43
F0.25
sg44
I2
sg45
F0.2
sg46
F0.1
sg47
F0.6
sg48
I6
sg49
I12
sg50
g22
(g26
S'333333\xc3?'
p2381
tp2382
Rp2383
sg54
I1
sg55
I1
sg56
g57
sg58
I10
sg59
F0.1225
sg60
I1
sg61
I6
sg62
g22
(g26
S'\x00\x00\x00\x00\x00\xe0p@'
p2384
tp2385
Rp2386
sg66
I1
sg67
F0.2
sg68
g69
sg72
I15
sa(dp2387
g4
I20
sg5
F0.3
sg6
F0.2
sg7
F0.05
sg8
F0.4
sg9
I8
sg10
I8
sg11
F0.99
sg12
F0.4
sg13
I64
sg14
F0.15
sg15
I0
sg16
I2
sg17
F1.2
sg18
F0.125
sg19
F0.9
sg20
I1
sg21
g22
(g26
S'\x00\x00\x00\x00\x00\x003@'
p2388
tp2389
Rp2390
sg32
I6
sg33
I1
sg34
I512
sg35
F0.8
sg36
F0.15
sg37
I1024
sg38
F0.125
sg39
g22
(g26
S'333333\xb3\xbf'
p2391
tp2392
Rp2393
sg43
F0.25
sg44
I2
sg45
F0.2
sg46
F0.1
sg47
F0.6
sg48
I6
sg49
I12
sg50
g22
(g26
S'333333\xb3\xbf'
p2394
tp2395
Rp2396
sg54
I1
sg55
I1
sg56
g57
sg58
I10
sg59
F0.1225
sg60
I1
sg61
I6
sg62
g22
(g26
S'\x00\x00\x00\x00\x00\xe0p@'
p2397
tp2398
Rp2399
sg66
I1
sg67
F0.2
sg68
g69
sg72
I15
sa(dp2400
g4
I20
sg5
F0.3
sg6
F0.2
sg7
F0.05
sg8
F0.4
sg9
I8
sg10
I8
sg11
F0.99
sg12
F0.4
sg13
I64
sg14
F0.15
sg15
I0
sg16
I2
sg17
F1.2
sg18
F0.125
sg19
F0.9
sg20
I1
sg21
g22
(g26
S'\x00\x00\x00\x00\x00\x00\x00\x00'
p2401
tp2402
Rp2403
sg32
I6
sg33
I1
sg34
I512
sg35
F0.8
sg36
F0.15
sg37
I1024
sg38
F0.125
sg39
g22
(g26
S'\x00\x00\x00\x00\x00\x00\xc0\xbf'
p2404
tp2405
Rp2406
sg43
F0.25
sg44
I2
sg45
F0.2
sg46
F0.1
sg47
F0.6
sg48
I6
sg49
I12
sg50
g22
(g26
S'\x9a\x99\x99\x99\x99\x99\xb9\xbf'
p2407
tp2408
Rp2409
sg54
I1
sg55
I1
sg56
g57
sg58
I10
sg59
F0.1225
sg60
I1
sg61
I6
sg62
g22
(g26
S'\x00\x00\x00\x00\x00\xe0`@'
p2410
tp2411
Rp2412
sg66
I1
sg67
F0.2
sg68
g69
sg72
I15
sa(dp2413
g4
I20
sg5
F0.3
sg6
F0.2
sg7
F0.05
sg8
F0.4
sg9
I8
sg10
I8
sg11
F0.99
sg12
F0.4
sg13
I64
sg14
F0.15
sg15
I0
sg16
I2
sg17
F1.2
sg18
F0.125
sg19
F0.9
sg20
I1
sg21
g22
(g26
S'\x00\x00\x00\x00\x00\x00\xf0?'
p2414
tp2415
Rp2416
sg32
I6
sg33
I0
sg34
I512
sg35
F0.8
sg36
F0.15
sg37
I1024
sg38
F0.125
sg39
g22
(g26
S'\x9a\x99\x99\x99\x99\x99\xb9?'
p2417
tp2418
Rp2419
sg43
F0.25
sg44
I2
sg45
F0.2
sg46
F0.1
sg47
F0.6
sg48
I6
sg49
I12
sg50
g22
(g26
S'\x9a\x99\x99\x99\x99\x99\xb9\xbf'
p2420
tp2421
Rp2422
sg54
I1
sg55
I1
sg56
g57
sg58
I10
sg59
F0.1225
sg60
I1
sg61
I6
sg62
g22
(g26
S'\x00\x00\x00\x00\x00\xe0`@'
p2423
tp2424
Rp2425
sg66
I1
sg67
F0.2
sg68
g69
sg72
I15
sa(dp2426
g4
I20
sg5
F0.3
sg6
F0.2
sg7
F0.05
sg8
F0.4
sg9
I8
sg10
I8
sg11
F0.99
sg12
F0.4
sg13
I64
sg14
F0.15
sg15
I0
sg16
I2
sg17
F1.2
sg18
F0.125
sg19
F0.9
sg20
I1
sg21
g22
(g26
S'\x00\x00\x00\x00\x00\x00\x00@'
p2427
tp2428
Rp2429
sg32
I6
sg33
I0
sg34
I512
sg35
F0.8
sg36
F0.15
sg37
I1024
sg38
F0.125
sg39
g22
(g26
S'\x99\x99\x99\x99\x99\x99\x99?'
p2430
tp2431
Rp2432
sg43
F0.25
sg44
I2
sg45
F0.2
sg46
F0.1
sg47
F0.6
sg48
I6
sg49
I12
sg50
g22
(g26
S'\x9a\x99\x99\x99\x99\x99\xb9?'
p2433
tp2434
Rp2435
sg54
I1
sg55
I1
sg56
g57
sg58
I10
sg59
F0.1225
sg60
I1
sg61
I6
sg62
g22
(g26
S'\x00\x00\x00\x00\x00\xe0`@'
p2436
tp2437
Rp2438
sg66
I1
sg67
F0.2
sg68
g69
sg72
I15
sa(dp2439
g4
I20
sg5
F0.3
sg6
F0.2
sg7
F0.05
sg8
F0.4
sg9
I8
sg10
I8
sg11
F0.99
sg12
F0.4
sg13
I64
sg14
F0.15
sg15
I0
sg16
I2
sg17
F1.2
sg18
F0.125
sg19
F0.9
sg20
I1
sg21
g22
(g26
S'\x00\x00\x00\x00\x00\x00\x08@'
p2440
tp2441
Rp2442
sg32
I6
sg33
I-1
sg34
I512
sg35
F0.8
sg36
F0.15
sg37
I1024
sg38
F0.125
sg39
g22
(g26
S'333333\xc3?'
p2443
tp2444
Rp2445
sg43
F0.25
sg44
I2
sg45
F0.2
sg46
F0.1
sg47
F0.6
sg48
I6
sg49
I12
sg50
g22
(g26
S'\x9a\x99\x99\x99\x99\x99\xb9\xbf'
p2446
tp2447
Rp2448
sg54
I1
sg55
I1
sg56
g57
sg58
I10
sg59
F0.1225
sg60
I1
sg61
I6
sg62
g22
(g26
S'\x00\x00\x00\x00\x00\xe0`@'
p2449
tp2450
Rp2451
sg66
I1
sg67
F0.2
sg68
g69
sg72
I15
sa(dp2452
g4
I20
sg5
F0.3
sg6
F0.2
sg7
F0.05
sg8
F0.4
sg9
I8
sg10
I8
sg11
F0.99
sg12
F0.4
sg13
I64
sg14
F0.15
sg15
I0
sg16
I2
sg17
F1.2
sg18
F0.125
sg19
F0.9
sg20
I1
sg21
g22
(g26
S'\x00\x00\x00\x00\x00\x00\x10@'
p2453
tp2454
Rp2455
sg32
I6
sg33
I1
sg34
I512
sg35
F0.8
sg36
F0.15
sg37
I1024
sg38
F0.125
sg39
g22
(g26
S'\x99\x99\x99\x99\x99\x99\x99\xbf'
p2456
tp2457
Rp2458
sg43
F0.25
sg44
I2
sg45
F0.2
sg46
F0.1
sg47
F0.6
sg48
I6
sg49
I12
sg50
g22
(g26
S'333333\xc3?'
p2459
tp2460
Rp2461
sg54
I1
sg55
I1
sg56
g57
sg58
I10
sg59
F0.1225
sg60
I1
sg61
I6
sg62
g22
(g26
S'\x00\x00\x00\x00\x00\xe0`@'
p2462
tp2463
Rp2464
sg66
I1
sg67
F0.2
sg68
g69
sg72
I15
sa(dp2465
g4
I20
sg5
F0.3
sg6
F0.2
sg7
F0.05
sg8
F0.4
sg9
I8
sg10
I8
sg11
F0.99
sg12
F0.4
sg13
I64
sg14
F0.15
sg15
I0
sg16
I2
sg17
F1.2
sg18
F0.125
sg19
F0.9
sg20
I1
sg21
g22
(g26
S'\x00\x00\x00\x00\x00\x00\x14@'
p2466
tp2467
Rp2468
sg32
I6
sg33
I1
sg34
I512
sg35
F0.8
sg36
F0.15
sg37
I1024
sg38
F0.125
sg39
g22
(g26
S'\x9a\x99\x99\x99\x99\x99\xa9\xbf'
p2469
tp2470
Rp2471
sg43
F0.25
sg44
I2
sg45
F0.2
sg46
F0.1
sg47
F0.6
sg48
I6
sg49
I12
sg50
g22
(g26
S'\x9a\x99\x99\x99\x99\x99\xb9\xbf'
p2472
tp2473
Rp2474
sg54
I1
sg55
I1
sg56
g57
sg58
I10
sg59
F0.1225
sg60
I1
sg61
I6
sg62
g22
(g26
S'\x00\x00\x00\x00\x00\xe0`@'
p2475
tp2476
Rp2477
sg66
I1
sg67
F0.2
sg68
g69
sg72
I15
sa(dp2478
g4
I20
sg5
F0.3
sg6
F0.2
sg7
F0.05
sg8
F0.4
sg9
I8
sg10
I8
sg11
F0.99
sg12
F0.4
sg13
I64
sg14
F0.15
sg15
I0
sg16
I2
sg17
F1.2
sg18
F0.125
sg19
F0.9
sg20
I1
sg21
g22
(g26
S'\x00\x00\x00\x00\x00\x00\x18@'
p2479
tp2480
Rp2481
sg32
I6
sg33
I1
sg34
I512
sg35
F0.8
sg36
F0.15
sg37
I1024
sg38
F0.125
sg39
g22
(g26
S'\x99\x99\x99\x99\x99\x99\x99?'
p2482
tp2483
Rp2484
sg43
F0.25
sg44
I2
sg45
F0.2
sg46
F0.1
sg47
F0.6
sg48
I6
sg49
I12
sg50
g22
(g26
S'333333\xb3\xbf'
p2485
tp2486
Rp2487
sg54
I1
sg55
I1
sg56
g57
sg58
I10
sg59
F0.1225
sg60
I1
sg61
I6
sg62
g22
(g26
S'\x00\x00\x00\x00\x00\xe0`@'
p2488
tp2489
Rp2490
sg66
I1
sg67
F0.2
sg68
g69
sg72
I15
sa(dp2491
g4
I20
sg5
F0.3
sg6
F0.2
sg7
F0.05
sg8
F0.4
sg9
I8
sg10
I8
sg11
F0.99
sg12
F0.4
sg13
I64
sg14
F0.15
sg15
I0
sg16
I2
sg17
F1.2
sg18
F0.125
sg19
F0.9
sg20
I1
sg21
g22
(g26
S'\x00\x00\x00\x00\x00\x00\x1c@'
p2492
tp2493
Rp2494
sg32
I6
sg33
I0
sg34
I512
sg35
F0.8
sg36
F0.15
sg37
I1024
sg38
F0.125
sg39
g22
(g26
S'\x9a\x99\x99\x99\x99\x99\xb9\xbf'
p2495
tp2496
Rp2497
sg43
F0.25
sg44
I2
sg45
F0.2
sg46
F0.1
sg47
F0.6
sg48
I6
sg49
I12
sg50
g22
(g26
S'\x00\x00\x00\x00\x00\x00\xc0?'
p2498
tp2499
Rp2500
sg54
I1
sg55
I1
sg56
g57
sg58
I10
sg59
F0.1225
sg60
I1
sg61
I6
sg62
g22
(g26
S'\x00\x00\x00\x00\x00\xe0`@'
p2501
tp2502
Rp2503
sg66
I1
sg67
F0.2
sg68
g69
sg72
I15
sa(dp2504
g4
I20
sg5
F0.3
sg6
F0.2
sg7
F0.05
sg8
F0.4
sg9
I8
sg10
I8
sg11
F0.99
sg12
F0.4
sg13
I64
sg14
F0.15
sg15
I0
sg16
I2
sg17
F1.2
sg18
F0.125
sg19
F0.9
sg20
I1
sg21
g22
(g26
S'\x00\x00\x00\x00\x00\x00 @'
p2505
tp2506
Rp2507
sg32
I6
sg33
I0
sg34
I512
sg35
F0.8
sg36
F0.15
sg37
I1024
sg38
F0.125
sg39
g22
(g26
S'333333\xc3\xbf'
p2508
tp2509
Rp2510
sg43
F0.25
sg44
I2
sg45
F0.2
sg46
F0.1
sg47
F0.6
sg48
I6
sg49
I12
sg50
g22
(g26
S'\x9a\x99\x99\x99\x99\x99\xa9?'
p2511
tp2512
Rp2513
sg54
I1
sg55
I1
sg56
g57
sg58
I10
sg59
F0.1225
sg60
I1
sg61
I6
sg62
g22
(g26
S'\x00\x00\x00\x00\x00\xe0`@'
p2514
tp2515
Rp2516
sg66
I1
sg67
F0.2
sg68
g69
sg72
I15
sa(dp2517
g4
I20
sg5
F0.3
sg6
F0.2
sg7
F0.05
sg8
F0.4
sg9
I8
sg10
I8
sg11
F0.99
sg12
F0.4
sg13
I64
sg14
F0.15
sg15
I0
sg16
I2
sg17
F1.2
sg18
F0.125
sg19
F0.9
sg20
I1
sg21
g22
(g26
S'\x00\x00\x00\x00\x00\x00"@'
p2518
tp2519
Rp2520
sg32
I6
sg33
I1
sg34
I512
sg35
F0.8
sg36
F0.15
sg37
I1024
sg38
F0.125
sg39
g22
(g26
S'\x00\x00\x00\x00\x00\x00\xc0\xbf'
p2521
tp2522
Rp2523
sg43
F0.25
sg44
I2
sg45
F0.2
sg46
F0.1
sg47
F0.6
sg48
I6
sg49
I12
sg50
g22
(g26
S'\x9a\x99\x99\x99\x99\x99\xb9\xbf'
p2524
tp2525
Rp2526
sg54
I1
sg55
I1
sg56
g57
sg58
I10
sg59
F0.1225
sg60
I1
sg61
I6
sg62
g22
(g26
S'\x00\x00\x00\x00\x00\xe0`@'
p2527
tp2528
Rp2529
sg66
I1
sg67
F0.2
sg68
g69
sg72
I15
sa(dp2530
g4
I20
sg5
F0.3
sg6
F0.2
sg7
F0.05
sg8
F0.4
sg9
I8
sg10
I8
sg11
F0.99
sg12
F0.4
sg13
I64
sg14
F0.15
sg15
I0
sg16
I2
sg17
F1.2
sg18
F0.125
sg19
F0.9
sg20
I1
sg21
g22
(g26
S'\x00\x00\x00\x00\x00\x00$@'
p2531
tp2532
Rp2533
sg32
I6
sg33
I1
sg34
I512
sg35
F0.8
sg36
F0.15
sg37
I1024
sg38
F0.125
sg39
g22
(g26
S'\x9a\x99\x99\x99\x99\x99\xb9?'
p2534
tp2535
Rp2536
sg43
F0.25
sg44
I2
sg45
F0.2
sg46
F0.1
sg47
F0.6
sg48
I6
sg49
I12
sg50
g22
(g26
S'333333\xc3?'
p2537
tp2538
Rp2539
sg54
I1
sg55
I1
sg56
g57
sg58
I10
sg59
F0.1225
sg60
I1
sg61
I6
sg62
g22
(g26
S'\x00\x00\x00\x00\x00\xe0`@'
p2540
tp2541
Rp2542
sg66
I1
sg67
F0.2
sg68
g69
sg72
I15
sa(dp2543
g4
I20
sg5
F0.3
sg6
F0.2
sg7
F0.05
sg8
F0.4
sg9
I8
sg10
I8
sg11
F0.99
sg12
F0.4
sg13
I64
sg14
F0.15
sg15
I0
sg16
I2
sg17
F1.2
sg18
F0.125
sg19
F0.9
sg20
I1
sg21
g22
(g26
S'\x00\x00\x00\x00\x00\x00&@'
p2544
tp2545
Rp2546
sg32
I6
sg33
I-1
sg34
I512
sg35
F0.8
sg36
F0.15
sg37
I1024
sg38
F0.125
sg39
g22
(g26
S'\x9a\x99\x99\x99\x99\x99\xb9\xbf'
p2547
tp2548
Rp2549
sg43
F0.25
sg44
I2
sg45
F0.2
sg46
F0.1
sg47
F0.6
sg48
I6
sg49
I12
sg50
g22
(g26
S'\x99\x99\x99\x99\x99\x99\x99\xbf'
p2550
tp2551
Rp2552
sg54
I1
sg55
I1
sg56
g57
sg58
I10
sg59
F0.1225
sg60
I1
sg61
I6
sg62
g22
(g26
S'\x00\x00\x00\x00\x00\xe0`@'
p2553
tp2554
Rp2555
sg66
I1
sg67
F0.2
sg68
g69
sg72
I15
sa(dp2556
g4
I20
sg5
F0.3
sg6
F0.2
sg7
F0.05
sg8
F0.4
sg9
I8
sg10
I8
sg11
F0.99
sg12
F0.4
sg13
I64
sg14
F0.15
sg15
I0
sg16
I2
sg17
F1.2
sg18
F0.125
sg19
F0.9
sg20
I1
sg21
g22
(g26
S'\x00\x00\x00\x00\x00\x00(@'
p2557
tp2558
Rp2559
sg32
I6
sg33
I1
sg34
I512
sg35
F0.8
sg36
F0.15
sg37
I1024
sg38
F0.125
sg39
g22
(g26
S'333333\xc3?'
p2560
tp2561
Rp2562
sg43
F0.25
sg44
I2
sg45
F0.2
sg46
F0.1
sg47
F0.6
sg48
I6
sg49
I12
sg50
g22
(g26
S'333333\xc3?'
p2563
tp2564
Rp2565
sg54
I1
sg55
I1
sg56
g57
sg58
I10
sg59
F0.1225
sg60
I1
sg61
I6
sg62
g22
(g26
S'\x00\x00\x00\x00\x00\xe0`@'
p2566
tp2567
Rp2568
sg66
I1
sg67
F0.2
sg68
g69
sg72
I15
sa(dp2569
g4
I20
sg5
F0.3
sg6
F0.2
sg7
F0.05
sg8
F0.4
sg9
I8
sg10
I8
sg11
F0.99
sg12
F0.4
sg13
I64
sg14
F0.15
sg15
I0
sg16
I2
sg17
F1.2
sg18
F0.125
sg19
F0.9
sg20
I1
sg21
g22
(g26
S'\x00\x00\x00\x00\x00\x00*@'
p2570
tp2571
Rp2572
sg32
I6
sg33
I0
sg34
I512
sg35
F0.8
sg36
F0.15
sg37
I1024
sg38
F0.125
sg39
g22
(g26
S'\x00\x00\x00\x00\x00\x00\xc0\xbf'
p2573
tp2574
Rp2575
sg43
F0.25
sg44
I2
sg45
F0.2
sg46
F0.1
sg47
F0.6
sg48
I6
sg49
I12
sg50
g22
(g26
S'333333\xc3?'
p2576
tp2577
Rp2578
sg54
I1
sg55
I1
sg56
g57
sg58
I10
sg59
F0.1225
sg60
I1
sg61
I6
sg62
g22
(g26
S'\x00\x00\x00\x00\x00\xe0`@'
p2579
tp2580
Rp2581
sg66
I1
sg67
F0.2
sg68
g69
sg72
I15
sa(dp2582
g4
I20
sg5
F0.3
sg6
F0.2
sg7
F0.05
sg8
F0.4
sg9
I8
sg10
I8
sg11
F0.99
sg12
F0.4
sg13
I64
sg14
F0.15
sg15
I0
sg16
I2
sg17
F1.2
sg18
F0.125
sg19
F0.9
sg20
I1
sg21
g22
(g26
S'\x00\x00\x00\x00\x00\x00,@'
p2583
tp2584
Rp2585
sg32
I6
sg33
I-1
sg34
I512
sg35
F0.8
sg36
F0.15
sg37
I1024
sg38
F0.125
sg39
g22
(g26
S'333333\xc3?'
p2586
tp2587
Rp2588
sg43
F0.25
sg44
I2
sg45
F0.2
sg46
F0.1
sg47
F0.6
sg48
I6
sg49
I12
sg50
g22
(g26
S'\x9a\x99\x99\x99\x99\x99\xa9\xbf'
p2589
tp2590
Rp2591
sg54
I1
sg55
I1
sg56
g57
sg58
I10
sg59
F0.1225
sg60
I1
sg61
I6
sg62
g22
(g26
S'\x00\x00\x00\x00\x00\xe0`@'
p2592
tp2593
Rp2594
sg66
I1
sg67
F0.2
sg68
g69
sg72
I15
sa(dp2595
g4
I20
sg5
F0.3
sg6
F0.2
sg7
F0.05
sg8
F0.4
sg9
I8
sg10
I8
sg11
F0.99
sg12
F0.4
sg13
I64
sg14
F0.15
sg15
I0
sg16
I2
sg17
F1.2
sg18
F0.125
sg19
F0.9
sg20
I1
sg21
g22
(g26
S'\x00\x00\x00\x00\x00\x00.@'
p2596
tp2597
Rp2598
sg32
I6
sg33
I0
sg34
I512
sg35
F0.8
sg36
F0.15
sg37
I1024
sg38
F0.125
sg39
g22
(g26
S'333333\xc3\xbf'
p2599
tp2600
Rp2601
sg43
F0.25
sg44
I2
sg45
F0.2
sg46
F0.1
sg47
F0.6
sg48
I6
sg49
I12
sg50
g22
(g26
S'\x9a\x99\x99\x99\x99\x99\xb9?'
p2602
tp2603
Rp2604
sg54
I1
sg55
I1
sg56
g57
sg58
I10
sg59
F0.1225
sg60
I1
sg61
I6
sg62
g22
(g26
S'\x00\x00\x00\x00\x00\xe0`@'
p2605
tp2606
Rp2607
sg66
I1
sg67
F0.2
sg68
g69
sg72
I15
sa(dp2608
g4
I20
sg5
F0.3
sg6
F0.2
sg7
F0.05
sg8
F0.4
sg9
I8
sg10
I8
sg11
F0.99
sg12
F0.4
sg13
I64
sg14
F0.15
sg15
I0
sg16
I2
sg17
F1.2
sg18
F0.125
sg19
F0.9
sg20
I1
sg21
g22
(g26
S'\x00\x00\x00\x00\x00\x000@'
p2609
tp2610
Rp2611
sg32
I6
sg33
I1
sg34
I512
sg35
F0.8
sg36
F0.15
sg37
I1024
sg38
F0.125
sg39
g22
(g26
S'\x00\x00\x00\x00\x00\x00\xc0?'
p2612
tp2613
Rp2614
sg43
F0.25
sg44
I2
sg45
F0.2
sg46
F0.1
sg47
F0.6
sg48
I6
sg49
I12
sg50
g22
(g26
S'333333\xc3\xbf'
p2615
tp2616
Rp2617
sg54
I1
sg55
I1
sg56
g57
sg58
I10
sg59
F0.1225
sg60
I1
sg61
I6
sg62
g22
(g26
S'\x00\x00\x00\x00\x00\xe0`@'
p2618
tp2619
Rp2620
sg66
I1
sg67
F0.2
sg68
g69
sg72
I15
sa(dp2621
g4
I20
sg5
F0.3
sg6
F0.2
sg7
F0.05
sg8
F0.4
sg9
I8
sg10
I8
sg11
F0.99
sg12
F0.4
sg13
I64
sg14
F0.15
sg15
I0
sg16
I2
sg17
F1.2
sg18
F0.125
sg19
F0.9
sg20
I1
sg21
g22
(g26
S'\x00\x00\x00\x00\x00\x001@'
p2622
tp2623
Rp2624
sg32
I6
sg33
I0
sg34
I512
sg35
F0.8
sg36
F0.15
sg37
I1024
sg38
F0.125
sg39
g22
(g26
S'\x99\x99\x99\x99\x99\x99\x99?'
p2625
tp2626
Rp2627
sg43
F0.25
sg44
I2
sg45
F0.2
sg46
F0.1
sg47
F0.6
sg48
I6
sg49
I12
sg50
g22
(g26
S'333333\xc3?'
p2628
tp2629
Rp2630
sg54
I1
sg55
I1
sg56
g57
sg58
I10
sg59
F0.1225
sg60
I1
sg61
I6
sg62
g22
(g26
S'\x00\x00\x00\x00\x00\xe0`@'
p2631
tp2632
Rp2633
sg66
I1
sg67
F0.2
sg68
g69
sg72
I15
sa(dp2634
g4
I20
sg5
F0.3
sg6
F0.2
sg7
F0.05
sg8
F0.4
sg9
I8
sg10
I8
sg11
F0.99
sg12
F0.4
sg13
I64
sg14
F0.15
sg15
I0
sg16
I2
sg17
F1.2
sg18
F0.125
sg19
F0.9
sg20
I1
sg21
g22
(g26
S'\x00\x00\x00\x00\x00\x002@'
p2635
tp2636
Rp2637
sg32
I6
sg33
I1
sg34
I512
sg35
F0.8
sg36
F0.15
sg37
I1024
sg38
F0.125
sg39
g22
(g26
S'333333\xc3?'
p2638
tp2639
Rp2640
sg43
F0.25
sg44
I2
sg45
F0.2
sg46
F0.1
sg47
F0.6
sg48
I6
sg49
I12
sg50
g22
(g26
S'333333\xc3\xbf'
p2641
tp2642
Rp2643
sg54
I1
sg55
I1
sg56
g57
sg58
I10
sg59
F0.1225
sg60
I1
sg61
I6
sg62
g22
(g26
S'\x00\x00\x00\x00\x00\xe0`@'
p2644
tp2645
Rp2646
sg66
I1
sg67
F0.2
sg68
g69
sg72
I15
sa(dp2647
g4
I20
sg5
F0.3
sg6
F0.2
sg7
F0.05
sg8
F0.4
sg9
I8
sg10
I8
sg11
F0.99
sg12
F0.4
sg13
I64
sg14
F0.15
sg15
I0
sg16
I2
sg17
F1.2
sg18
F0.125
sg19
F0.9
sg20
I1
sg21
g22
(g26
S'\x00\x00\x00\x00\x00\x003@'
p2648
tp2649
Rp2650
sg32
I6
sg33
I1
sg34
I512
sg35
F0.8
sg36
F0.15
sg37
I1024
sg38
F0.125
sg39
g22
(g26
S'\x99\x99\x99\x99\x99\x99\x99\xbf'
p2651
tp2652
Rp2653
sg43
F0.25
sg44
I2
sg45
F0.2
sg46
F0.1
sg47
F0.6
sg48
I6
sg49
I12
sg50
g22
(g26
S'\x9a\x99\x99\x99\x99\x99\xa9\xbf'
p2654
tp2655
Rp2656
sg54
I1
sg55
I1
sg56
g57
sg58
I10
sg59
F0.1225
sg60
I1
sg61
I6
sg62
g22
(g26
S'\x00\x00\x00\x00\x00\xe0`@'
p2657
tp2658
Rp2659
sg66
I1
sg67
F0.2
sg68
g69
sg72
I15
sa(dp2660
g4
I20
sg5
F0.3
sg6
F0.2
sg7
F0.05
sg8
F0.4
sg9
I8
sg10
I8
sg11
F0.99
sg12
F0.4
sg13
I64
sg14
F0.15
sg15
I0
sg16
I2
sg17
F1.2
sg18
F0.125
sg19
F0.9
sg20
I1
sg21
g22
(g26
S'\x00\x00\x00\x00\x00\x00\x00\x00'
p2661
tp2662
Rp2663
sg32
I6
sg33
I-1
sg34
I512
sg35
F0.8
sg36
F0.15
sg37
I1024
sg38
F0.125
sg39
g22
(g26
S'333333\xb3?'
p2664
tp2665
Rp2666
sg43
F0.25
sg44
I2
sg45
F0.2
sg46
F0.1
sg47
F0.6
sg48
I6
sg49
I12
sg50
g22
(g26
S'333333\xb3?'
p2667
tp2668
Rp2669
sg54
I1
sg55
I1
sg56
g57
sg58
I10
sg59
F0.1225
sg60
I1
sg61
I6
sg62
g22
(g26
S'\x00\x00\x00\x00\x00\x00\xf0\xbf'
p2670
tp2671
Rp2672
sg66
I1
sg67
F0.2
sg68
g69
sg72
I15
sa(dp2673
g4
I20
sg5
F0.3
sg6
F0.2
sg7
F0.05
sg8
F0.4
sg9
I8
sg10
I8
sg11
F0.99
sg12
F0.4
sg13
I64
sg14
F0.15
sg15
I0
sg16
I2
sg17
F1.2
sg18
F0.125
sg19
F0.9
sg20
I1
sg21
g22
(g26
S'\x00\x00\x00\x00\x00\x00\xf0?'
p2674
tp2675
Rp2676
sg32
I6
sg33
I0
sg34
I512
sg35
F0.8
sg36
F0.15
sg37
I1024
sg38
F0.125
sg39
g22
(g26
S'333333\xb3?'
p2677
tp2678
Rp2679
sg43
F0.25
sg44
I2
sg45
F0.2
sg46
F0.1
sg47
F0.6
sg48
I6
sg49
I12
sg50
g22
(g26
S'\x00\x00\x00\x00\x00\x00\xc0?'
p2680
tp2681
Rp2682
sg54
I1
sg55
I1
sg56
g57
sg58
I10
sg59
F0.1225
sg60
I1
sg61
I6
sg62
g22
(g26
S'\x00\x00\x00\x00\x00\x00\xf0\xbf'
p2683
tp2684
Rp2685
sg66
I1
sg67
F0.2
sg68
g69
sg72
I15
sa(dp2686
g4
I20
sg5
F0.3
sg6
F0.2
sg7
F0.05
sg8
F0.4
sg9
I8
sg10
I8
sg11
F0.99
sg12
F0.4
sg13
I64
sg14
F0.15
sg15
I0
sg16
I2
sg17
F1.2
sg18
F0.125
sg19
F0.9
sg20
I1
sg21
g22
(g26
S'\x00\x00\x00\x00\x00\x00\x00@'
p2687
tp2688
Rp2689
sg32
I6
sg33
I0
sg34
I512
sg35
F0.8
sg36
F0.15
sg37
I1024
sg38
F0.125
sg39
g22
(g26
S'333333\xc3?'
p2690
tp2691
Rp2692
sg43
F0.25
sg44
I2
sg45
F0.2
sg46
F0.1
sg47
F0.6
sg48
I6
sg49
I12
sg50
g22
(g26
S'\x9a\x99\x99\x99\x99\x99\xb9\xbf'
p2693
tp2694
Rp2695
sg54
I1
sg55
I1
sg56
g57
sg58
I10
sg59
F0.1225
sg60
I1
sg61
I6
sg62
g22
(g26
S'\x00\x00\x00\x00\x00\x00\xf0\xbf'
p2696
tp2697
Rp2698
sg66
I1
sg67
F0.2
sg68
g69
sg72
I15
sa(dp2699
g4
I20
sg5
F0.3
sg6
F0.2
sg7
F0.05
sg8
F0.4
sg9
I8
sg10
I8
sg11
F0.99
sg12
F0.4
sg13
I64
sg14
F0.15
sg15
I0
sg16
I2
sg17
F1.2
sg18
F0.125
sg19
F0.9
sg20
I1
sg21
g22
(g26
S'\x00\x00\x00\x00\x00\x00\x08@'
p2700
tp2701
Rp2702
sg32
I6
sg33
I1
sg34
I512
sg35
F0.8
sg36
F0.15
sg37
I1024
sg38
F0.125
sg39
g22
(g26
S'333333\xb3?'
p2703
tp2704
Rp2705
sg43
F0.25
sg44
I2
sg45
F0.2
sg46
F0.1
sg47
F0.6
sg48
I6
sg49
I12
sg50
g22
(g26
S'\x9a\x99\x99\x99\x99\x99\xa9\xbf'
p2706
tp2707
Rp2708
sg54
I1
sg55
I1
sg56
g57
sg58
I10
sg59
F0.1225
sg60
I1
sg61
I6
sg62
g22
(g26
S'\x00\x00\x00\x00\x00\x00\xf0\xbf'
p2709
tp2710
Rp2711
sg66
I1
sg67
F0.2
sg68
g69
sg72
I15
sa(dp2712
g4
I20
sg5
F0.3
sg6
F0.2
sg7
F0.05
sg8
F0.4
sg9
I8
sg10
I8
sg11
F0.99
sg12
F0.4
sg13
I64
sg14
F0.15
sg15
I0
sg16
I2
sg17
F1.2
sg18
F0.125
sg19
F0.9
sg20
I1
sg21
g22
(g26
S'\x00\x00\x00\x00\x00\x00\x10@'
p2713
tp2714
Rp2715
sg32
I6
sg33
I0
sg34
I512
sg35
F0.8
sg36
F0.15
sg37
I1024
sg38
F0.125
sg39
g22
(g26
S'333333\xc3?'
p2716
tp2717
Rp2718
sg43
F0.25
sg44
I2
sg45
F0.2
sg46
F0.1
sg47
F0.6
sg48
I6
sg49
I12
sg50
g22
(g26
S'333333\xb3\xbf'
p2719
tp2720
Rp2721
sg54
I1
sg55
I1
sg56
g57
sg58
I10
sg59
F0.1225
sg60
I1
sg61
I6
sg62
g22
(g26
S'\x00\x00\x00\x00\x00\x00\xf0\xbf'
p2722
tp2723
Rp2724
sg66
I1
sg67
F0.2
sg68
g69
sg72
I15
sa(dp2725
g4
I20
sg5
F0.3
sg6
F0.2
sg7
F0.05
sg8
F0.4
sg9
I8
sg10
I8
sg11
F0.99
sg12
F0.4
sg13
I64
sg14
F0.15
sg15
I0
sg16
I2
sg17
F1.2
sg18
F0.125
sg19
F0.9
sg20
I1
sg21
g22
(g26
S'\x00\x00\x00\x00\x00\x00\x14@'
p2726
tp2727
Rp2728
sg32
I6
sg33
I1
sg34
I512
sg35
F0.8
sg36
F0.15
sg37
I1024
sg38
F0.125
sg39
g22
(g26
S'333333\xb3\xbf'
p2729
tp2730
Rp2731
sg43
F0.25
sg44
I2
sg45
F0.2
sg46
F0.1
sg47
F0.6
sg48
I6
sg49
I12
sg50
g22
(g26
S'\x00\x00\x00\x00\x00\x00\xc0\xbf'
p2732
tp2733
Rp2734
sg54
I1
sg55
I1
sg56
g57
sg58
I10
sg59
F0.1225
sg60
I1
sg61
I6
sg62
g22
(g26
S'\x00\x00\x00\x00\x00\x00\xf0\xbf'
p2735
tp2736
Rp2737
sg66
I1
sg67
F0.2
sg68
g69
sg72
I15
sa(dp2738
g4
I20
sg5
F0.3
sg6
F0.2
sg7
F0.05
sg8
F0.4
sg9
I8
sg10
I8
sg11
F0.99
sg12
F0.4
sg13
I64
sg14
F0.15
sg15
I0
sg16
I2
sg17
F1.2
sg18
F0.125
sg19
F0.9
sg20
I1
sg21
g22
(g26
S'\x00\x00\x00\x00\x00\x00\x18@'
p2739
tp2740
Rp2741
sg32
I6
sg33
I0
sg34
I512
sg35
F0.8
sg36
F0.15
sg37
I1024
sg38
F0.125
sg39
g22
(g26
S'\x00\x00\x00\x00\x00\x00\xc0?'
p2742
tp2743
Rp2744
sg43
F0.25
sg44
I2
sg45
F0.2
sg46
F0.1
sg47
F0.6
sg48
I6
sg49
I12
sg50
g22
(g26
S'333333\xc3?'
p2745
tp2746
Rp2747
sg54
I1
sg55
I1
sg56
g57
sg58
I10
sg59
F0.1225
sg60
I1
sg61
I6
sg62
g22
(g26
S'\x00\x00\x00\x00\x00\x00\xf0\xbf'
p2748
tp2749
Rp2750
sg66
I1
sg67
F0.2
sg68
g69
sg72
I15
sa(dp2751
g4
I20
sg5
F0.3
sg6
F0.2
sg7
F0.05
sg8
F0.4
sg9
I8
sg10
I8
sg11
F0.99
sg12
F0.4
sg13
I64
sg14
F0.15
sg15
I0
sg16
I2
sg17
F1.2
sg18
F0.125
sg19
F0.9
sg20
I1
sg21
g22
(g26
S'\x00\x00\x00\x00\x00\x00\x1c@'
p2752
tp2753
Rp2754
sg32
I6
sg33
I1
sg34
I512
sg35
F0.8
sg36
F0.15
sg37
I1024
sg38
F0.125
sg39
g22
(g26
S'\x99\x99\x99\x99\x99\x99\x99\xbf'
p2755
tp2756
Rp2757
sg43
F0.25
sg44
I2
sg45
F0.2
sg46
F0.1
sg47
F0.6
sg48
I6
sg49
I12
sg50
g22
(g26
S'\x9a\x99\x99\x99\x99\x99\xb9\xbf'
p2758
tp2759
Rp2760
sg54
I1
sg55
I1
sg56
g57
sg58
I10
sg59
F0.1225
sg60
I1
sg61
I6
sg62
g22
(g26
S'\x00\x00\x00\x00\x00\x00\xf0\xbf'
p2761
tp2762
Rp2763
sg66
I1
sg67
F0.2
sg68
g69
sg72
I15
sa(dp2764
g4
I20
sg5
F0.3
sg6
F0.2
sg7
F0.05
sg8
F0.4
sg9
I8
sg10
I8
sg11
F0.99
sg12
F0.4
sg13
I64
sg14
F0.15
sg15
I0
sg16
I2
sg17
F1.2
sg18
F0.125
sg19
F0.9
sg20
I1
sg21
g22
(g26
S'\x00\x00\x00\x00\x00\x00 @'
p2765
tp2766
Rp2767
sg32
I6
sg33
I0
sg34
I512
sg35
F0.8
sg36
F0.15
sg37
I1024
sg38
F0.125
sg39
g22
(g26
S'333333\xc3?'
p2768
tp2769
Rp2770
sg43
F0.25
sg44
I2
sg45
F0.2
sg46
F0.1
sg47
F0.6
sg48
I6
sg49
I12
sg50
g22
(g26
S'\x99\x99\x99\x99\x99\x99\x99\xbf'
p2771
tp2772
Rp2773
sg54
I1
sg55
I1
sg56
g57
sg58
I10
sg59
F0.1225
sg60
I1
sg61
I6
sg62
g22
(g26
S'\x00\x00\x00\x00\x00\x00\xf0\xbf'
p2774
tp2775
Rp2776
sg66
I1
sg67
F0.2
sg68
g69
sg72
I15
sa(dp2777
g4
I20
sg5
F0.3
sg6
F0.2
sg7
F0.05
sg8
F0.4
sg9
I8
sg10
I8
sg11
F0.99
sg12
F0.4
sg13
I64
sg14
F0.15
sg15
I0
sg16
I2
sg17
F1.2
sg18
F0.125
sg19
F0.9
sg20
I1
sg21
g22
(g26
S'\x00\x00\x00\x00\x00\x00"@'
p2778
tp2779
Rp2780
sg32
I6
sg33
I0
sg34
I512
sg35
F0.8
sg36
F0.15
sg37
I1024
sg38
F0.125
sg39
g22
(g26
S'\x9a\x99\x99\x99\x99\x99\xb9?'
p2781
tp2782
Rp2783
sg43
F0.25
sg44
I2
sg45
F0.2
sg46
F0.1
sg47
F0.6
sg48
I6
sg49
I12
sg50
g22
(g26
S'\x99\x99\x99\x99\x99\x99\x99?'
p2784
tp2785
Rp2786
sg54
I1
sg55
I1
sg56
g57
sg58
I10
sg59
F0.1225
sg60
I1
sg61
I6
sg62
g22
(g26
S'\x00\x00\x00\x00\x00\x00\xf0\xbf'
p2787
tp2788
Rp2789
sg66
I1
sg67
F0.2
sg68
g69
sg72
I15
sasS'eventArray'
p2790
(lp2791
(lp2792
S'trial 0 started at 7.41630601883'
p2793
aS'trial 0 phase 1 started at 10.7279789448'
p2794
aS'trial 0 event space at 10.7279999256'
p2795
aS'trial 0 phase 2 started at 10.9616520405'
p2796
aS'trial 0 phase 3 started at 11.178303957'
p2797
aa(lp2798
S'trial 1 started at 11.7401440144'
p2799
aS'trial 1 event b at 11.7643728256'
p2800
aS'trial 1 phase 1 started at 12.0449399948'
p2801
aS'trial 1 phase 2 started at 12.294978857'
p2802
aS'trial 1 phase 3 started at 12.5116209984'
p2803
aS'trial 1 event y at 12.6809668541'
p2804
aa(lp2805
S'trial 2 started at 13.0542488098'
p2806
aS'trial 2 phase 1 started at 13.3616468906'
p2807
aS'trial 2 phase 2 started at 13.6116909981'
p2808
aS'trial 2 phase 3 started at 13.8283338547'
p2809
aS'trial 2 event y at 14.0144119263'
p2810
aa(lp2811
S'trial 3 started at 14.3738758564'
p2812
aS'trial 3 phase 1 started at 14.6784148216'
p2813
aS'trial 3 phase 2 started at 14.9450519085'
p2814
aS'trial 3 phase 3 started at 15.1450538635'
p2815
aa(lp2816
S'trial 4 started at 15.7031488419'
p2817
aS'trial 4 event b at 15.7477869987'
p2818
aS'trial 4 event y at 15.8476128578'
p2819
aS'trial 4 phase 1 started at 16.0116918087'
p2820
aS'trial 4 phase 2 started at 16.2617528439'
p2821
aS'trial 4 phase 3 started at 16.4618558884'
p2822
aa(lp2823
S'trial 5 started at 17.0178949833'
p2824
aS'trial 5 event y at 17.0451729298'
p2825
aS'trial 5 phase 1 started at 17.3285098076'
p2826
aS'trial 5 phase 2 started at 17.5951349735'
p2827
aS'trial 5 phase 3 started at 17.79515481'
p2828
aa(lp2829
S'trial 6 started at 18.3424899578'
p2830
aS'trial 6 event y at 18.3618938923'
p2831
aS'trial 6 phase 1 started at 18.6452479362'
p2832
aS'trial 6 phase 2 started at 18.9117739201'
p2833
aS'trial 6 phase 3 started at 19.1118569374'
p2834
aS'trial 6 event b at 19.331193924'
p2835
aa(lp2836
S'trial 7 started at 19.6567540169'
p2837
aS'trial 7 phase 1 started at 19.9618999958'
p2838
aS'trial 7 phase 2 started at 20.2119069099'
p2839
aS'trial 7 phase 3 started at 20.4119448662'
p2840
aa(lp2841
S'trial 8 started at 20.9718558788'
p2842
aS'trial 8 event b at 20.9953229427'
p2843
aS'trial 8 phase 1 started at 21.2786250114'
p2844
aS'trial 8 phase 2 started at 21.5452809334'
p2845
aS'trial 8 phase 3 started at 21.7618649006'
p2846
aS'trial 8 event y at 21.9970068932'
p2847
aa(lp2848
S'trial 9 started at 22.3166408539'
p2849
aS'trial 9 phase 1 started at 22.6275529861'
p2850
aS'trial 9 phase 2 started at 22.8776140213'
p2851
aS'trial 9 phase 3 started at 23.0776109695'
p2852
aS'trial 9 event b at 23.3953018188'
p2853
aa(lp2854
S'trial 10 started at 23.6219229698'
p2855
aS'trial 10 phase 1 started at 23.9287099838'
p2856
aS'trial 10 phase 2 started at 24.1953849792'
p2857
aS'trial 10 phase 3 started at 24.3953959942'
p2858
aS'trial 10 event y at 24.664760828'
p2859
aa(lp2860
S'trial 11 started at 24.9535439014'
p2861
aS'trial 11 phase 1 started at 25.2620909214'
p2862
aS'trial 11 phase 2 started at 25.5287268162'
p2863
aS'trial 11 phase 3 started at 25.7289538383'
p2864
aa(lp2865
S'trial 12 started at 26.2864308357'
p2866
aS'trial 12 event y at 26.3976678848'
p2867
aS'trial 12 phase 1 started at 26.5944898129'
p2868
aS'trial 12 phase 2 started at 26.8610248566'
p2869
aS'trial 12 phase 3 started at 27.0610678196'
p2870
aS'trial 12 event b at 27.3989620209'
p2871
aa(lp2872
S'trial 13 started at 27.6042528152'
p2873
aS'trial 13 phase 1 started at 27.9121580124'
p2874
aS'trial 13 phase 2 started at 28.1787748337'
p2875
aS'trial 13 phase 3 started at 28.3954818249'
p2876
aS'trial 13 event y at 28.7806379795'
p2877
aa(lp2878
S'trial 14 started at 28.9565558434'
p2879
aS'trial 14 phase 1 started at 29.261277914'
p2880
aS'trial 14 phase 2 started at 29.5277919769'
p2881
aS'trial 14 phase 3 started at 29.7278559208'
p2882
aS'trial 14 event b at 30.0307309628'
p2883
aa(lp2884
S'trial 15 started at 30.2704629898'
p2885
aS'trial 15 phase 1 started at 30.5788419247'
p2886
aS'trial 15 phase 2 started at 30.8289220333'
p2887
aS'trial 15 phase 3 started at 31.045539856'
p2888
aS'trial 15 event b at 31.3150269985'
p2889
aa(lp2890
S'trial 16 started at 31.5869820118'
p2891
aS'trial 16 phase 1 started at 31.8955359459'
p2892
aS'trial 16 phase 2 started at 32.1456468105'
p2893
aS'trial 16 phase 3 started at 32.3622360229'
p2894
aS'trial 16 event y at 32.6149189472'
p2895
aa(lp2896
S'trial 17 started at 32.9027888775'
p2897
aS'trial 17 phase 1 started at 33.2123229504'
p2898
aS'trial 17 phase 2 started at 33.4788959026'
p2899
aS'trial 17 phase 3 started at 33.6789779663'
p2900
aS'trial 17 event y at 33.9315929413'
p2901
aa(lp2902
S'trial 18 started at 34.2202429771'
p2903
aS'trial 18 phase 1 started at 34.5290169716'
p2904
aS'trial 18 phase 2 started at 34.7790310383'
p2905
aS'trial 18 phase 3 started at 34.9956698418'
p2906
aa(lp2907
S'trial 19 started at 35.552218914'
p2908
aS'trial 19 event y at 35.5780179501'
p2909
aS'trial 19 phase 1 started at 35.861274004'
p2910
aS'trial 19 phase 2 started at 36.1113789082'
p2911
aS'trial 19 phase 3 started at 36.3280069828'
p2912
aa(lp2913
S'trial 20 started at 36.8671138287'
p2914
aS'trial 20 event b at 37.0817058086'
p2915
aS'trial 20 phase 1 started at 37.1790969372'
p2916
aS'trial 20 phase 2 started at 37.4290978909'
p2917
aS'trial 20 phase 3 started at 37.6290979385'
p2918
aa(lp2919
S'trial 21 started at 38.184899807'
p2920
aS'trial 21 event b at 38.2317228317'
p2921
aS'trial 21 phase 1 started at 38.4957699776'
p2922
aS'trial 21 phase 2 started at 38.7624568939'
p2923
aS'trial 21 phase 3 started at 38.9790468216'
p2924
aS'trial 21 event y at 39.3475039005'
p2925
aa(lp2926
S'trial 22 started at 39.5358819962'
p2927
aS'trial 22 phase 1 started at 39.8448519707'
p2928
aS'trial 22 phase 2 started at 40.0948660374'
p2929
aS'trial 22 phase 3 started at 40.3114340305'
p2930
aS'trial 22 event b at 40.7153298855'
p2931
aa(lp2932
S'trial 23 started at 40.8552498817'
p2933
aS'trial 23 phase 1 started at 41.1625800133'
p2934
aS'trial 23 phase 2 started at 41.4125978947'
p2935
aS'trial 23 phase 3 started at 41.6291370392'
p2936
aS'trial 23 event b at 41.981926918'
p2937
aa(lp2938
S'trial 24 started at 42.1724419594'
p2939
aS'trial 24 phase 1 started at 42.4792289734'
p2940
aS'trial 24 phase 2 started at 42.7459478378'
p2941
aS'trial 24 phase 3 started at 42.9625189304'
p2942
aS'trial 24 event b at 43.364166975'
p2943
aa(lp2944
S'trial 25 started at 43.502810955'
p2945
aS'trial 25 phase 1 started at 43.8115580082'
p2946
aS'trial 25 phase 2 started at 44.0616159439'
p2947
aS'trial 25 phase 3 started at 44.2782969475'
p2948
aS'trial 25 event y at 44.4976489544'
p2949
aa(lp2950
S'trial 26 started at 44.8236880302'
p2951
aS'trial 26 phase 1 started at 45.1292660236'
p2952
aS'trial 26 phase 2 started at 45.3793699741'
p2953
aS'trial 26 phase 3 started at 45.5959990025'
p2954
aa(lp2955
S'trial 27 started at 46.133754015'
p2956
aS'trial 27 event b at 46.1627418995'
p2957
aS'trial 27 phase 1 started at 46.4459729195'
p2958
aS'trial 27 phase 2 started at 46.6961069107'
p2959
aS'trial 27 phase 3 started at 46.9126930237'
p2960
aS'trial 27 event b at 47.2653329372'
p2961
aa(lp2962
S'trial 28 started at 47.4544658661'
p2963
aS'trial 28 phase 1 started at 47.7627019882'
p2964
aS'trial 28 phase 2 started at 48.0127809048'
p2965
aS'trial 28 phase 3 started at 48.2293319702'
p2966
aS'trial 28 event y at 48.5654799938'
p2967
aa(lp2968
S'trial 29 started at 48.7735910416'
p2969
aS'trial 29 phase 1 started at 49.0793688297'
p2970
aS'trial 29 phase 2 started at 49.3294889927'
p2971
aS'trial 29 phase 3 started at 49.5295000076'
p2972
aS'trial 29 event b at 49.9154498577'
p2973
aa(lp2974
S'trial 30 started at 50.0926239491'
p2975
aS'trial 30 phase 1 started at 50.3961548805'
p2976
aS'trial 30 phase 2 started at 50.6628289223'
p2977
aS'trial 30 phase 3 started at 50.8628778458'
p2978
aS'trial 30 event y at 51.1822369099'
p2979
aa(lp2980
S'trial 31 started at 51.4232828617'
p2981
aS'trial 31 phase 1 started at 51.7295470238'
p2982
aS'trial 31 phase 2 started at 51.9962158203'
p2983
aS'trial 31 phase 3 started at 52.1962339878'
p2984
aS'trial 31 event y at 52.5478680134'
p2985
aa(lp2986
S'trial 32 started at 52.7532699108'
p2987
aS'trial 32 phase 1 started at 53.0618269444'
p2988
aS'trial 32 phase 2 started at 53.3118369579'
p2989
aS'trial 32 phase 3 started at 53.5119028091'
p2990
aa(lp2991
S'trial 33 started at 54.0909478664'
p2992
aS'trial 33 event y at 54.1129238605'
p2993
aS'trial 33 phase 1 started at 54.3962118626'
p2994
aS'trial 33 phase 2 started at 54.6462750435'
p2995
aS'trial 33 phase 3 started at 54.8462898731'
p2996
aS'trial 33 event b at 55.1155500412'
p2997
aa(lp2998
S'trial 34 started at 55.4051818848'
p2999
aS'trial 34 phase 1 started at 55.7129869461'
p3000
aS'trial 34 phase 2 started at 55.9630169868'
p3001
aS'trial 34 phase 3 started at 56.1796269417'
p3002
aS'trial 34 event b at 56.4981369972'
p3003
aa(lp3004
S'trial 35 started at 56.7372310162'
p3005
aS'trial 35 phase 1 started at 57.045331955'
p3006
aS'trial 35 phase 2 started at 57.2954440117'
p3007
aS'trial 35 phase 3 started at 57.5120909214'
p3008
aS'trial 35 event y at 57.8120849133'
p3009
aa(lp3010
S'trial 36 started at 58.072357893'
p3011
aS'trial 36 phase 1 started at 58.3797428608'
p3012
aS'trial 36 phase 2 started at 58.6464350224'
p3013
aS'trial 36 phase 3 started at 58.8630058765'
p3014
aS'trial 36 event b at 59.1491479874'
p3015
aa(lp3016
S'trial 37 started at 59.4043998718'
p3017
aS'trial 37 phase 1 started at 59.7131669521'
p3018
aS'trial 37 phase 2 started at 59.9797949791'
p3019
aS'trial 37 phase 3 started at 60.1798319817'
p3020
aS'trial 37 event b at 60.4648640156'
p3021
aa(lp3022
S'trial 38 started at 60.7364079952'
p3023
aS'trial 38 phase 1 started at 61.0453648567'
p3024
aS'trial 38 phase 2 started at 61.2955749035'
p3025
aS'trial 38 phase 3 started at 61.5122318268'
p3026
aS'trial 38 event y at 61.7647750378'
p3027
aa(lp3028
S'trial 39 started at 62.0698180199'
p3029
aS'trial 39 phase 1 started at 62.3797969818'
p3030
aS'trial 39 phase 2 started at 62.6298289299'
p3031
aS'trial 39 phase 3 started at 62.8298950195'
p3032
aS'trial 39 event b at 63.0658688545'
p3033
aa(lp3034
S'trial 40 started at 63.3900549412'
p3035
aS'trial 40 phase 1 started at 63.6964299679'
p3036
aS'trial 40 phase 2 started at 63.9465258121'
p3037
aS'trial 40 phase 3 started at 64.1465640068'
p3038
aS'trial 40 event y at 64.432559967'
p3039
aa(lp3040
S'trial 41 started at 64.684401989'
p3041
aS'trial 41 phase 1 started at 64.996505022'
p3042
aS'trial 41 phase 2 started at 65.2466008663'
p3043
aS'trial 41 phase 3 started at 65.4633049965'
p3044
aS'trial 41 event b at 65.7659909725'
p3045
aa(lp3046
S'trial 42 started at 66.020993948'
p3047
aS'trial 42 phase 1 started at 66.3299388885'
p3048
aS'trial 42 phase 2 started at 66.5967099667'
p3049
aS'trial 42 phase 3 started at 66.8132958412'
p3050
aS'trial 42 event y at 67.0660209656'
p3051
aa(lp3052
S'trial 43 started at 67.354970932'
p3053
aS'trial 43 phase 1 started at 67.6632640362'
p3054
aS'trial 43 phase 2 started at 67.9133899212'
p3055
aS'trial 43 phase 3 started at 68.129956007'
p3056
aS'trial 43 event b at 68.5327038765'
p3057
aa(lp3058
S'trial 44 started at 68.6667709351'
p3059
aS'trial 44 phase 1 started at 68.9800209999'
p3060
aS'trial 44 phase 2 started at 69.2300879955'
p3061
aS'trial 44 phase 3 started at 69.4468259811'
p3062
aS'trial 44 event b at 69.8160820007'
p3063
aa(lp3064
S'trial 45 started at 70.0050530434'
p3065
aS'trial 45 phase 1 started at 70.313398838'
p3066
aS'trial 45 phase 2 started at 70.5800750256'
p3067
aS'trial 45 phase 3 started at 70.7800869942'
p3068
aS'trial 45 event y at 71.0984690189'
p3069
aa(lp3070
S'trial 46 started at 71.3362660408'
p3071
aS'trial 46 phase 1 started at 71.6457388401'
p3072
aS'trial 46 phase 2 started at 71.8958289623'
p3073
aS'trial 46 phase 3 started at 72.1124179363'
p3074
aa(lp3075
S'trial 47 started at 72.6529459953'
p3076
aS'trial 47 event y at 72.6801929474'
p3077
aS'trial 47 phase 1 started at 72.963465929'
p3078
aS'trial 47 phase 2 started at 73.2137658596'
p3079
aS'trial 47 phase 3 started at 73.4302070141'
p3080
aS'trial 47 event y at 73.832862854'
p3081
aa(lp3082
S'trial 48 started at 73.9738829136'
p3083
aS'trial 48 phase 1 started at 74.2801468372'
p3084
aS'trial 48 phase 2 started at 74.5301818848'
p3085
aS'trial 48 phase 3 started at 74.7301878929'
p3086
aa(lp3087
S'trial 49 started at 75.2887918949'
p3088
aS'trial 49 event y at 75.3125338554'
p3089
aS'trial 49 phase 1 started at 75.5958809853'
p3090
aS'trial 49 phase 2 started at 75.8459618092'
p3091
aS'trial 49 phase 3 started at 76.0624859333'
p3092
aS'trial 49 event y at 76.4662649632'
p3093
aa(lp3094
S'trial 50 started at 76.6054599285'
p3095
aS'trial 50 phase 1 started at 76.9135568142'
p3096
aS'trial 50 phase 2 started at 77.1635699272'
p3097
aS'trial 50 phase 3 started at 77.3635849953'
p3098
aS'trial 50 event b at 77.7495720387'
p3099
aa(lp3100
S'trial 51 started at 77.9063940048'
p3101
aS'trial 51 phase 1 started at 78.2136368752'
p3102
aS'trial 51 phase 2 started at 78.4803028107'
p3103
aS'trial 51 phase 3 started at 78.6803729534'
p3104
aS'trial 51 event y at 79.049710989'
p3105
aa(lp3106
S'trial 52 started at 79.2243349552'
p3107
aS'trial 52 phase 1 started at 79.5304069519'
p3108
aS'trial 52 phase 2 started at 79.7970209122'
p3109
aS'trial 52 phase 3 started at 79.997068882'
p3110
aa(lp3111
S'trial 53 started at 80.5562598705'
p3112
aS'trial 53 event y at 80.5803928375'
p3113
aS'trial 53 phase 1 started at 80.8636488914'
p3114
aS'trial 53 phase 2 started at 81.113724947'
p3115
aS'trial 53 phase 3 started at 81.3137359619'
p3116
aa(lp3117
S'trial 54 started at 81.8730669022'
p3118
aS'trial 54 event y at 81.9164729118'
p3119
aS'trial 54 phase 1 started at 82.1804699898'
p3120
aS'trial 54 phase 2 started at 82.4473218918'
p3121
aS'trial 54 phase 3 started at 82.6638360023'
p3122
aS'trial 54 event b at 82.9999289513'
p3123
aa(lp3124
S'trial 55 started at 83.2237458229'
p3125
aS'trial 55 phase 1 started at 83.5303900242'
p3126
aS'trial 55 phase 2 started at 83.7804419994'
p3127
aS'trial 55 phase 3 started at 83.9805099964'
p3128
aS'trial 55 event y at 84.2823219299'
p3129
aa(lp3130
S'trial 56 started at 84.5380179882'
p3131
aS'trial 56 phase 1 started at 84.8461368084'
p3132
aS'trial 56 phase 2 started at 85.1127669811'
p3133
aS'trial 56 phase 3 started at 85.3128049374'
p3134
aS'trial 56 event y at 85.7165930271'
p3135
aa(lp3136
S'trial 57 started at 85.8523168564'
p3137
aS'trial 57 phase 1 started at 86.1637918949'
p3138
aS'trial 57 phase 2 started at 86.4139130116'
p3139
aS'trial 57 phase 3 started at 86.6305799484'
p3140
aS'trial 57 event b at 86.9666509628'
p3141
aa(lp3142
S'trial 58 started at 87.1924250126'
p3143
aS'trial 58 phase 1 started at 87.4972879887'
p3144
aS'trial 58 phase 2 started at 87.7639229298'
p3145
aS'trial 58 phase 3 started at 87.9639809132'
p3146
aS'trial 58 event b at 88.3989720345'
p3147
aa(lp3148
S'trial 59 started at 88.522974968'
p3149
aS'trial 59 phase 1 started at 88.8296039104'
p3150
aS'trial 59 phase 2 started at 89.0796170235'
p3151
aS'trial 59 phase 3 started at 89.2796578407'
p3152
aS'trial 59 event b at 89.5822379589'
p3153
aa(lp3154
S'trial 60 started at 89.8235759735'
p3155
aS'trial 60 phase 1 started at 90.1307108402'
p3156
aS'trial 60 phase 2 started at 90.3807599545'
p3157
aS'trial 60 phase 3 started at 90.5973598957'
p3158
aS'trial 60 event y at 90.9000630379'
p3159
aa(lp3160
S'trial 61 started at 91.1557018757'
p3161
aS'trial 61 phase 1 started at 91.4640300274'
p3162
aS'trial 61 phase 2 started at 91.7307078838'
p3163
aS'trial 61 phase 3 started at 91.9307539463'
p3164
aS'trial 61 event y at 92.2500119209'
p3165
aa(lp3166
S'trial 62 started at 92.471424818'
p3167
aS'trial 62 phase 1 started at 92.7807049751'
p3168
aS'trial 62 phase 2 started at 93.0307500362'
p3169
aS'trial 62 phase 3 started at 93.2307569981'
p3170
aS'trial 62 event b at 93.5501298904'
p3171
aa(lp3172
S'trial 63 started at 93.7948408127'
p3173
aS'trial 63 phase 1 started at 94.0974369049'
p3174
aS'trial 63 phase 2 started at 94.3474459648'
p3175
aS'trial 63 phase 3 started at 94.5641260147'
p3176
aS'trial 63 event y at 94.9991359711'
p3177
aa(lp3178
S'trial 64 started at 95.1225409508'
p3179
aS'trial 64 phase 1 started at 95.4298388958'
p3180
aS'trial 64 phase 2 started at 95.6798598766'
p3181
aS'trial 64 phase 3 started at 95.8964488506'
p3182
aS'trial 64 event b at 96.1658058167'
p3183
aa(lp3184
S'trial 65 started at 96.4407348633'
p3185
aS'trial 65 phase 1 started at 96.7475240231'
p3186
aS'trial 65 phase 2 started at 97.0142638683'
p3187
aS'trial 65 phase 3 started at 97.2308158875'
p3188
aS'trial 65 event y at 97.5836420059'
p3189
aa(lp3190
S'trial 66 started at 97.7734069824'
p3191
aS'trial 66 phase 1 started at 98.0809290409'
p3192
aS'trial 66 phase 2 started at 98.3309550285'
p3193
aS'trial 66 phase 3 started at 98.5309548378'
p3194
aS'trial 66 event b at 98.8493349552'
p3195
aa(lp3196
S'trial 67 started at 99.0872118473'
p3197
aS'trial 67 phase 1 started at 99.3965809345'
p3198
aS'trial 67 phase 2 started at 99.6632928848'
p3199
aS'trial 67 phase 3 started at 99.8799870014'
p3200
aS'trial 67 event b at 100.149312973'
p3201
aa(lp3202
S'trial 68 started at 100.423979998'
p3203
aS'trial 68 phase 1 started at 100.73092103'
p3204
aS'trial 68 phase 2 started at 100.980988979'
p3205
aS'trial 68 phase 3 started at 101.181107044'
p3206
aS'trial 68 event y at 101.583705902'
p3207
aa(lp3208
S'trial 69 started at 101.724020958'
p3209
aS'trial 69 phase 1 started at 102.031061888'
p3210
aS'trial 69 phase 2 started at 102.29771781'
p3211
aS'trial 69 phase 3 started at 102.51429081'
p3212
aS'trial 69 event y at 102.830118895'
p3213
aa(lp3214
S'trial 70 started at 103.069106817'
p3215
aS'trial 70 phase 1 started at 103.380033016'
p3216
aS'trial 70 phase 2 started at 103.630093813'
p3217
aS'trial 70 phase 3 started at 103.84671402'
p3218
aS'trial 70 event y at 104.167141914'
p3219
aa(lp3220
S'trial 71 started at 104.391264915'
p3221
aS'trial 71 phase 1 started at 104.697729826'
p3222
aS'trial 71 phase 2 started at 104.947820902'
p3223
aS'trial 71 phase 3 started at 105.164485931'
p3224
aS'trial 71 event y at 105.550480843'
p3225
aa(lp3226
S'trial 72 started at 105.706717968'
p3227
aS'trial 72 phase 1 started at 106.014511824'
p3228
aS'trial 72 phase 2 started at 106.264513016'
p3229
aS'trial 72 phase 3 started at 106.481081963'
p3230
aS'trial 72 event b at 106.717155933'
p3231
aa(lp3232
S'trial 73 started at 107.027809858'
p3233
aS'trial 73 phase 1 started at 107.331188917'
p3234
aS'trial 73 phase 2 started at 107.597904921'
p3235
aS'trial 73 phase 3 started at 107.814529896'
p3236
aS'trial 73 event b at 107.981276989'
p3237
aa(lp3238
S'trial 74 started at 108.373862982'
p3239
aS'trial 74 phase 1 started at 108.681267023'
p3240
aS'trial 74 phase 2 started at 108.947954893'
p3241
aS'trial 74 phase 3 started at 109.164515972'
p3242
aS'trial 74 event b at 109.532843828'
p3243
aa(lp3244
S'trial 75 started at 109.72022295'
p3245
aS'trial 75 phase 1 started at 110.030269861'
p3246
aS'trial 75 phase 2 started at 110.296846867'
p3247
aS'trial 75 phase 3 started at 110.496960878'
p3248
aS'trial 75 event y at 110.799679995'
p3249
aa(lp3250
S'trial 76 started at 111.055773973'
p3251
aS'trial 76 phase 1 started at 111.364581823'
p3252
aS'trial 76 phase 2 started at 111.631315947'
p3253
aS'trial 76 phase 3 started at 111.831326008'
p3254
aS'trial 76 event b at 112.21756196'
p3255
aa(lp3256
S'trial 77 started at 112.373608828'
p3257
aS'trial 77 phase 1 started at 112.68136692'
p3258
aS'trial 77 phase 2 started at 112.931402922'
p3259
aS'trial 77 phase 3 started at 113.14801693'
p3260
aS'trial 77 event y at 113.484032869'
p3261
aa(lp3262
S'trial 78 started at 113.688676834'
p3263
aS'trial 78 phase 1 started at 113.998070002'
p3264
aS'trial 78 phase 2 started at 114.26470685'
p3265
aS'trial 78 phase 3 started at 114.464782953'
p3266
aa(lp3267
S'trial 79 started at 115.022450924'
p3268
aS'trial 79 event y at 115.048172951'
p3269
aS'trial 79 phase 1 started at 115.331375837'
p3270
aS'trial 79 phase 2 started at 115.581458807'
p3271
aS'trial 79 phase 3 started at 115.798058987'
p3272
aS'trial 79 event y at 116.198163033'
p3273
aa(lp3274
S'trial 80 started at 116.339058876'
p3275
aS'trial 80 phase 1 started at 116.648102999'
p3276
aS'trial 80 phase 2 started at 116.898116827'
p3277
aS'trial 80 phase 3 started at 117.098184824'
p3278
aS'trial 80 event b at 117.434260845'
p3279
aa(lp3280
S'trial 81 started at 117.655226946'
p3281
aS'trial 81 phase 1 started at 117.964799881'
p3282
aS'trial 81 phase 2 started at 118.214815855'
p3283
aS'trial 81 phase 3 started at 118.431432962'
p3284
aS'trial 81 event y at 118.767535925'
p3285
aa(lp3286
S'trial 82 started at 118.975235939'
p3287
aS'trial 82 phase 1 started at 119.281591892'
p3288
aS'trial 82 phase 2 started at 119.548163891'
p3289
aS'trial 82 phase 3 started at 119.748262882'
p3290
aS'trial 82 event b at 120.116536856'
p3291
aa(lp3292
S'trial 83 started at 120.306821823'
p3293
aS'trial 83 phase 1 started at 120.613914013'
p3294
aS'trial 83 phase 2 started at 120.864014864'
p3295
aS'trial 83 phase 3 started at 121.080518961'
p3296
aS'trial 83 event y at 121.38322401'
p3297
aa(lp3298
S'trial 84 started at 121.620160818'
p3299
aS'trial 84 phase 1 started at 121.931665897'
p3300
aS'trial 84 phase 2 started at 122.198272943'
p3301
aS'trial 84 phase 3 started at 122.398365021'
p3302
aS'trial 84 event b at 122.734370947'
p3303
aa(lp3304
S'trial 85 started at 122.95765686'
p3305
aS'trial 85 phase 1 started at 123.26491785'
p3306
aS'trial 85 phase 2 started at 123.514932871'
p3307
aS'trial 85 phase 3 started at 123.715029001'
p3308
aS'trial 85 event b at 124.100044012'
p3309
aa(lp3310
S'trial 86 started at 124.271368027'
p3311
aS'trial 86 phase 1 started at 124.580730915'
p3312
aS'trial 86 phase 2 started at 124.847303867'
p3313
aS'trial 86 phase 3 started at 125.047385931'
p3314
aS'trial 86 event b at 125.383460999'
p3315
aa(lp3316
S'trial 87 started at 125.608461857'
p3317
aS'trial 87 phase 1 started at 125.915066004'
p3318
aS'trial 87 phase 2 started at 126.18175292'
p3319
aS'trial 87 phase 3 started at 126.381788015'
p3320
aS'trial 87 event b at 126.684576035'
p3321
aa(lp3322
S'trial 88 started at 126.92124486'
p3323
aS'trial 88 phase 1 started at 127.231825829'
p3324
aS'trial 88 phase 2 started at 127.498466969'
p3325
aS'trial 88 phase 3 started at 127.715109825'
p3326
aS'trial 88 event b at 128.067939043'
p3327
aa(lp3328
S'trial 89 started at 128.255504847'
p3329
aS'trial 89 phase 1 started at 128.565088987'
p3330
aS'trial 89 phase 2 started at 128.815174818'
p3331
aS'trial 89 phase 3 started at 129.03190589'
p3332
aS'trial 89 event b at 129.434578896'
p3333
aa(lp3334
S'trial 90 started at 129.575804949'
p3335
aS'trial 90 phase 1 started at 129.881847858'
p3336
aS'trial 90 phase 2 started at 130.148490906'
p3337
aS'trial 90 phase 3 started at 130.365131855'
p3338
aS'trial 90 event y at 130.484472036'
p3339
aa(lp3340
S'trial 91 started at 130.905428886'
p3341
aS'trial 91 phase 1 started at 131.215220928'
p3342
aS'trial 91 phase 2 started at 131.481930971'
p3343
aS'trial 91 phase 3 started at 131.698516846'
p3344
aS'trial 91 event y at 132.001271009'
p3345
aa(lp3346
S'trial 92 started at 132.237742901'
p3347
aS'trial 92 phase 1 started at 132.548652887'
p3348
aS'trial 92 phase 2 started at 132.815281868'
p3349
aS'trial 92 phase 3 started at 133.031893969'
p3350
aS'trial 92 event b at 133.283706903'
p3351
aa(lp3352
S'trial 93 started at 133.585489035'
p3353
aS'trial 93 phase 1 started at 133.897562027'
p3354
aS'trial 93 phase 2 started at 134.164264917'
p3355
aS'trial 93 phase 3 started at 134.364267826'
p3356
aS'trial 93 event b at 134.683571815'
p3357
aa(lp3358
S'trial 94 started at 134.905212879'
p3359
aS'trial 94 phase 1 started at 135.215404034'
p3360
aS'trial 94 phase 2 started at 135.481997013'
p3361
aS'trial 94 phase 3 started at 135.698628902'
p3362
aS'trial 94 event b at 135.98206687'
p3363
aa(lp3364
S'trial 95 started at 136.24012804'
p3365
aS'trial 95 phase 1 started at 136.548673868'
p3366
aS'trial 95 phase 2 started at 136.798697948'
p3367
aS'trial 95 phase 3 started at 136.998745918'
p3368
aS'trial 95 event b at 137.23365593'
p3369
aa(lp3370
S'trial 96 started at 137.552876949'
p3371
aS'trial 96 phase 1 started at 137.864387989'
p3372
aS'trial 96 phase 2 started at 138.114481926'
p3373
aS'trial 96 phase 3 started at 138.331071854'
p3374
aa(lp3375
S'trial 97 started at 138.875839949'
p3376
aS'trial 97 event y at 138.898847818'
p3377
aS'trial 97 phase 1 started at 139.182112932'
p3378
aS'trial 97 phase 2 started at 139.432163'
p3379
aS'trial 97 phase 3 started at 139.632233858'
p3380
aa(lp3381
S'trial 98 started at 140.189319849'
p3382
aS'trial 98 event y at 140.215507984'
p3383
aS'trial 98 phase 1 started at 140.498848915'
p3384
aS'trial 98 phase 2 started at 140.765555859'
p3385
aS'trial 98 phase 3 started at 140.982244968'
p3386
aS'trial 98 event b at 141.283784866'
p3387
aa(lp3388
S'trial 99 started at 141.542635918'
p3389
aS'trial 99 phase 1 started at 141.84781599'
p3390
aS'trial 99 phase 2 started at 142.097824812'
p3391
aS'trial 99 phase 3 started at 142.297835827'
p3392
aS'trial 99 event b at 142.500674963'
p3393
aa(lp3394
S'trial 100 started at 142.84154582'
p3395
aS'trial 100 phase 1 started at 143.148849964'
p3396
aS'trial 100 phase 2 started at 143.398952961'
p3397
aS'trial 100 phase 3 started at 143.615609884'
p3398
aS'trial 100 event y at 143.798995018'
p3399
aa(lp3400
S'trial 101 started at 144.173218012'
p3401
aS'trial 101 phase 1 started at 144.482338905'
p3402
aS'trial 101 phase 2 started at 144.748939991'
p3403
aS'trial 101 phase 3 started at 144.949021816'
p3404
aS'trial 101 event y at 145.351688862'
p3405
aa(lp3406
S'trial 102 started at 145.491340876'
p3407
aS'trial 102 phase 1 started at 145.798945904'
p3408
aS'trial 102 phase 2 started at 146.048971891'
p3409
aS'trial 102 phase 3 started at 146.249037027'
p3410
aS'trial 102 event b at 146.635123968'
p3411
aa(lp3412
S'trial 103 started at 146.806584835'
p3413
aS'trial 103 phase 1 started at 147.115770817'
p3414
aS'trial 103 phase 2 started at 147.382344007'
p3415
aS'trial 103 phase 3 started at 147.599095821'
p3416
aS'trial 103 event b at 147.851780891'
p3417
aa(lp3418
S'trial 104 started at 148.156903028'
p3419
aS'trial 104 phase 1 started at 148.465732813'
p3420
aS'trial 104 phase 2 started at 148.715741873'
p3421
aS'trial 104 phase 3 started at 148.915760994'
p3422
aS'trial 104 event y at 149.135051012'
p3423
aa(lp3424
S'trial 105 started at 149.469981909'
p3425
aS'trial 105 phase 1 started at 149.782435894'
p3426
aS'trial 105 phase 2 started at 150.032452822'
p3427
aS'trial 105 phase 3 started at 150.249428034'
p3428
aS'trial 105 event b at 150.501920938'
p3429
aa(lp3430
S'trial 106 started at 150.809964895'
p3431
aS'trial 106 phase 1 started at 151.115865946'
p3432
aS'trial 106 phase 2 started at 151.36588788'
p3433
aS'trial 106 phase 3 started at 151.582479'
p3434
aS'trial 106 event b at 151.818514824'
p3435
aa(lp3436
S'trial 107 started at 152.121863842'
p3437
aS'trial 107 phase 1 started at 152.432574987'
p3438
aS'trial 107 phase 2 started at 152.699182987'
p3439
aS'trial 107 phase 3 started at 152.899250031'
p3440
aS'trial 107 event b at 153.252017021'
p3441
aa(lp3442
S'trial 108 started at 153.436709881'
p3443
aS'trial 108 phase 1 started at 153.749166012'
p3444
aS'trial 108 phase 2 started at 154.015941858'
p3445
aS'trial 108 phase 3 started at 154.232650042'
p3446
aa(lp3447
S'trial 109 started at 154.789805889'
p3448
aS'trial 109 event y at 154.816038847'
p3449
aS'trial 109 phase 1 started at 155.099206924'
p3450
aS'trial 109 phase 2 started at 155.349284887'
p3451
aS'trial 109 phase 3 started at 155.549329042'
p3452
aS'trial 109 event b at 155.951957941'
p3453
aa(lp3454
S'trial 110 started at 156.090659857'
p3455
aS'trial 110 phase 1 started at 156.399281025'
p3456
aS'trial 110 phase 2 started at 156.666049957'
p3457
aS'trial 110 phase 3 started at 156.882647991'
p3458
aS'trial 110 event y at 157.168699026'
p3459
aa(lp3460
S'trial 111 started at 157.425760984'
p3461
aS'trial 111 phase 1 started at 157.732609034'
p3462
aS'trial 111 phase 2 started at 157.982676983'
p3463
aS'trial 111 phase 3 started at 158.182718039'
p3464
aS'trial 111 event b at 158.435510874'
p3465
aa(lp3466
S'trial 112 started at 158.744971037'
p3467
aS'trial 112 phase 1 started at 159.048367977'
p3468
aS'trial 112 phase 2 started at 159.298424006'
p3469
aS'trial 112 phase 3 started at 159.498466015'
p3470
aS'trial 112 event y at 159.751201868'
p3471
aa(lp3472
S'trial 113 started at 160.052358866'
p3473
aS'trial 113 phase 1 started at 160.366067886'
p3474
aS'trial 113 phase 2 started at 160.616147995'
p3475
aS'trial 113 phase 3 started at 160.816184998'
p3476
aS'trial 113 event b at 161.135540009'
p3477
aa(lp3478
S'trial 114 started at 161.375948906'
p3479
aS'trial 114 phase 1 started at 161.682758808'
p3480
aS'trial 114 phase 2 started at 161.932860851'
p3481
aS'trial 114 phase 3 started at 162.13290596'
p3482
aS'trial 114 event b at 162.568913937'
p3483
aa(lp3484
S'trial 115 started at 162.691761017'
p3485
aS'trial 115 phase 1 started at 162.999423027'
p3486
aS'trial 115 phase 2 started at 163.249541044'
p3487
aS'trial 115 phase 3 started at 163.466130018'
p3488
aS'trial 115 event y at 163.835566998'
p3489
aa(lp3490
S'trial 116 started at 164.010404825'
p3491
aS'trial 116 phase 1 started at 164.316181898'
p3492
aS'trial 116 phase 2 started at 164.566257'
p3493
aS'trial 116 phase 3 started at 164.766278028'
p3494
aS'trial 116 event y at 165.034574032'
p3495
aa(lp3496
S'trial 117 started at 165.326824903'
p3497
aS'trial 117 phase 1 started at 165.631983042'
p3498
aS'trial 117 phase 2 started at 165.898592949'
p3499
aS'trial 117 phase 3 started at 166.115484953'
p3500
aS'trial 117 event y at 166.451308966'
p3501
aa(lp3502
S'trial 118 started at 166.659237862'
p3503
aS'trial 118 phase 1 started at 166.966233969'
p3504
aS'trial 118 phase 2 started at 167.216272831'
p3505
aS'trial 118 phase 3 started at 167.416366816'
p3506
aS'trial 118 event y at 167.835662842'
p3507
aa(lp3508
S'trial 119 started at 167.969816923'
p3509
aS'trial 119 phase 1 started at 168.283032894'
p3510
aS'trial 119 phase 2 started at 168.549726009'
p3511
aS'trial 119 phase 3 started at 168.749758005'
p3512
aS'trial 119 event y at 169.151425838'
p3513
aa(lp3514
S'trial 120 started at 169.287132978'
p3515
aS'trial 120 phase 1 started at 169.598752975'
p3516
aS'trial 120 phase 2 started at 169.865301847'
p3517
aS'trial 120 phase 3 started at 170.065315008'
p3518
aS'trial 120 event b at 170.43208003'
p3519
aa(lp3520
S'trial 121 started at 170.608732939'
p3521
aS'trial 121 phase 1 started at 170.91645503'
p3522
aS'trial 121 phase 2 started at 171.183140993'
p3523
aS'trial 121 phase 3 started at 171.399782896'
p3524
aS'trial 121 event y at 171.785826921'
p3525
aa(lp3526
S'trial 122 started at 171.943842888'
p3527
aS'trial 122 phase 1 started at 172.249778986'
p3528
aS'trial 122 phase 2 started at 172.516400814'
p3529
aS'trial 122 phase 3 started at 172.716468811'
p3530
aS'trial 122 event b at 173.051501036'
p3531
aa(lp3532
S'trial 123 started at 173.270298004'
p3533
aS'trial 123 phase 1 started at 173.582088947'
p3534
aS'trial 123 phase 2 started at 173.832134008'
p3535
aS'trial 123 phase 3 started at 174.048863888'
p3536
aa(lp3537
S'trial 124 started at 174.593325853'
p3538
aS'trial 124 event y at 174.616612911'
p3539
aS'trial 124 phase 1 started at 174.899893999'
p3540
aS'trial 124 phase 2 started at 175.166582823'
p3541
aS'trial 124 phase 3 started at 175.383172989'
p3542
aS'trial 124 event b at 175.702517033'
p3543
aa(lp3544
S'trial 125 started at 175.940047026'
p3545
aS'trial 125 phase 1 started at 176.249878883'
p3546
aS'trial 125 phase 2 started at 176.499953985'
p3547
aS'trial 125 phase 3 started at 176.716568947'
p3548
aS'trial 125 event b at 177.119297028'
p3549
aa(lp3550
S'trial 126 started at 177.257838011'
p3551
aS'trial 126 phase 1 started at 177.566676855'
p3552
aS'trial 126 phase 2 started at 177.833292961'
p3553
aS'trial 126 phase 3 started at 178.0500319'
p3554
aS'trial 126 event y at 178.285944939'
p3555
aa(lp3556
S'trial 127 started at 178.608125925'
p3557
aS'trial 127 phase 1 started at 178.91658783'
p3558
aS'trial 127 phase 2 started at 179.166663885'
p3559
aS'trial 127 phase 3 started at 179.383379936'
p3560
aS'trial 127 event y at 179.652685881'
p3561
aa(lp3562
S'trial 128 started at 179.938685894'
p3563
aS'trial 128 phase 1 started at 180.25001502'
p3564
aS'trial 128 phase 2 started at 180.500043869'
p3565
aS'trial 128 phase 3 started at 180.700079918'
p3566
aS'trial 128 event b at 181.000144005'
p3567
aa(lp3568
S'trial 129 started at 181.242429972'
p3569
aS'trial 129 phase 1 started at 181.550134897'
p3570
aS'trial 129 phase 2 started at 181.816766977'
p3571
aS'trial 129 phase 3 started at 182.033445835'
p3572
aS'trial 129 event b at 182.415743828'
p3573
aa(lp3574
S'trial 130 started at 182.593787909'
p3575
aS'trial 130 phase 1 started at 182.899006844'
p3576
aS'trial 130 phase 2 started at 183.149160862'
p3577
aS'trial 130 phase 3 started at 183.365792036'
p3578
aS'trial 130 event y at 183.63506484'
p3579
aa(lp3580
S'trial 131 started at 183.910228968'
p3581
aS'trial 131 phase 1 started at 184.216840982'
p3582
aS'trial 131 phase 2 started at 184.483505964'
p3583
aS'trial 131 phase 3 started at 184.683518887'
p3584
aS'trial 131 event b at 185.00286603'
p3585
aa(lp3586
S'trial 132 started at 185.22424984'
p3587
aS'trial 132 phase 1 started at 185.53350997'
p3588
aS'trial 132 phase 2 started at 185.800166845'
p3589
aS'trial 132 phase 3 started at 186.000180006'
p3590
aS'trial 132 event y at 186.435281038'
p3591
aa(lp3592
S'trial 133 started at 186.560400963'
p3593
aS'trial 133 phase 1 started at 186.86590004'
p3594
aS'trial 133 phase 2 started at 187.132536888'
p3595
aS'trial 133 phase 3 started at 187.332605839'
p3596
aa(lp3597
S'trial 134 started at 187.875919819'
p3598
aS'trial 134 event y at 187.952977896'
p3599
aS'trial 134 phase 1 started at 188.183660984'
p3600
aS'trial 134 phase 2 started at 188.450251818'
p3601
aS'trial 134 phase 3 started at 188.650354862'
p3602
aS'trial 134 event b at 188.869575977'
p3603
aa(lp3604
S'trial 135 started at 189.210170984'
p3605
aS'trial 135 phase 1 started at 189.51689291'
p3606
aS'trial 135 phase 2 started at 189.766947031'
p3607
aS'trial 135 phase 3 started at 189.967033863'
p3608
aa(lp3609
S'trial 136 started at 190.522984982'
p3610
aS'trial 136 event y at 190.60213685'
p3611
aS'trial 136 phase 1 started at 190.832701921'
p3612
aS'trial 136 phase 2 started at 191.0992589'
p3613
aS'trial 136 phase 3 started at 191.299337864'
p3614
aa(lp3615
S'trial 137 started at 191.839538813'
p3616
aS'trial 137 event b at 191.867141008'
p3617
aS'trial 137 phase 1 started at 192.150338888'
p3618
aS'trial 137 phase 2 started at 192.40039587'
p3619
aS'trial 137 phase 3 started at 192.600427866'
p3620
aa(lp3621
S'trial 138 started at 193.161332846'
p3622
aS'trial 138 event b at 193.269670963'
p3623
aS'trial 138 phase 1 started at 193.467092991'
p3624
aS'trial 138 phase 2 started at 193.733783007'
p3625
aS'trial 138 phase 3 started at 193.950397015'
p3626
aa(lp3627
S'trial 139 started at 194.493579865'
p3628
aS'trial 139 event b at 194.520041943'
p3629
aS'trial 139 phase 1 started at 194.8004179'
p3630
aS'trial 139 phase 2 started at 195.050447941'
p3631
aS'trial 139 phase 3 started at 195.250515938'
p3632
aa(lp3633
S'trial 140 started at 195.805909872'
p3634
aS'trial 140 event b at 195.833856821'
p3635
aS'trial 140 phase 1 started at 196.117210865'
p3636
aS'trial 140 phase 2 started at 196.367269993'
p3637
aS'trial 140 phase 3 started at 196.583899975'
p3638
aS'trial 140 event b at 197.018887043'
p3639
aa(lp3640
S'trial 141 started at 197.143740892'
p3641
aS'trial 141 phase 1 started at 197.449551821'
p3642
aS'trial 141 phase 2 started at 197.716209888'
p3643
aS'trial 141 phase 3 started at 197.916227818'
p3644
aS'trial 141 event y at 198.199570894'
p3645
aa(lp3646
S'trial 142 started at 198.456691027'
p3647
aS'trial 142 phase 1 started at 198.767318964'
p3648
aS'trial 142 phase 2 started at 199.033936024'
p3649
aS'trial 142 phase 3 started at 199.250571966'
p3650
aS'trial 142 event b at 199.553373814'
p3651
aa(lp3652
S'trial 143 started at 199.790230989'
p3653
aS'trial 143 phase 1 started at 200.100555897'
p3654
aS'trial 143 phase 2 started at 200.350622892'
p3655
aS'trial 143 phase 3 started at 200.550637007'
p3656
aS'trial 143 event y at 200.852353811'
p3657
aa(lp3658
S'trial 144 started at 201.110637903'
p3659
aS'trial 144 phase 1 started at 201.416337013'
p3660
aS'trial 144 phase 2 started at 201.666363955'
p3661
aS'trial 144 phase 3 started at 201.883024931'
p3662
aa(lp3663
S'trial 145 started at 202.426878929'
p3664
aS'trial 145 event b at 202.503715038'
p3665
aS'trial 145 phase 1 started at 202.734067917'
p3666
aS'trial 145 phase 2 started at 203.000689983'
p3667
aS'trial 145 phase 3 started at 203.200692892'
p3668
aS'trial 145 event y at 203.586606026'
p3669
aa(lp3670
S'trial 146 started at 203.741201878'
p3671
aS'trial 146 phase 1 started at 204.050750017'
p3672
aS'trial 146 phase 2 started at 204.300788879'
p3673
aS'trial 146 phase 3 started at 204.517365932'
p3674
aa(lp3675
S'trial 147 started at 205.075881004'
p3676
aS'trial 147 event y at 205.102586985'
p3677
aS'trial 147 phase 1 started at 205.383180857'
p3678
aS'trial 147 phase 2 started at 205.649806023'
p3679
aS'trial 147 phase 3 started at 205.86636591'
p3680
aa(lp3681
S'trial 148 started at 206.410226822'
p3682
aS'trial 148 event y at 206.434156895'
p3683
aS'trial 148 phase 1 started at 206.717433929'
p3684
aS'trial 148 phase 2 started at 206.967489004'
p3685
aS'trial 148 phase 3 started at 207.167542934'
p3686
aS'trial 148 event b at 207.586870909'
p3687
aa(lp3688
S'trial 149 started at 207.724542856'
p3689
aS'trial 149 phase 1 started at 208.034132957'
p3690
aS'trial 149 phase 2 started at 208.284250975'
p3691
aS'trial 149 phase 3 started at 208.500912905'
p3692
aa(lp3693
S'trial 150 started at 209.041443825'
p3694
aS'trial 150 event b at 209.0676229'
p3695
aS'trial 150 phase 1 started at 209.350925922'
p3696
aS'trial 150 phase 2 started at 209.600939035'
p3697
aS'trial 150 phase 3 started at 209.817617893'
p3698
aS'trial 150 event b at 210.136987925'
p3699
aa(lp3700
S'trial 151 started at 210.3589499'
p3701
aS'trial 151 phase 1 started at 210.667529821'
p3702
aS'trial 151 phase 2 started at 210.917580843'
p3703
aS'trial 151 phase 3 started at 211.134353876'
p3704
aS'trial 151 event y at 211.553588867'
p3705
aa(lp3706
S'trial 152 started at 211.693295956'
p3707
aS'trial 152 phase 1 started at 212.000962019'
p3708
aS'trial 152 phase 2 started at 212.267632961'
p3709
aS'trial 152 phase 3 started at 212.467638969'
p3710
aS'trial 152 event b at 212.803637028'
p3711
aa(lp3712
S'trial 153 started at 213.00999403'
p3713
aS'trial 153 phase 1 started at 213.317629814'
p3714
aS'trial 153 phase 2 started at 213.567634821'
p3715
aS'trial 153 phase 3 started at 213.767710924'
p3716
aS'trial 153 event b at 214.102753878'
p3717
aa(lp3718
S'trial 154 started at 214.322748899'
p3719
aS'trial 154 phase 1 started at 214.633364916'
p3720
aS'trial 154 phase 2 started at 214.899945021'
p3721
aS'trial 154 phase 3 started at 215.100087881'
p3722
aa(lp3723
S'trial 155 started at 215.644393921'
p3724
aS'trial 155 event y at 215.821816921'
p3725
aS'trial 155 phase 1 started at 215.952306032'
p3726
aS'trial 155 phase 2 started at 216.217706919'
p3727
aS'trial 155 phase 3 started at 216.434484959'
p3728
aS'trial 155 event b at 216.820544004'
p3729
aa(lp3730
S'trial 156 started at 216.991773844'
p3731
aS'trial 156 phase 1 started at 217.301163912'
p3732
aS'trial 156 phase 2 started at 217.567878962'
p3733
aS'trial 156 phase 3 started at 217.784538984'
p3734
aS'trial 156 event y at 218.086234808'
p3735
aa(lp3736
S'trial 157 started at 218.338799953'
p3737
aS'trial 157 phase 1 started at 218.65013504'
p3738
aS'trial 157 phase 2 started at 218.900166035'
p3739
aS'trial 157 phase 3 started at 219.100172997'
p3740
aS'trial 157 event b at 219.503880978'
p3741
aa(lp3742
S'trial 158 started at 219.641427994'
p3743
aS'trial 158 phase 1 started at 219.951182842'
p3744
aS'trial 158 phase 2 started at 220.201222897'
p3745
aS'trial 158 phase 3 started at 220.417865038'
p3746
aS'trial 158 event b at 220.804029942'
p3747
aa(lp3748
S'trial 159 started at 220.961423874'
p3749
aS'trial 159 phase 1 started at 221.267959833'
p3750
aS'trial 159 phase 2 started at 221.534562826'
p3751
aS'trial 159 phase 3 started at 221.751206875'
p3752
aS'trial 159 event b at 222.102922916'
p3753
aa(lp3754
S'trial 160 started at 222.310153961'
p3755
aS'trial 160 phase 1 started at 222.616930008'
p3756
aS'trial 160 phase 2 started at 222.883661985'
p3757
aS'trial 160 phase 3 started at 223.10034585'
p3758
aS'trial 160 event y at 223.520722866'
p3759
aa(lp3760
S'trial 161 started at 223.649083853'
p3761
aS'trial 161 phase 1 started at 223.951289892'
p3762
aS'trial 161 phase 2 started at 224.20131588'
p3763
aS'trial 161 phase 3 started at 224.401413918'
p3764
aS'trial 161 event b at 224.703994036'
p3765
aa(lp3766
S'trial 162 started at 224.94629097'
p3767
aS'trial 162 phase 1 started at 225.251376867'
p3768
aS'trial 162 phase 2 started at 225.518105984'
p3769
aS'trial 162 phase 3 started at 225.734745026'
p3770
aS'trial 162 event y at 226.033701897'
p3771
aa(lp3772
S'trial 163 started at 226.292932987'
p3773
aS'trial 163 phase 1 started at 226.600343943'
p3774
aS'trial 163 phase 2 started at 226.850368023'
p3775
aS'trial 163 phase 3 started at 227.050482035'
p3776
aa(lp3777
S'trial 164 started at 227.589810848'
p3778
aS'trial 164 event y at 227.618763924'
p3779
aS'trial 164 phase 1 started at 227.901392937'
p3780
aS'trial 164 phase 2 started at 228.151464939'
p3781
aS'trial 164 phase 3 started at 228.368108988'
p3782
aS'trial 164 event y at 228.73643899'
p3783
aa(lp3784
S'trial 165 started at 228.924250841'
p3785
aS'trial 165 phase 1 started at 229.233814955'
p3786
aS'trial 165 phase 2 started at 229.484227896'
p3787
aS'trial 165 phase 3 started at 229.700517893'
p3788
aS'trial 165 event b at 230.054273844'
p3789
aa(lp3790
S'trial 166 started at 230.240511894'
p3791
aS'trial 166 phase 1 started at 230.55153203'
p3792
aS'trial 166 phase 2 started at 230.818276882'
p3793
aS'trial 166 phase 3 started at 231.034874916'
p3794
aS'trial 166 event b at 231.320989847'
p3795
aa(lp3796
S'trial 167 started at 231.58109498'
p3797
aS'trial 167 phase 1 started at 231.884990931'
p3798
aS'trial 167 phase 2 started at 232.151582956'
p3799
aS'trial 167 phase 3 started at 232.368288994'
p3800
aS'trial 167 event y at 232.803200006'
p3801
aa(lp3802
S'trial 168 started at 232.926206827'
p3803
aS'trial 168 phase 1 started at 233.23385191'
p3804
aS'trial 168 phase 2 started at 233.483985901'
p3805
aS'trial 168 phase 3 started at 233.70054698'
p3806
aS'trial 168 event b at 233.984930992'
p3807
aa(lp3808
S'trial 169 started at 234.24484396'
p3809
aS'trial 169 phase 1 started at 234.551672935'
p3810
aS'trial 169 phase 2 started at 234.801684856'
p3811
aS'trial 169 phase 3 started at 235.018363953'
p3812
aS'trial 169 event b at 235.353425026'
p3813
aa(lp3814
S'trial 170 started at 235.572582006'
p3815
aS'trial 170 phase 1 started at 235.884052038'
p3816
aS'trial 170 phase 2 started at 236.150700808'
p3817
aS'trial 170 phase 3 started at 236.350905895'
p3818
aS'trial 170 event y at 236.636694908'
p3819
aa(lp3820
S'trial 171 started at 236.893666983'
p3821
aS'trial 171 phase 1 started at 237.201687813'
p3822
aS'trial 171 phase 2 started at 237.451694012'
p3823
aS'trial 171 phase 3 started at 237.66848588'
p3824
aS'trial 171 event b at 237.987794876'
p3825
aa(lp3826
S'trial 172 started at 238.205499887'
p3827
aS'trial 172 phase 1 started at 238.518501997'
p3828
aS'trial 172 phase 2 started at 238.785135984'
p3829
aS'trial 172 phase 3 started at 238.985159874'
p3830
aS'trial 172 event b at 239.336872816'
p3831
aa(lp3832
S'trial 173 started at 239.541795015'
p3833
aS'trial 173 phase 1 started at 239.850857973'
p3834
aS'trial 173 phase 2 started at 240.117432833'
p3835
aS'trial 173 phase 3 started at 240.334188938'
p3836
aS'trial 173 event y at 240.686926842'
p3837
aa(lp3838
S'trial 174 started at 240.87825799'
p3839
aS'trial 174 phase 1 started at 241.185122013'
p3840
aS'trial 174 phase 2 started at 241.435187817'
p3841
aS'trial 174 phase 3 started at 241.635243893'
p3842
aS'trial 174 event b at 242.001922846'
p3843
aa(lp3844
S'trial 175 started at 242.174333811'
p3845
aS'trial 175 phase 1 started at 242.485167027'
p3846
aS'trial 175 phase 2 started at 242.735188961'
p3847
aS'trial 175 phase 3 started at 242.935262918'
p3848
aa(lp3849
S'trial 176 started at 243.489444017'
p3850
aS'trial 176 event b at 243.519227028'
p3851
aS'trial 176 phase 1 started at 243.80189991'
p3852
aS'trial 176 phase 2 started at 244.068645954'
p3853
aS'trial 176 phase 3 started at 244.285321951'
p3854
aS'trial 176 event b at 244.654613018'
p3855
aa(lp3856
S'trial 177 started at 244.841248989'
p3857
aS'trial 177 phase 1 started at 245.15197587'
p3858
aS'trial 177 phase 2 started at 245.418584824'
p3859
aS'trial 177 phase 3 started at 245.6186409'
p3860
aS'trial 177 event y at 245.888170004'
p3861
aa(lp3862
S'trial 178 started at 246.157521009'
p3863
aS'trial 178 phase 1 started at 246.468698025'
p3864
aS'trial 178 phase 2 started at 246.735322952'
p3865
aS'trial 178 phase 3 started at 246.935364962'
p3866
aS'trial 178 event b at 247.254701853'
p3867
aa(lp3868
S'trial 179 started at 247.495649815'
p3869
aS'trial 179 phase 1 started at 247.802067995'
p3870
aS'trial 179 phase 2 started at 248.068782806'
p3871
aS'trial 179 phase 3 started at 248.269171'
p3872
aS'trial 179 event y at 248.621382952'
p3873
aa(lp3874
S'trial 180 started at 248.824923992'
p3875
aS'trial 180 phase 1 started at 249.135375977'
p3876
aS'trial 180 phase 2 started at 249.385424852'
p3877
aS'trial 180 phase 3 started at 249.585491896'
p3878
aS'trial 180 event y at 250.003854036'
p3879
aa(lp3880
S'trial 181 started at 250.143326044'
p3881
aS'trial 181 phase 1 started at 250.451092005'
p3882
aS'trial 181 phase 2 started at 250.701182842'
p3883
aS'trial 181 phase 3 started at 250.917760849'
p3884
aS'trial 181 event b at 251.204901934'
p3885
aa(lp3886
S'trial 182 started at 251.461750984'
p3887
aS'trial 182 phase 1 started at 251.768908978'
p3888
aS'trial 182 phase 2 started at 252.035533905'
p3889
aS'trial 182 phase 3 started at 252.252228022'
p3890
aS'trial 182 event b at 252.554783821'
p3891
aa(lp3892
S'trial 183 started at 252.811018944'
p3893
aS'trial 183 phase 1 started at 253.118857861'
p3894
aS'trial 183 phase 2 started at 253.368935823'
p3895
aS'trial 183 phase 3 started at 253.585492849'
p3896
aa(lp3897
S'trial 184 started at 254.143764973'
p3898
aS'trial 184 event y at 254.167946815'
p3899
aS'trial 184 phase 1 started at 254.451256037'
p3900
aS'trial 184 phase 2 started at 254.717962027'
p3901
aS'trial 184 phase 3 started at 254.934623957'
p3902
aS'trial 184 event b at 255.28837204'
p3903
aa(lp3904
S'trial 185 started at 255.474808931'
p3905
aS'trial 185 phase 1 started at 255.785542011'
p3906
aS'trial 185 phase 2 started at 256.035632849'
p3907
aS'trial 185 phase 3 started at 256.235679865'
p3908
aS'trial 185 event y at 256.538405895'
p3909
aa(lp3910
S'trial 186 started at 256.773669004'
p3911
aS'trial 186 phase 1 started at 257.085660934'
p3912
aS'trial 186 phase 2 started at 257.33571887'
p3913
aS'trial 186 phase 3 started at 257.535720825'
p3914
aS'trial 186 event y at 257.887308836'
p3915
aa(lp3916
S'trial 187 started at 258.089313984'
p3917
aS'trial 187 phase 1 started at 258.401283979'
p3918
aS'trial 187 phase 2 started at 258.651373863'
p3919
aS'trial 187 phase 3 started at 258.86796093'
p3920
aS'trial 187 event b at 259.087347031'
p3921
aa(lp3922
S'trial 188 started at 259.410848856'
p3923
aS'trial 188 phase 1 started at 259.719066858'
p3924
aS'trial 188 phase 2 started at 259.969116926'
p3925
aS'trial 188 phase 3 started at 260.185700893'
p3926
aS'trial 188 event b at 260.504132986'
p3927
aa(lp3928
S'trial 189 started at 260.742611885'
p3929
aS'trial 189 phase 1 started at 261.051367998'
p3930
aS'trial 189 phase 2 started at 261.301447868'
p3931
aS'trial 189 phase 3 started at 261.518158913'
p3932
aS'trial 189 event y at 261.754156828'
p3933
aa(lp3934
S'trial 190 started at 262.061790943'
p3935
aS'trial 190 phase 1 started at 262.369086027'
p3936
aS'trial 190 phase 2 started at 262.619100809'
p3937
aS'trial 190 phase 3 started at 262.81921196'
p3938
aS'trial 190 event y at 263.021842003'
p3939
aa(lp3940
S'trial 191 started at 263.374754906'
p3941
aS'trial 191 phase 1 started at 263.685792923'
p3942
aS'trial 191 phase 2 started at 263.935853958'
p3943
aS'trial 191 phase 3 started at 264.135917902'
p3944
aa(lp3945
S'trial 192 started at 264.70015502'
p3946
aS'trial 192 event y at 264.719343901'
p3947
aS'trial 192 phase 1 started at 265.002581835'
p3948
aS'trial 192 phase 2 started at 265.252614021'
p3949
aS'trial 192 phase 3 started at 265.452646017'
p3950
aS'trial 192 event b at 265.705174923'
p3951
aa(lp3952
S'trial 193 started at 266.011175871'
p3953
aS'trial 193 phase 1 started at 266.319355011'
p3954
aS'trial 193 phase 2 started at 266.586004019'
p3955
aS'trial 193 phase 3 started at 266.802596807'
p3956
aS'trial 193 event b at 267.087754011'
p3957
aa(lp3958
S'trial 194 started at 267.360141039'
p3959
aS'trial 194 phase 1 started at 267.668277025'
p3960
aS'trial 194 phase 2 started at 267.93493104'
p3961
aS'trial 194 phase 3 started at 268.135026932'
p3962
aa(lp3963
S'trial 195 started at 268.678164005'
p3964
aS'trial 195 event b at 268.702701807'
p3965
aS'trial 195 phase 1 started at 268.98596096'
p3966
aS'trial 195 phase 2 started at 269.236018896'
p3967
aS'trial 195 phase 3 started at 269.436056852'
p3968
aS'trial 195 event b at 269.855687857'
p3969
aa(lp3970
S'trial 196 started at 269.983644962'
p3971
aS'trial 196 phase 1 started at 270.286046982'
p3972
aS'trial 196 phase 2 started at 270.552706957'
p3973
aS'trial 196 phase 3 started at 270.752754927'
p3974
aS'trial 196 event y at 271.054373026'
p3975
aa(lp3976
S'trial 197 started at 271.306381941'
p3977
aS'trial 197 phase 1 started at 271.618360043'
p3978
aS'trial 197 phase 2 started at 271.868494987'
p3979
aS'trial 197 phase 3 started at 272.085119963'
p3980
aS'trial 197 event b at 272.404453993'
p3981
aa(lp3982
S'trial 198 started at 272.642060995'
p3983
aS'trial 198 phase 1 started at 272.952798843'
p3984
aS'trial 198 phase 2 started at 273.202800035'
p3985
aS'trial 198 phase 3 started at 273.419564009'
p3986
aS'trial 198 event y at 273.688820839'
p3987
aa(lp3988
S'trial 199 started at 273.977658033'
p3989
aS'trial 199 phase 1 started at 274.286106825'
p3990
aS'trial 199 phase 2 started at 274.536159992'
p3991
aS'trial 199 phase 3 started at 274.736174822'
p3992
aS'trial 199 event y at 275.137867928'
p3993
aa(lp3994
S'trial 200 started at 275.277556896'
p3995
aS'trial 200 phase 1 started at 275.58522892'
p3996
aS'trial 200 phase 2 started at 275.851887941'
p3997
aS'trial 200 phase 3 started at 276.051888943'
p3998
aa(lp3999
S'trial 201 started at 276.596357822'
p4000
aS'trial 201 event b at 276.619674921'
p4001
aS'trial 201 phase 1 started at 276.902946949'
p4002
aS'trial 201 phase 2 started at 277.169550896'
p4003
aS'trial 201 phase 3 started at 277.369701862'
p4004
aS'trial 201 event b at 277.788934946'
p4005
aa(lp4006
S'trial 202 started at 277.931185007'
p4007
aS'trial 202 phase 1 started at 278.236276865'
p4008
aS'trial 202 phase 2 started at 278.486335039'
p4009
aS'trial 202 phase 3 started at 278.686345816'
p4010
aS'trial 202 event b at 279.088937044'
p4011
aa(lp4012
S'trial 203 started at 279.228304863'
p4013
aS'trial 203 phase 1 started at 279.536341906'
p4014
aS'trial 203 phase 2 started at 279.803037882'
p4015
aS'trial 203 phase 3 started at 280.01962781'
p4016
aS'trial 203 event y at 280.222491026'
p4017
aa(lp4018
S'trial 204 started at 280.565147877'
p4019
aS'trial 204 phase 1 started at 280.869726896'
p4020
aS'trial 204 phase 2 started at 281.136349916'
p4021
aS'trial 204 phase 3 started at 281.352964878'
p4022
aS'trial 204 event b at 281.654767036'
p4023
aa(lp4024
S'trial 205 started at 281.908835888'
p4025
aS'trial 205 phase 1 started at 282.21874094'
p4026
aS'trial 205 phase 2 started at 282.485359907'
p4027
aS'trial 205 phase 3 started at 282.685442924'
p4028
aS'trial 205 event y at 283.022555828'
p4029
aa(lp4030
S'trial 206 started at 283.229627848'
p4031
aS'trial 206 phase 1 started at 283.536424875'
p4032
aS'trial 206 phase 2 started at 283.786535025'
p4033
aS'trial 206 phase 3 started at 284.003062963'
p4034
aS'trial 206 event b at 284.304916859'
p4035
aa(lp4036
S'trial 207 started at 284.560060978'
p4037
aS'trial 207 phase 1 started at 284.868912935'
p4038
aS'trial 207 phase 2 started at 285.135408878'
p4039
aS'trial 207 phase 3 started at 285.335512877'
p4040
aS'trial 207 event y at 285.588284969'
p4041
aa(lp4042
S'trial 208 started at 285.878013849'
p4043
aS'trial 208 phase 1 started at 286.186458826'
p4044
aS'trial 208 phase 2 started at 286.436600924'
p4045
aS'trial 208 phase 3 started at 286.653239012'
p4046
aS'trial 208 event b at 286.822539806'
p4047
aa(lp4048
S'trial 209 started at 287.206668854'
p4049
aS'trial 209 phase 1 started at 287.519851923'
p4050
aS'trial 209 phase 2 started at 287.769927979'
p4051
aS'trial 209 phase 3 started at 287.986573935'
p4052
aS'trial 209 event b at 288.205971003'
p4053
aas.